
C:/Users/aguat/Documents/GitHub/Raspberry-Pi-Pico/FreeRTOS-RPI-pico/Inyectores/build/on_core_one.elf:     file format elf32-littlearm

Sections:
Idx Name          Size      VMA       LMA       File off  Algn
  0 .boot2        00000100  10000000  10000000  00001000  2**0
                  CONTENTS, ALLOC, LOAD, READONLY, CODE
  1 .text         00006250  10000100  10000100  00001100  2**3
                  CONTENTS, ALLOC, LOAD, READONLY, CODE
  2 .rodata       00001a38  10006350  10006350  00007350  2**3
                  CONTENTS, ALLOC, LOAD, READONLY, DATA
  3 .binary_info  0000001c  10007d88  10007d88  00008d88  2**2
                  CONTENTS, ALLOC, LOAD, DATA
  4 .ram_vector_table 000000c0  20000000  20000000  00009298  2**2
                  CONTENTS
  5 .data         000001d8  200000c0  10007da4  000090c0  2**4
                  CONTENTS, ALLOC, LOAD, READONLY, CODE
  6 .uninitialized_data 00000000  20000298  20000298  00009358  2**0
                  CONTENTS
  7 .scratch_x    00000000  20040000  20040000  00009358  2**0
                  CONTENTS
  8 .scratch_y    00000000  20041000  20041000  00009358  2**0
                  CONTENTS
  9 .bss          0002079c  20000298  20000298  00009298  2**3
                  ALLOC
 10 .heap         00000800  20020a34  20020a34  00009358  2**2
                  CONTENTS, READONLY
 11 .stack1_dummy 00001000  20040000  20040000  00009b58  2**2
                  CONTENTS
 12 .stack_dummy  00001000  20041000  20041000  0000ab60  2**5
                  CONTENTS, READONLY
 13 .ARM.attributes 00000028  00000000  00000000  0000bb60  2**0
                  CONTENTS, READONLY
 14 .comment      0000004d  00000000  00000000  0000bb88  2**0
                  CONTENTS, READONLY
 15 .debug_info   0001ed39  00000000  00000000  0000bbd5  2**0
                  CONTENTS, READONLY, DEBUGGING, OCTETS
 16 .debug_abbrev 000051ef  00000000  00000000  0002a90e  2**0
                  CONTENTS, READONLY, DEBUGGING, OCTETS
 17 .debug_loc    00016e2b  00000000  00000000  0002fafd  2**0
                  CONTENTS, READONLY, DEBUGGING, OCTETS
 18 .debug_aranges 00001400  00000000  00000000  00046928  2**3
                  CONTENTS, READONLY, DEBUGGING, OCTETS
 19 .debug_ranges 000038f0  00000000  00000000  00047d28  2**3
                  CONTENTS, READONLY, DEBUGGING, OCTETS
 20 .debug_line   00014d80  00000000  00000000  0004b618  2**0
                  CONTENTS, READONLY, DEBUGGING, OCTETS
 21 .debug_str    00005b9b  00000000  00000000  00060398  2**0
                  CONTENTS, READONLY, DEBUGGING, OCTETS
 22 .debug_frame  00002994  00000000  00000000  00065f34  2**2
                  CONTENTS, READONLY, DEBUGGING, OCTETS

C:/Users/aguat/Documents/GitHub/Raspberry-Pi-Pico/FreeRTOS-RPI-pico/Inyectores/build/on_core_one.elf:     file format elf32-littlearm


Disassembly of section .boot2:

10000000 <__boot2_start__>:
10000000:	4b32b500 	.word	0x4b32b500
10000004:	60582021 	.word	0x60582021
10000008:	21026898 	.word	0x21026898
1000000c:	60984388 	.word	0x60984388
10000010:	611860d8 	.word	0x611860d8
10000014:	4b2e6158 	.word	0x4b2e6158
10000018:	60992100 	.word	0x60992100
1000001c:	61592102 	.word	0x61592102
10000020:	22f02101 	.word	0x22f02101
10000024:	492b5099 	.word	0x492b5099
10000028:	21016019 	.word	0x21016019
1000002c:	20356099 	.word	0x20356099
10000030:	f844f000 	.word	0xf844f000
10000034:	42902202 	.word	0x42902202
10000038:	2106d014 	.word	0x2106d014
1000003c:	f0006619 	.word	0xf0006619
10000040:	6e19f834 	.word	0x6e19f834
10000044:	66192101 	.word	0x66192101
10000048:	66182000 	.word	0x66182000
1000004c:	f000661a 	.word	0xf000661a
10000050:	6e19f82c 	.word	0x6e19f82c
10000054:	6e196e19 	.word	0x6e196e19
10000058:	f0002005 	.word	0xf0002005
1000005c:	2101f82f 	.word	0x2101f82f
10000060:	d1f94208 	.word	0xd1f94208
10000064:	60992100 	.word	0x60992100
10000068:	6019491b 	.word	0x6019491b
1000006c:	60592100 	.word	0x60592100
10000070:	481b491a 	.word	0x481b491a
10000074:	21016001 	.word	0x21016001
10000078:	21eb6099 	.word	0x21eb6099
1000007c:	21a06619 	.word	0x21a06619
10000080:	f0006619 	.word	0xf0006619
10000084:	2100f812 	.word	0x2100f812
10000088:	49166099 	.word	0x49166099
1000008c:	60014814 	.word	0x60014814
10000090:	60992101 	.word	0x60992101
10000094:	2800bc01 	.word	0x2800bc01
10000098:	4700d000 	.word	0x4700d000
1000009c:	49134812 	.word	0x49134812
100000a0:	c8036008 	.word	0xc8036008
100000a4:	8808f380 	.word	0x8808f380
100000a8:	b5034708 	.word	0xb5034708
100000ac:	20046a99 	.word	0x20046a99
100000b0:	d0fb4201 	.word	0xd0fb4201
100000b4:	42012001 	.word	0x42012001
100000b8:	bd03d1f8 	.word	0xbd03d1f8
100000bc:	6618b502 	.word	0x6618b502
100000c0:	f7ff6618 	.word	0xf7ff6618
100000c4:	6e18fff2 	.word	0x6e18fff2
100000c8:	bd026e18 	.word	0xbd026e18
100000cc:	40020000 	.word	0x40020000
100000d0:	18000000 	.word	0x18000000
100000d4:	00070000 	.word	0x00070000
100000d8:	005f0300 	.word	0x005f0300
100000dc:	00002221 	.word	0x00002221
100000e0:	180000f4 	.word	0x180000f4
100000e4:	a0002022 	.word	0xa0002022
100000e8:	10000100 	.word	0x10000100
100000ec:	e000ed08 	.word	0xe000ed08
	...
100000fc:	7a4eb274 	.word	0x7a4eb274

Disassembly of section .text:

10000100 <__VECTOR_TABLE>:
10000100:	20042000 	.word	0x20042000
10000104:	100001f7 	.word	0x100001f7
10000108:	100001c3 	.word	0x100001c3
1000010c:	100001c5 	.word	0x100001c5
10000110:	100001c1 	.word	0x100001c1
10000114:	100001c1 	.word	0x100001c1
10000118:	100001c1 	.word	0x100001c1
1000011c:	100001c1 	.word	0x100001c1
10000120:	100001c1 	.word	0x100001c1
10000124:	100001c1 	.word	0x100001c1
10000128:	100001c1 	.word	0x100001c1
1000012c:	100001c7 	.word	0x100001c7
10000130:	100001c1 	.word	0x100001c1
10000134:	100001c1 	.word	0x100001c1
10000138:	100001c9 	.word	0x100001c9
1000013c:	100001cb 	.word	0x100001cb
10000140:	100001cd 	.word	0x100001cd
10000144:	100001cd 	.word	0x100001cd
10000148:	100001cd 	.word	0x100001cd
1000014c:	100001cd 	.word	0x100001cd
10000150:	100001cd 	.word	0x100001cd
10000154:	100001cd 	.word	0x100001cd
10000158:	100001cd 	.word	0x100001cd
1000015c:	100001cd 	.word	0x100001cd
10000160:	100001cd 	.word	0x100001cd
10000164:	100001cd 	.word	0x100001cd
10000168:	100001cd 	.word	0x100001cd
1000016c:	100001cd 	.word	0x100001cd
10000170:	100001cd 	.word	0x100001cd
10000174:	100001cd 	.word	0x100001cd
10000178:	100001cd 	.word	0x100001cd
1000017c:	100001cd 	.word	0x100001cd
10000180:	100001cd 	.word	0x100001cd
10000184:	100001cd 	.word	0x100001cd
10000188:	100001cd 	.word	0x100001cd
1000018c:	100001cd 	.word	0x100001cd
10000190:	100001cd 	.word	0x100001cd
10000194:	100001cd 	.word	0x100001cd
10000198:	100001cd 	.word	0x100001cd
1000019c:	100001cd 	.word	0x100001cd
100001a0:	100001cd 	.word	0x100001cd
100001a4:	100001cd 	.word	0x100001cd
100001a8:	100001cd 	.word	0x100001cd
100001ac:	100001cd 	.word	0x100001cd
100001b0:	100001cd 	.word	0x100001cd
100001b4:	100001cd 	.word	0x100001cd
100001b8:	100001cd 	.word	0x100001cd
100001bc:	100001cd 	.word	0x100001cd

100001c0 <isr_invalid>:
100001c0:	be00      	bkpt	0x0000

100001c2 <isr_nmi>:
100001c2:	be00      	bkpt	0x0000

100001c4 <isr_hardfault>:
100001c4:	be00      	bkpt	0x0000

100001c6 <isr_svcall>:
100001c6:	be00      	bkpt	0x0000

100001c8 <isr_pendsv>:
100001c8:	be00      	bkpt	0x0000

100001ca <isr_systick>:
100001ca:	be00      	bkpt	0x0000

100001cc <__unhandled_user_irq>:
100001cc:	f000 f84b 	bl	10000266 <__get_current_exception>
100001d0:	3810      	subs	r0, #16

100001d2 <unhandled_user_irq_num_in_r0>:
100001d2:	be00      	bkpt	0x0000

100001d4 <binary_info_header>:
100001d4:	7188ebf2 	.word	0x7188ebf2
100001d8:	10007d88 	.word	0x10007d88
100001dc:	10007da4 	.word	0x10007da4
100001e0:	10000234 	.word	0x10000234
100001e4:	e71aa390 	.word	0xe71aa390

100001e8 <_entry_point>:
100001e8:	2000      	movs	r0, #0
100001ea:	4921      	ldr	r1, [pc, #132]	; (10000270 <__get_current_exception+0xa>)
100001ec:	6008      	str	r0, [r1, #0]
100001ee:	c806      	ldmia	r0!, {r1, r2}
100001f0:	f381 8808 	msr	MSP, r1
100001f4:	4710      	bx	r2

100001f6 <_reset_handler>:
100001f6:	481f      	ldr	r0, [pc, #124]	; (10000274 <__get_current_exception+0xe>)
100001f8:	6800      	ldr	r0, [r0, #0]
100001fa:	2800      	cmp	r0, #0
100001fc:	d12f      	bne.n	1000025e <hold_non_core0_in_bootrom>
100001fe:	a40d      	add	r4, pc, #52	; (adr r4, 10000234 <data_cpy_table>)
10000200:	cc0e      	ldmia	r4!, {r1, r2, r3}
10000202:	2900      	cmp	r1, #0
10000204:	d002      	beq.n	1000020c <_reset_handler+0x16>
10000206:	f000 f812 	bl	1000022e <data_cpy>
1000020a:	e7f9      	b.n	10000200 <_reset_handler+0xa>
1000020c:	491a      	ldr	r1, [pc, #104]	; (10000278 <__get_current_exception+0x12>)
1000020e:	4a1b      	ldr	r2, [pc, #108]	; (1000027c <__get_current_exception+0x16>)
10000210:	2000      	movs	r0, #0
10000212:	e000      	b.n	10000216 <bss_fill_test>

10000214 <bss_fill_loop>:
10000214:	c101      	stmia	r1!, {r0}

10000216 <bss_fill_test>:
10000216:	4291      	cmp	r1, r2
10000218:	d1fc      	bne.n	10000214 <bss_fill_loop>

1000021a <platform_entry>:
1000021a:	4919      	ldr	r1, [pc, #100]	; (10000280 <__get_current_exception+0x1a>)
1000021c:	4788      	blx	r1
1000021e:	4919      	ldr	r1, [pc, #100]	; (10000284 <__get_current_exception+0x1e>)
10000220:	4788      	blx	r1
10000222:	4919      	ldr	r1, [pc, #100]	; (10000288 <__get_current_exception+0x22>)
10000224:	4788      	blx	r1
10000226:	be00      	bkpt	0x0000
10000228:	e7fd      	b.n	10000226 <platform_entry+0xc>

1000022a <data_cpy_loop>:
1000022a:	c901      	ldmia	r1!, {r0}
1000022c:	c201      	stmia	r2!, {r0}

1000022e <data_cpy>:
1000022e:	429a      	cmp	r2, r3
10000230:	d3fb      	bcc.n	1000022a <data_cpy_loop>
10000232:	4770      	bx	lr

10000234 <data_cpy_table>:
10000234:	10007da4 	.word	0x10007da4
10000238:	200000c0 	.word	0x200000c0
1000023c:	20000298 	.word	0x20000298
10000240:	10007f7c 	.word	0x10007f7c
10000244:	20040000 	.word	0x20040000
10000248:	20040000 	.word	0x20040000
1000024c:	10007f7c 	.word	0x10007f7c
10000250:	20041000 	.word	0x20041000
10000254:	20041000 	.word	0x20041000
10000258:	00000000 	.word	0x00000000
1000025c:	4770      	bx	lr

1000025e <hold_non_core0_in_bootrom>:
1000025e:	480b      	ldr	r0, [pc, #44]	; (1000028c <__get_current_exception+0x26>)
10000260:	f004 ff1a 	bl	10005098 <rom_func_lookup>
10000264:	4700      	bx	r0

10000266 <__get_current_exception>:
10000266:	f3ef 8005 	mrs	r0, IPSR
1000026a:	b2c0      	uxtb	r0, r0
1000026c:	4770      	bx	lr
1000026e:	0000      	.short	0x0000
10000270:	e000ed08 	.word	0xe000ed08
10000274:	d0000000 	.word	0xd0000000
10000278:	20000298 	.word	0x20000298
1000027c:	20020a34 	.word	0x20020a34
10000280:	1000368d 	.word	0x1000368d
10000284:	10000389 	.word	0x10000389
10000288:	10003649 	.word	0x10003649
1000028c:	00005657 	.word	0x00005657

10000290 <__bi_50>:
10000290:	50520006 5360b3ab 10007c8c              ..RP..`S.|..

1000029c <__bi_38>:
1000029c:	50520006 02031c86 10007c9c              ..RP.....|..

100002a8 <__bi_30>:
100002a8:	50520006 9da22254 10007ca8              ..RPT"...|..

100002b4 <__bi_22>:
100002b4:	50520005 68f465de 10007f7c              ..RP.e.h|...

100002c0 <_init>:
100002c0:	b5f8      	push	{r3, r4, r5, r6, r7, lr}
100002c2:	46c0      	nop			; (mov r8, r8)

100002c4 <__do_global_dtors_aux>:
100002c4:	b510      	push	{r4, lr}
100002c6:	4c06      	ldr	r4, [pc, #24]	; (100002e0 <__do_global_dtors_aux+0x1c>)
100002c8:	7823      	ldrb	r3, [r4, #0]
100002ca:	2b00      	cmp	r3, #0
100002cc:	d107      	bne.n	100002de <__do_global_dtors_aux+0x1a>
100002ce:	4b05      	ldr	r3, [pc, #20]	; (100002e4 <__do_global_dtors_aux+0x20>)
100002d0:	2b00      	cmp	r3, #0
100002d2:	d002      	beq.n	100002da <__do_global_dtors_aux+0x16>
100002d4:	4804      	ldr	r0, [pc, #16]	; (100002e8 <__do_global_dtors_aux+0x24>)
100002d6:	e000      	b.n	100002da <__do_global_dtors_aux+0x16>
100002d8:	bf00      	nop
100002da:	2301      	movs	r3, #1
100002dc:	7023      	strb	r3, [r4, #0]
100002de:	bd10      	pop	{r4, pc}
100002e0:	20000398 	.word	0x20000398
100002e4:	00000000 	.word	0x00000000
100002e8:	10006350 	.word	0x10006350

100002ec <frame_dummy>:
100002ec:	4b04      	ldr	r3, [pc, #16]	; (10000300 <frame_dummy+0x14>)
100002ee:	b510      	push	{r4, lr}
100002f0:	2b00      	cmp	r3, #0
100002f2:	d003      	beq.n	100002fc <frame_dummy+0x10>
100002f4:	4903      	ldr	r1, [pc, #12]	; (10000304 <frame_dummy+0x18>)
100002f6:	4804      	ldr	r0, [pc, #16]	; (10000308 <frame_dummy+0x1c>)
100002f8:	e000      	b.n	100002fc <frame_dummy+0x10>
100002fa:	bf00      	nop
100002fc:	bd10      	pop	{r4, pc}
100002fe:	46c0      	nop			; (mov r8, r8)
10000300:	00000000 	.word	0x00000000
10000304:	2000039c 	.word	0x2000039c
10000308:	10006350 	.word	0x10006350

1000030c <prvBlinkTimer>:
1000030c:	23d0      	movs	r3, #208	; 0xd0
1000030e:	061b      	lsls	r3, r3, #24
10000310:	685b      	ldr	r3, [r3, #4]
10000312:	019b      	lsls	r3, r3, #6
10000314:	d405      	bmi.n	10000322 <prvBlinkTimer+0x16>
10000316:	23d0      	movs	r3, #208	; 0xd0
10000318:	061b      	lsls	r3, r3, #24
1000031a:	2280      	movs	r2, #128	; 0x80
1000031c:	0492      	lsls	r2, r2, #18
1000031e:	615a      	str	r2, [r3, #20]
10000320:	4770      	bx	lr
10000322:	23d0      	movs	r3, #208	; 0xd0
10000324:	061b      	lsls	r3, r3, #24
10000326:	2280      	movs	r2, #128	; 0x80
10000328:	0492      	lsls	r2, r2, #18
1000032a:	619a      	str	r2, [r3, #24]
1000032c:	e7f8      	b.n	10000320 <prvBlinkTimer+0x14>

1000032e <prvPwmEnableTimer>:
1000032e:	23d0      	movs	r3, #208	; 0xd0
10000330:	061b      	lsls	r3, r3, #24
10000332:	685b      	ldr	r3, [r3, #4]
10000334:	051b      	lsls	r3, r3, #20
10000336:	d405      	bmi.n	10000344 <prvPwmEnableTimer+0x16>
10000338:	23d0      	movs	r3, #208	; 0xd0
1000033a:	061b      	lsls	r3, r3, #24
1000033c:	2280      	movs	r2, #128	; 0x80
1000033e:	0112      	lsls	r2, r2, #4
10000340:	615a      	str	r2, [r3, #20]
10000342:	4770      	bx	lr
10000344:	23d0      	movs	r3, #208	; 0xd0
10000346:	061b      	lsls	r3, r3, #24
10000348:	2280      	movs	r2, #128	; 0x80
1000034a:	0112      	lsls	r2, r2, #4
1000034c:	619a      	str	r2, [r3, #24]
1000034e:	e7f8      	b.n	10000342 <prvPwmEnableTimer+0x14>

10000350 <prvNonRTOSWorker>:
10000350:	b510      	push	{r4, lr}
10000352:	23d0      	movs	r3, #208	; 0xd0
10000354:	061b      	lsls	r3, r3, #24
10000356:	6819      	ldr	r1, [r3, #0]
10000358:	4801      	ldr	r0, [pc, #4]	; (10000360 <prvNonRTOSWorker+0x10>)
1000035a:	f005 ff07 	bl	1000616c <__wrap_printf>
1000035e:	bd10      	pop	{r4, pc}
10000360:	10006350 	.word	0x10006350

10000364 <prvLaunchRTOS>:
10000364:	b510      	push	{r4, lr}
10000366:	23d0      	movs	r3, #208	; 0xd0
10000368:	061b      	lsls	r3, r3, #24
1000036a:	6819      	ldr	r1, [r3, #0]
1000036c:	4803      	ldr	r0, [pc, #12]	; (1000037c <prvLaunchRTOS+0x18>)
1000036e:	f005 fefd 	bl	1000616c <__wrap_printf>
10000372:	f001 f9eb 	bl	1000174c <vTaskStartScheduler>
10000376:	f003 fa1d 	bl	100037b4 <panic_unsupported>
1000037a:	46c0      	nop			; (mov r8, r8)
1000037c:	10006374 	.word	0x10006374

10000380 <prvCore1Entry>:
10000380:	b510      	push	{r4, lr}
10000382:	f7ff ffef 	bl	10000364 <prvLaunchRTOS>
	...

10000388 <main>:
10000388:	b510      	push	{r4, lr}
1000038a:	b082      	sub	sp, #8
1000038c:	21fa      	movs	r1, #250	; 0xfa
1000038e:	4b12      	ldr	r3, [pc, #72]	; (100003d8 <main+0x50>)
10000390:	9300      	str	r3, [sp, #0]
10000392:	2300      	movs	r3, #0
10000394:	2201      	movs	r2, #1
10000396:	0049      	lsls	r1, r1, #1
10000398:	4810      	ldr	r0, [pc, #64]	; (100003dc <main+0x54>)
1000039a:	f002 f86f 	bl	1000247c <xTimerCreate>
1000039e:	0004      	movs	r4, r0
100003a0:	2196      	movs	r1, #150	; 0x96
100003a2:	4b0f      	ldr	r3, [pc, #60]	; (100003e0 <main+0x58>)
100003a4:	9300      	str	r3, [sp, #0]
100003a6:	2300      	movs	r3, #0
100003a8:	2201      	movs	r2, #1
100003aa:	0049      	lsls	r1, r1, #1
100003ac:	480d      	ldr	r0, [pc, #52]	; (100003e4 <main+0x5c>)
100003ae:	f002 f865 	bl	1000247c <xTimerCreate>
100003b2:	2c00      	cmp	r4, #0
100003b4:	d008      	beq.n	100003c8 <main+0x40>
100003b6:	f001 fa15 	bl	100017e4 <xTaskGetTickCount>
100003ba:	0002      	movs	r2, r0
100003bc:	2300      	movs	r3, #0
100003be:	9300      	str	r3, [sp, #0]
100003c0:	2101      	movs	r1, #1
100003c2:	0020      	movs	r0, r4
100003c4:	f002 f874 	bl	100024b0 <xTimerGenericCommand>
100003c8:	4807      	ldr	r0, [pc, #28]	; (100003e8 <main+0x60>)
100003ca:	f005 ff57 	bl	1000627c <multicore_launch_core1>
100003ce:	f7ff ffbf 	bl	10000350 <prvNonRTOSWorker>
100003d2:	2000      	movs	r0, #0
100003d4:	b002      	add	sp, #8
100003d6:	bd10      	pop	{r4, pc}
100003d8:	1000030d 	.word	0x1000030d
100003dc:	1000639c 	.word	0x1000639c
100003e0:	1000032f 	.word	0x1000032f
100003e4:	100063a4 	.word	0x100063a4
100003e8:	10000381 	.word	0x10000381

100003ec <vApplicationTickHook>:
100003ec:	4770      	bx	lr
	...

100003f0 <vApplicationMallocFailedHook>:
100003f0:	b510      	push	{r4, lr}
100003f2:	4801      	ldr	r0, [pc, #4]	; (100003f8 <vApplicationMallocFailedHook+0x8>)
100003f4:	f003 f9c6 	bl	10003784 <panic>
100003f8:	100063b0 	.word	0x100063b0

100003fc <vApplicationStackOverflowHook>:
100003fc:	e7fe      	b.n	100003fc <vApplicationStackOverflowHook>

100003fe <vPortSVCHandler>:
100003fe:	4770      	bx	lr

10000400 <vPortStartFirstTask>:
10000400:	4a08      	ldr	r2, [pc, #32]	; (10000424 <vPortStartFirstTask+0x24>)
10000402:	6813      	ldr	r3, [r2, #0]
10000404:	6818      	ldr	r0, [r3, #0]
10000406:	3020      	adds	r0, #32
10000408:	f380 8809 	msr	PSP, r0
1000040c:	2002      	movs	r0, #2
1000040e:	f380 8814 	msr	CONTROL, r0
10000412:	f3bf 8f6f 	isb	sy
10000416:	bc3f      	pop	{r0, r1, r2, r3, r4, r5}
10000418:	46ae      	mov	lr, r5
1000041a:	bc08      	pop	{r3}
1000041c:	bc04      	pop	{r2}
1000041e:	b662      	cpsie	i
10000420:	4718      	bx	r3
10000422:	0000      	.short	0x0000
10000424:	20000448 	.word	0x20000448

10000428 <xPortPendSVHandler>:
10000428:	f3ef 8009 	mrs	r0, PSP
1000042c:	4b15      	ldr	r3, [pc, #84]	; (10000484 <xPortPendSVHandler+0x5c>)
1000042e:	681a      	ldr	r2, [r3, #0]
10000430:	3820      	subs	r0, #32
10000432:	6010      	str	r0, [r2, #0]
10000434:	c0f0      	stmia	r0!, {r4, r5, r6, r7}
10000436:	4644      	mov	r4, r8
10000438:	464d      	mov	r5, r9
1000043a:	4656      	mov	r6, sl
1000043c:	465f      	mov	r7, fp
1000043e:	c0f0      	stmia	r0!, {r4, r5, r6, r7}
10000440:	220d      	movs	r2, #13
10000442:	0712      	lsls	r2, r2, #28
10000444:	6e14      	ldr	r4, [r2, #96]	; 0x60
10000446:	6e55      	ldr	r5, [r2, #100]	; 0x64
10000448:	6f56      	ldr	r6, [r2, #116]	; 0x74
1000044a:	6f17      	ldr	r7, [r2, #112]	; 0x70
1000044c:	3830      	subs	r0, #48	; 0x30
1000044e:	c0f0      	stmia	r0!, {r4, r5, r6, r7}
10000450:	b508      	push	{r3, lr}
10000452:	b672      	cpsid	i
10000454:	f001 fb46 	bl	10001ae4 <vTaskSwitchContext>
10000458:	b662      	cpsie	i
1000045a:	bc0c      	pop	{r2, r3}
1000045c:	6811      	ldr	r1, [r2, #0]
1000045e:	6808      	ldr	r0, [r1, #0]
10000460:	3010      	adds	r0, #16
10000462:	c8f0      	ldmia	r0!, {r4, r5, r6, r7}
10000464:	46a0      	mov	r8, r4
10000466:	46a9      	mov	r9, r5
10000468:	46b2      	mov	sl, r6
1000046a:	46bb      	mov	fp, r7
1000046c:	f380 8809 	msr	PSP, r0
10000470:	220d      	movs	r2, #13
10000472:	0712      	lsls	r2, r2, #28
10000474:	3830      	subs	r0, #48	; 0x30
10000476:	c8f0      	ldmia	r0!, {r4, r5, r6, r7}
10000478:	6614      	str	r4, [r2, #96]	; 0x60
1000047a:	6655      	str	r5, [r2, #100]	; 0x64
1000047c:	6756      	str	r6, [r2, #116]	; 0x74
1000047e:	6717      	str	r7, [r2, #112]	; 0x70
10000480:	c8f0      	ldmia	r0!, {r4, r5, r6, r7}
10000482:	4718      	bx	r3
10000484:	20000448 	.word	0x20000448

10000488 <prvTaskExitError>:
10000488:	b510      	push	{r4, lr}
1000048a:	f003 f993 	bl	100037b4 <panic_unsupported>
	...

10000490 <prvFIFOInterruptHandler>:
10000490:	b500      	push	{lr}
10000492:	b083      	sub	sp, #12
10000494:	e002      	b.n	1000049c <prvFIFOInterruptHandler+0xc>
10000496:	23d0      	movs	r3, #208	; 0xd0
10000498:	061b      	lsls	r3, r3, #24
1000049a:	6d9b      	ldr	r3, [r3, #88]	; 0x58
1000049c:	23d0      	movs	r3, #208	; 0xd0
1000049e:	061b      	lsls	r3, r3, #24
100004a0:	6d1b      	ldr	r3, [r3, #80]	; 0x50
100004a2:	07db      	lsls	r3, r3, #31
100004a4:	d4f7      	bmi.n	10000496 <prvFIFOInterruptHandler+0x6>
100004a6:	23d0      	movs	r3, #208	; 0xd0
100004a8:	061b      	lsls	r3, r3, #24
100004aa:	22ff      	movs	r2, #255	; 0xff
100004ac:	651a      	str	r2, [r3, #80]	; 0x50
100004ae:	2300      	movs	r3, #0
100004b0:	9301      	str	r3, [sp, #4]
100004b2:	4b11      	ldr	r3, [pc, #68]	; (100004f8 <prvFIFOInterruptHandler+0x68>)
100004b4:	681a      	ldr	r2, [r3, #0]
100004b6:	f3ef 8010 	mrs	r0, PRIMASK
100004ba:	b672      	cpsid	i
100004bc:	6813      	ldr	r3, [r2, #0]
100004be:	2b00      	cmp	r3, #0
100004c0:	d0fc      	beq.n	100004bc <prvFIFOInterruptHandler+0x2c>
100004c2:	f3bf 8f5f 	dmb	sy
100004c6:	4a0d      	ldr	r2, [pc, #52]	; (100004fc <prvFIFOInterruptHandler+0x6c>)
100004c8:	6811      	ldr	r1, [r2, #0]
100004ca:	2300      	movs	r3, #0
100004cc:	6013      	str	r3, [r2, #0]
100004ce:	4a0a      	ldr	r2, [pc, #40]	; (100004f8 <prvFIFOInterruptHandler+0x68>)
100004d0:	6812      	ldr	r2, [r2, #0]
100004d2:	f3bf 8f5f 	dmb	sy
100004d6:	6013      	str	r3, [r2, #0]
100004d8:	f380 8810 	msr	PRIMASK, r0
100004dc:	4b08      	ldr	r3, [pc, #32]	; (10000500 <prvFIFOInterruptHandler+0x70>)
100004de:	6818      	ldr	r0, [r3, #0]
100004e0:	aa01      	add	r2, sp, #4
100004e2:	f000 fb05 	bl	10000af0 <xEventGroupSetBitsFromISR>
100004e6:	9b01      	ldr	r3, [sp, #4]
100004e8:	2b00      	cmp	r3, #0
100004ea:	d003      	beq.n	100004f4 <prvFIFOInterruptHandler+0x64>
100004ec:	4b05      	ldr	r3, [pc, #20]	; (10000504 <prvFIFOInterruptHandler+0x74>)
100004ee:	2280      	movs	r2, #128	; 0x80
100004f0:	0552      	lsls	r2, r2, #21
100004f2:	601a      	str	r2, [r3, #0]
100004f4:	b003      	add	sp, #12
100004f6:	bd00      	pop	{pc}
100004f8:	20000444 	.word	0x20000444
100004fc:	20020904 	.word	0x20020904
10000500:	20020970 	.word	0x20020970
10000504:	e000ed04 	.word	0xe000ed04

10000508 <pxPortInitialiseStack>:
10000508:	b510      	push	{r4, lr}
1000050a:	1f03      	subs	r3, r0, #4
1000050c:	2480      	movs	r4, #128	; 0x80
1000050e:	0464      	lsls	r4, r4, #17
10000510:	601c      	str	r4, [r3, #0]
10000512:	3b04      	subs	r3, #4
10000514:	6019      	str	r1, [r3, #0]
10000516:	3b04      	subs	r3, #4
10000518:	4902      	ldr	r1, [pc, #8]	; (10000524 <pxPortInitialiseStack+0x1c>)
1000051a:	6019      	str	r1, [r3, #0]
1000051c:	3b14      	subs	r3, #20
1000051e:	601a      	str	r2, [r3, #0]
10000520:	3840      	subs	r0, #64	; 0x40
10000522:	bd10      	pop	{r4, pc}
10000524:	10000489 	.word	0x10000489

10000528 <vPortYield>:
10000528:	b510      	push	{r4, lr}
1000052a:	4b0a      	ldr	r3, [pc, #40]	; (10000554 <vPortYield+0x2c>)
1000052c:	681b      	ldr	r3, [r3, #0]
1000052e:	2b00      	cmp	r3, #0
10000530:	d108      	bne.n	10000544 <vPortYield+0x1c>
10000532:	4b09      	ldr	r3, [pc, #36]	; (10000558 <vPortYield+0x30>)
10000534:	2280      	movs	r2, #128	; 0x80
10000536:	0552      	lsls	r2, r2, #21
10000538:	601a      	str	r2, [r3, #0]
1000053a:	f3bf 8f4f 	dsb	sy
1000053e:	f3bf 8f6f 	isb	sy
10000542:	bd10      	pop	{r4, pc}
10000544:	2134      	movs	r1, #52	; 0x34
10000546:	4b05      	ldr	r3, [pc, #20]	; (1000055c <vPortYield+0x34>)
10000548:	4a05      	ldr	r2, [pc, #20]	; (10000560 <vPortYield+0x38>)
1000054a:	31ff      	adds	r1, #255	; 0xff
1000054c:	4805      	ldr	r0, [pc, #20]	; (10000564 <vPortYield+0x3c>)
1000054e:	f003 f87f 	bl	10003650 <__assert_func>
10000552:	46c0      	nop			; (mov r8, r8)
10000554:	200006e0 	.word	0x200006e0
10000558:	e000ed04 	.word	0xe000ed04
1000055c:	100063c0 	.word	0x100063c0
10000560:	100064f8 	.word	0x100064f8
10000564:	100063e0 	.word	0x100063e0

10000568 <vPortEnterCritical>:
10000568:	b672      	cpsid	i
1000056a:	4a04      	ldr	r2, [pc, #16]	; (1000057c <vPortEnterCritical+0x14>)
1000056c:	6813      	ldr	r3, [r2, #0]
1000056e:	3301      	adds	r3, #1
10000570:	6013      	str	r3, [r2, #0]
10000572:	f3bf 8f4f 	dsb	sy
10000576:	f3bf 8f6f 	isb	sy
1000057a:	4770      	bx	lr
1000057c:	20020900 	.word	0x20020900

10000580 <vPortEnableInterrupts>:
10000580:	4b07      	ldr	r3, [pc, #28]	; (100005a0 <vPortEnableInterrupts+0x20>)
10000582:	681b      	ldr	r3, [r3, #0]
10000584:	2b00      	cmp	r3, #0
10000586:	d009      	beq.n	1000059c <vPortEnableInterrupts+0x1c>
10000588:	4a06      	ldr	r2, [pc, #24]	; (100005a4 <vPortEnableInterrupts+0x24>)
1000058a:	6811      	ldr	r1, [r2, #0]
1000058c:	f3bf 8f5f 	dmb	sy
10000590:	2200      	movs	r2, #0
10000592:	601a      	str	r2, [r3, #0]
10000594:	f381 8810 	msr	PRIMASK, r1
10000598:	4b01      	ldr	r3, [pc, #4]	; (100005a0 <vPortEnableInterrupts+0x20>)
1000059a:	601a      	str	r2, [r3, #0]
1000059c:	b662      	cpsie	i
1000059e:	4770      	bx	lr
100005a0:	200006e0 	.word	0x200006e0
100005a4:	200208fc 	.word	0x200208fc

100005a8 <vPortExitCritical>:
100005a8:	b510      	push	{r4, lr}
100005aa:	4b0a      	ldr	r3, [pc, #40]	; (100005d4 <vPortExitCritical+0x2c>)
100005ac:	681b      	ldr	r3, [r3, #0]
100005ae:	2b00      	cmp	r3, #0
100005b0:	d005      	beq.n	100005be <vPortExitCritical+0x16>
100005b2:	3b01      	subs	r3, #1
100005b4:	4a07      	ldr	r2, [pc, #28]	; (100005d4 <vPortExitCritical+0x2c>)
100005b6:	6013      	str	r3, [r2, #0]
100005b8:	2b00      	cmp	r3, #0
100005ba:	d007      	beq.n	100005cc <vPortExitCritical+0x24>
100005bc:	bd10      	pop	{r4, pc}
100005be:	21a6      	movs	r1, #166	; 0xa6
100005c0:	4b05      	ldr	r3, [pc, #20]	; (100005d8 <vPortExitCritical+0x30>)
100005c2:	4a06      	ldr	r2, [pc, #24]	; (100005dc <vPortExitCritical+0x34>)
100005c4:	0049      	lsls	r1, r1, #1
100005c6:	4806      	ldr	r0, [pc, #24]	; (100005e0 <vPortExitCritical+0x38>)
100005c8:	f003 f842 	bl	10003650 <__assert_func>
100005cc:	f7ff ffd8 	bl	10000580 <vPortEnableInterrupts>
100005d0:	e7f4      	b.n	100005bc <vPortExitCritical+0x14>
100005d2:	46c0      	nop			; (mov r8, r8)
100005d4:	20020900 	.word	0x20020900
100005d8:	10006438 	.word	0x10006438
100005dc:	100064e4 	.word	0x100064e4
100005e0:	100063e0 	.word	0x100063e0

100005e4 <ulSetInterruptMaskFromISR>:
100005e4:	f3ef 8010 	mrs	r0, PRIMASK
100005e8:	b672      	cpsid	i
100005ea:	4770      	bx	lr

100005ec <vClearInterruptMaskFromISR>:
100005ec:	f380 8810 	msr	PRIMASK, r0
100005f0:	4770      	bx	lr
	...

100005f4 <xPortSysTickHandler>:
100005f4:	b510      	push	{r4, lr}
100005f6:	f7ff fff5 	bl	100005e4 <ulSetInterruptMaskFromISR>
100005fa:	0004      	movs	r4, r0
100005fc:	f001 f8f8 	bl	100017f0 <xTaskIncrementTick>
10000600:	2800      	cmp	r0, #0
10000602:	d003      	beq.n	1000060c <xPortSysTickHandler+0x18>
10000604:	4b03      	ldr	r3, [pc, #12]	; (10000614 <xPortSysTickHandler+0x20>)
10000606:	2280      	movs	r2, #128	; 0x80
10000608:	0552      	lsls	r2, r2, #21
1000060a:	601a      	str	r2, [r3, #0]
1000060c:	0020      	movs	r0, r4
1000060e:	f7ff ffed 	bl	100005ec <vClearInterruptMaskFromISR>
10000612:	bd10      	pop	{r4, pc}
10000614:	e000ed04 	.word	0xe000ed04

10000618 <vPortSetupTimerInterrupt>:
10000618:	b510      	push	{r4, lr}
1000061a:	4c09      	ldr	r4, [pc, #36]	; (10000640 <vPortSetupTimerInterrupt+0x28>)
1000061c:	2300      	movs	r3, #0
1000061e:	6023      	str	r3, [r4, #0]
10000620:	4a08      	ldr	r2, [pc, #32]	; (10000644 <vPortSetupTimerInterrupt+0x2c>)
10000622:	6013      	str	r3, [r2, #0]
10000624:	2005      	movs	r0, #5
10000626:	f003 f9cd 	bl	100039c4 <clock_get_hz>
1000062a:	21fa      	movs	r1, #250	; 0xfa
1000062c:	0089      	lsls	r1, r1, #2
1000062e:	f004 fd87 	bl	10005140 <__wrap___aeabi_uidiv>
10000632:	3801      	subs	r0, #1
10000634:	4b04      	ldr	r3, [pc, #16]	; (10000648 <vPortSetupTimerInterrupt+0x30>)
10000636:	6018      	str	r0, [r3, #0]
10000638:	2307      	movs	r3, #7
1000063a:	6023      	str	r3, [r4, #0]
1000063c:	bd10      	pop	{r4, pc}
1000063e:	46c0      	nop			; (mov r8, r8)
10000640:	e000e010 	.word	0xe000e010
10000644:	e000e018 	.word	0xe000e018
10000648:	e000e014 	.word	0xe000e014

1000064c <xPortStartScheduler>:
1000064c:	b510      	push	{r4, lr}
1000064e:	4b22      	ldr	r3, [pc, #136]	; (100006d8 <xPortStartScheduler+0x8c>)
10000650:	6819      	ldr	r1, [r3, #0]
10000652:	22ff      	movs	r2, #255	; 0xff
10000654:	0412      	lsls	r2, r2, #16
10000656:	430a      	orrs	r2, r1
10000658:	601a      	str	r2, [r3, #0]
1000065a:	6819      	ldr	r1, [r3, #0]
1000065c:	22ff      	movs	r2, #255	; 0xff
1000065e:	0612      	lsls	r2, r2, #24
10000660:	430a      	orrs	r2, r1
10000662:	601a      	str	r2, [r3, #0]
10000664:	2002      	movs	r0, #2
10000666:	491d      	ldr	r1, [pc, #116]	; (100006dc <xPortStartScheduler+0x90>)
10000668:	4240      	negs	r0, r0
1000066a:	f001 ff95 	bl	10002598 <exception_set_exclusive_handler>
1000066e:	2001      	movs	r0, #1
10000670:	491b      	ldr	r1, [pc, #108]	; (100006e0 <xPortStartScheduler+0x94>)
10000672:	4240      	negs	r0, r0
10000674:	f001 ff90 	bl	10002598 <exception_set_exclusive_handler>
10000678:	2005      	movs	r0, #5
1000067a:	491a      	ldr	r1, [pc, #104]	; (100006e4 <xPortStartScheduler+0x98>)
1000067c:	4240      	negs	r0, r0
1000067e:	f001 ff8b 	bl	10002598 <exception_set_exclusive_handler>
10000682:	f7ff ffc9 	bl	10000618 <vPortSetupTimerInterrupt>
10000686:	4b18      	ldr	r3, [pc, #96]	; (100006e8 <xPortStartScheduler+0x9c>)
10000688:	2200      	movs	r2, #0
1000068a:	601a      	str	r2, [r3, #0]
1000068c:	23d0      	movs	r3, #208	; 0xd0
1000068e:	061b      	lsls	r3, r3, #24
10000690:	4a16      	ldr	r2, [pc, #88]	; (100006ec <xPortStartScheduler+0xa0>)
10000692:	6819      	ldr	r1, [r3, #0]
10000694:	7011      	strb	r1, [r2, #0]
10000696:	22ff      	movs	r2, #255	; 0xff
10000698:	651a      	str	r2, [r3, #80]	; 0x50
1000069a:	e002      	b.n	100006a2 <xPortStartScheduler+0x56>
1000069c:	23d0      	movs	r3, #208	; 0xd0
1000069e:	061b      	lsls	r3, r3, #24
100006a0:	6d9b      	ldr	r3, [r3, #88]	; 0x58
100006a2:	23d0      	movs	r3, #208	; 0xd0
100006a4:	061b      	lsls	r3, r3, #24
100006a6:	6d1b      	ldr	r3, [r3, #80]	; 0x50
100006a8:	07db      	lsls	r3, r3, #31
100006aa:	d4f7      	bmi.n	1000069c <xPortStartScheduler+0x50>
100006ac:	23d0      	movs	r3, #208	; 0xd0
100006ae:	061b      	lsls	r3, r3, #24
100006b0:	681c      	ldr	r4, [r3, #0]
100006b2:	340f      	adds	r4, #15
100006b4:	21ff      	movs	r1, #255	; 0xff
100006b6:	0020      	movs	r0, r4
100006b8:	f003 fb04 	bl	10003cc4 <irq_set_priority>
100006bc:	490c      	ldr	r1, [pc, #48]	; (100006f0 <xPortStartScheduler+0xa4>)
100006be:	0020      	movs	r0, r4
100006c0:	f003 fa00 	bl	10003ac4 <irq_set_exclusive_handler>
100006c4:	2101      	movs	r1, #1
100006c6:	0020      	movs	r0, r4
100006c8:	f003 f9ec 	bl	10003aa4 <irq_set_enabled>
100006cc:	f7ff fe98 	bl	10000400 <vPortStartFirstTask>
100006d0:	f001 fa08 	bl	10001ae4 <vTaskSwitchContext>
100006d4:	f7ff fed8 	bl	10000488 <prvTaskExitError>
100006d8:	e000ed20 	.word	0xe000ed20
100006dc:	10000429 	.word	0x10000429
100006e0:	100005f5 	.word	0x100005f5
100006e4:	100003ff 	.word	0x100003ff
100006e8:	20020900 	.word	0x20020900
100006ec:	200001c8 	.word	0x200001c8
100006f0:	10000491 	.word	0x10000491

100006f4 <ulPortLockGetCurrentOwnerId>:
100006f4:	b510      	push	{r4, lr}
100006f6:	4b0a      	ldr	r3, [pc, #40]	; (10000720 <ulPortLockGetCurrentOwnerId+0x2c>)
100006f8:	781b      	ldrb	r3, [r3, #0]
100006fa:	22d0      	movs	r2, #208	; 0xd0
100006fc:	0612      	lsls	r2, r2, #24
100006fe:	6810      	ldr	r0, [r2, #0]
10000700:	4283      	cmp	r3, r0
10000702:	d000      	beq.n	10000706 <ulPortLockGetCurrentOwnerId+0x12>
10000704:	bd10      	pop	{r4, pc}
10000706:	f7ff fdae 	bl	10000266 <__get_current_exception>
1000070a:	2800      	cmp	r0, #0
1000070c:	d005      	beq.n	1000071a <ulPortLockGetCurrentOwnerId+0x26>
1000070e:	23d0      	movs	r3, #208	; 0xd0
10000710:	061b      	lsls	r3, r3, #24
10000712:	681b      	ldr	r3, [r3, #0]
10000714:	0040      	lsls	r0, r0, #1
10000716:	18c0      	adds	r0, r0, r3
10000718:	e7f4      	b.n	10000704 <ulPortLockGetCurrentOwnerId+0x10>
1000071a:	f001 fc41 	bl	10001fa0 <xTaskGetCurrentTaskHandle>
1000071e:	e7f1      	b.n	10000704 <ulPortLockGetCurrentOwnerId+0x10>
10000720:	200001c8 	.word	0x200001c8

10000724 <vPortLockInternalSpinUnlockWithWait>:
10000724:	b510      	push	{r4, lr}
10000726:	b082      	sub	sp, #8
10000728:	f3ef 8305 	mrs	r3, IPSR
1000072c:	b2db      	uxtb	r3, r3
1000072e:	2b00      	cmp	r3, #0
10000730:	d110      	bne.n	10000754 <vPortLockInternalSpinUnlockWithWait+0x30>
10000732:	4b25      	ldr	r3, [pc, #148]	; (100007c8 <vPortLockInternalSpinUnlockWithWait+0xa4>)
10000734:	781a      	ldrb	r2, [r3, #0]
10000736:	23d0      	movs	r3, #208	; 0xd0
10000738:	061b      	lsls	r3, r3, #24
1000073a:	681b      	ldr	r3, [r3, #0]
1000073c:	429a      	cmp	r2, r3
1000073e:	d00f      	beq.n	10000760 <vPortLockInternalSpinUnlockWithWait+0x3c>
10000740:	6803      	ldr	r3, [r0, #0]
10000742:	f3bf 8f5f 	dmb	sy
10000746:	2200      	movs	r2, #0
10000748:	601a      	str	r2, [r3, #0]
1000074a:	f381 8810 	msr	PRIMASK, r1
1000074e:	bf20      	wfe
10000750:	b002      	add	sp, #8
10000752:	bd10      	pop	{r4, pc}
10000754:	4b1d      	ldr	r3, [pc, #116]	; (100007cc <vPortLockInternalSpinUnlockWithWait+0xa8>)
10000756:	4a1e      	ldr	r2, [pc, #120]	; (100007d0 <vPortLockInternalSpinUnlockWithWait+0xac>)
10000758:	491e      	ldr	r1, [pc, #120]	; (100007d4 <vPortLockInternalSpinUnlockWithWait+0xb0>)
1000075a:	481f      	ldr	r0, [pc, #124]	; (100007d8 <vPortLockInternalSpinUnlockWithWait+0xb4>)
1000075c:	f002 ff78 	bl	10003650 <__assert_func>
10000760:	4b1e      	ldr	r3, [pc, #120]	; (100007dc <vPortLockInternalSpinUnlockWithWait+0xb8>)
10000762:	681b      	ldr	r3, [r3, #0]
10000764:	2b00      	cmp	r3, #0
10000766:	d121      	bne.n	100007ac <vPortLockInternalSpinUnlockWithWait+0x88>
10000768:	6803      	ldr	r3, [r0, #0]
1000076a:	2b00      	cmp	r3, #0
1000076c:	d024      	beq.n	100007b8 <vPortLockInternalSpinUnlockWithWait+0x94>
1000076e:	4c1b      	ldr	r4, [pc, #108]	; (100007dc <vPortLockInternalSpinUnlockWithWait+0xb8>)
10000770:	6023      	str	r3, [r4, #0]
10000772:	4a1b      	ldr	r2, [pc, #108]	; (100007e0 <vPortLockInternalSpinUnlockWithWait+0xbc>)
10000774:	6011      	str	r1, [r2, #0]
10000776:	4a1b      	ldr	r2, [pc, #108]	; (100007e4 <vPortLockInternalSpinUnlockWithWait+0xc0>)
10000778:	4694      	mov	ip, r2
1000077a:	4463      	add	r3, ip
1000077c:	109b      	asrs	r3, r3, #2
1000077e:	2101      	movs	r1, #1
10000780:	4099      	lsls	r1, r3
10000782:	020b      	lsls	r3, r1, #8
10000784:	4319      	orrs	r1, r3
10000786:	0a09      	lsrs	r1, r1, #8
10000788:	4b17      	ldr	r3, [pc, #92]	; (100007e8 <vPortLockInternalSpinUnlockWithWait+0xc4>)
1000078a:	6818      	ldr	r0, [r3, #0]
1000078c:	2301      	movs	r3, #1
1000078e:	425b      	negs	r3, r3
10000790:	9300      	str	r3, [sp, #0]
10000792:	2300      	movs	r3, #0
10000794:	2201      	movs	r2, #1
10000796:	f000 f8c9 	bl	1000092c <xEventGroupWaitBits>
1000079a:	6823      	ldr	r3, [r4, #0]
1000079c:	2b00      	cmp	r3, #0
1000079e:	d0d7      	beq.n	10000750 <vPortLockInternalSpinUnlockWithWait+0x2c>
100007a0:	4b12      	ldr	r3, [pc, #72]	; (100007ec <vPortLockInternalSpinUnlockWithWait+0xc8>)
100007a2:	4a0b      	ldr	r2, [pc, #44]	; (100007d0 <vPortLockInternalSpinUnlockWithWait+0xac>)
100007a4:	4912      	ldr	r1, [pc, #72]	; (100007f0 <vPortLockInternalSpinUnlockWithWait+0xcc>)
100007a6:	480c      	ldr	r0, [pc, #48]	; (100007d8 <vPortLockInternalSpinUnlockWithWait+0xb4>)
100007a8:	f002 ff52 	bl	10003650 <__assert_func>
100007ac:	4b0f      	ldr	r3, [pc, #60]	; (100007ec <vPortLockInternalSpinUnlockWithWait+0xc8>)
100007ae:	4a08      	ldr	r2, [pc, #32]	; (100007d0 <vPortLockInternalSpinUnlockWithWait+0xac>)
100007b0:	4910      	ldr	r1, [pc, #64]	; (100007f4 <vPortLockInternalSpinUnlockWithWait+0xd0>)
100007b2:	4809      	ldr	r0, [pc, #36]	; (100007d8 <vPortLockInternalSpinUnlockWithWait+0xb4>)
100007b4:	f002 ff4c 	bl	10003650 <__assert_func>
100007b8:	21b9      	movs	r1, #185	; 0xb9
100007ba:	4b0f      	ldr	r3, [pc, #60]	; (100007f8 <vPortLockInternalSpinUnlockWithWait+0xd4>)
100007bc:	4a04      	ldr	r2, [pc, #16]	; (100007d0 <vPortLockInternalSpinUnlockWithWait+0xac>)
100007be:	0089      	lsls	r1, r1, #2
100007c0:	4805      	ldr	r0, [pc, #20]	; (100007d8 <vPortLockInternalSpinUnlockWithWait+0xb4>)
100007c2:	f002 ff45 	bl	10003650 <__assert_func>
100007c6:	46c0      	nop			; (mov r8, r8)
100007c8:	200001c8 	.word	0x200001c8
100007cc:	1000644c 	.word	0x1000644c
100007d0:	100064c0 	.word	0x100064c0
100007d4:	000002d7 	.word	0x000002d7
100007d8:	100063e0 	.word	0x100063e0
100007dc:	200006e0 	.word	0x200006e0
100007e0:	200208fc 	.word	0x200208fc
100007e4:	2fffff00 	.word	0x2fffff00
100007e8:	20020970 	.word	0x20020970
100007ec:	100063c0 	.word	0x100063c0
100007f0:	000002eb 	.word	0x000002eb
100007f4:	000002df 	.word	0x000002df
100007f8:	100064ac 	.word	0x100064ac

100007fc <vPortLockInternalSpinUnlockWithNotify>:
100007fc:	b510      	push	{r4, lr}
100007fe:	b082      	sub	sp, #8
10000800:	000c      	movs	r4, r1
10000802:	6803      	ldr	r3, [r0, #0]
10000804:	492b      	ldr	r1, [pc, #172]	; (100008b4 <vPortLockInternalSpinUnlockWithNotify+0xb8>)
10000806:	468c      	mov	ip, r1
10000808:	4463      	add	r3, ip
1000080a:	109a      	asrs	r2, r3, #2
1000080c:	2301      	movs	r3, #1
1000080e:	4093      	lsls	r3, r2
10000810:	0219      	lsls	r1, r3, #8
10000812:	4319      	orrs	r1, r3
10000814:	0a09      	lsrs	r1, r1, #8
10000816:	4b28      	ldr	r3, [pc, #160]	; (100008b8 <vPortLockInternalSpinUnlockWithNotify+0xbc>)
10000818:	781a      	ldrb	r2, [r3, #0]
1000081a:	23d0      	movs	r3, #208	; 0xd0
1000081c:	061b      	lsls	r3, r3, #24
1000081e:	681b      	ldr	r3, [r3, #0]
10000820:	429a      	cmp	r2, r3
10000822:	d020      	beq.n	10000866 <vPortLockInternalSpinUnlockWithNotify+0x6a>
10000824:	bf40      	sev
10000826:	4b25      	ldr	r3, [pc, #148]	; (100008bc <vPortLockInternalSpinUnlockWithNotify+0xc0>)
10000828:	681b      	ldr	r3, [r3, #0]
1000082a:	6802      	ldr	r2, [r0, #0]
1000082c:	429a      	cmp	r2, r3
1000082e:	d03b      	beq.n	100008a8 <vPortLockInternalSpinUnlockWithNotify+0xac>
10000830:	681a      	ldr	r2, [r3, #0]
10000832:	2a00      	cmp	r2, #0
10000834:	d0fc      	beq.n	10000830 <vPortLockInternalSpinUnlockWithNotify+0x34>
10000836:	f3bf 8f5f 	dmb	sy
1000083a:	4b21      	ldr	r3, [pc, #132]	; (100008c0 <vPortLockInternalSpinUnlockWithNotify+0xc4>)
1000083c:	681a      	ldr	r2, [r3, #0]
1000083e:	4311      	orrs	r1, r2
10000840:	6019      	str	r1, [r3, #0]
10000842:	4b1e      	ldr	r3, [pc, #120]	; (100008bc <vPortLockInternalSpinUnlockWithNotify+0xc0>)
10000844:	681b      	ldr	r3, [r3, #0]
10000846:	f3bf 8f5f 	dmb	sy
1000084a:	2200      	movs	r2, #0
1000084c:	601a      	str	r2, [r3, #0]
1000084e:	2300      	movs	r3, #0
10000850:	22d0      	movs	r2, #208	; 0xd0
10000852:	0612      	lsls	r2, r2, #24
10000854:	6553      	str	r3, [r2, #84]	; 0x54
10000856:	6802      	ldr	r2, [r0, #0]
10000858:	f3bf 8f5f 	dmb	sy
1000085c:	6013      	str	r3, [r2, #0]
1000085e:	f384 8810 	msr	PRIMASK, r4
10000862:	b002      	add	sp, #8
10000864:	bd10      	pop	{r4, pc}
10000866:	bf40      	sev
10000868:	6803      	ldr	r3, [r0, #0]
1000086a:	f3bf 8f5f 	dmb	sy
1000086e:	2200      	movs	r2, #0
10000870:	601a      	str	r2, [r3, #0]
10000872:	f384 8810 	msr	PRIMASK, r4
10000876:	f3ef 8305 	mrs	r3, IPSR
1000087a:	b2db      	uxtb	r3, r3
1000087c:	2b00      	cmp	r3, #0
1000087e:	d104      	bne.n	1000088a <vPortLockInternalSpinUnlockWithNotify+0x8e>
10000880:	4b10      	ldr	r3, [pc, #64]	; (100008c4 <vPortLockInternalSpinUnlockWithNotify+0xc8>)
10000882:	6818      	ldr	r0, [r3, #0]
10000884:	f000 f8e4 	bl	10000a50 <xEventGroupSetBits>
10000888:	e7eb      	b.n	10000862 <vPortLockInternalSpinUnlockWithNotify+0x66>
1000088a:	2300      	movs	r3, #0
1000088c:	9301      	str	r3, [sp, #4]
1000088e:	4b0d      	ldr	r3, [pc, #52]	; (100008c4 <vPortLockInternalSpinUnlockWithNotify+0xc8>)
10000890:	6818      	ldr	r0, [r3, #0]
10000892:	aa01      	add	r2, sp, #4
10000894:	f000 f92c 	bl	10000af0 <xEventGroupSetBitsFromISR>
10000898:	9b01      	ldr	r3, [sp, #4]
1000089a:	2b00      	cmp	r3, #0
1000089c:	d0e1      	beq.n	10000862 <vPortLockInternalSpinUnlockWithNotify+0x66>
1000089e:	4b0a      	ldr	r3, [pc, #40]	; (100008c8 <vPortLockInternalSpinUnlockWithNotify+0xcc>)
100008a0:	2280      	movs	r2, #128	; 0x80
100008a2:	0552      	lsls	r2, r2, #21
100008a4:	601a      	str	r2, [r3, #0]
100008a6:	e7dc      	b.n	10000862 <vPortLockInternalSpinUnlockWithNotify+0x66>
100008a8:	4b05      	ldr	r3, [pc, #20]	; (100008c0 <vPortLockInternalSpinUnlockWithNotify+0xc4>)
100008aa:	681a      	ldr	r2, [r3, #0]
100008ac:	4311      	orrs	r1, r2
100008ae:	6019      	str	r1, [r3, #0]
100008b0:	e7cd      	b.n	1000084e <vPortLockInternalSpinUnlockWithNotify+0x52>
100008b2:	46c0      	nop			; (mov r8, r8)
100008b4:	2fffff00 	.word	0x2fffff00
100008b8:	200001c8 	.word	0x200001c8
100008bc:	20000444 	.word	0x20000444
100008c0:	20020904 	.word	0x20020904
100008c4:	20020970 	.word	0x20020970
100008c8:	e000ed04 	.word	0xe000ed04

100008cc <prvRuntimeInitializer>:
100008cc:	b510      	push	{r4, lr}
100008ce:	f001 fecf 	bl	10002670 <next_striped_spin_lock_num>
100008d2:	4b05      	ldr	r3, [pc, #20]	; (100008e8 <prvRuntimeInitializer+0x1c>)
100008d4:	469c      	mov	ip, r3
100008d6:	4460      	add	r0, ip
100008d8:	0080      	lsls	r0, r0, #2
100008da:	4b04      	ldr	r3, [pc, #16]	; (100008ec <prvRuntimeInitializer+0x20>)
100008dc:	6018      	str	r0, [r3, #0]
100008de:	f000 f818 	bl	10000912 <xEventGroupCreate>
100008e2:	4b03      	ldr	r3, [pc, #12]	; (100008f0 <prvRuntimeInitializer+0x24>)
100008e4:	6018      	str	r0, [r3, #0]
100008e6:	bd10      	pop	{r4, pc}
100008e8:	34000040 	.word	0x34000040
100008ec:	20000444 	.word	0x20000444
100008f0:	20020970 	.word	0x20020970

100008f4 <prvTestWaitCondition>:
100008f4:	2a00      	cmp	r2, #0
100008f6:	d103      	bne.n	10000900 <prvTestWaitCondition+0xc>
100008f8:	4201      	tst	r1, r0
100008fa:	d106      	bne.n	1000090a <prvTestWaitCondition+0x16>
100008fc:	0010      	movs	r0, r2
100008fe:	e003      	b.n	10000908 <prvTestWaitCondition+0x14>
10000900:	4008      	ands	r0, r1
10000902:	4288      	cmp	r0, r1
10000904:	d003      	beq.n	1000090e <prvTestWaitCondition+0x1a>
10000906:	2000      	movs	r0, #0
10000908:	4770      	bx	lr
1000090a:	2001      	movs	r0, #1
1000090c:	e7fc      	b.n	10000908 <prvTestWaitCondition+0x14>
1000090e:	2001      	movs	r0, #1
10000910:	e7fa      	b.n	10000908 <prvTestWaitCondition+0x14>

10000912 <xEventGroupCreate>:
10000912:	b510      	push	{r4, lr}
10000914:	201c      	movs	r0, #28
10000916:	f001 ff15 	bl	10002744 <pvPortMalloc>
1000091a:	1e04      	subs	r4, r0, #0
1000091c:	d003      	beq.n	10000926 <xEventGroupCreate+0x14>
1000091e:	2300      	movs	r3, #0
10000920:	c008      	stmia	r0!, {r3}
10000922:	f000 f8ef 	bl	10000b04 <vListInitialise>
10000926:	0020      	movs	r0, r4
10000928:	bd10      	pop	{r4, pc}
	...

1000092c <xEventGroupWaitBits>:
1000092c:	b5f8      	push	{r3, r4, r5, r6, r7, lr}
1000092e:	46ce      	mov	lr, r9
10000930:	4647      	mov	r7, r8
10000932:	b580      	push	{r7, lr}
10000934:	0006      	movs	r6, r0
10000936:	000d      	movs	r5, r1
10000938:	4690      	mov	r8, r2
1000093a:	4699      	mov	r9, r3
1000093c:	2800      	cmp	r0, #0
1000093e:	d02e      	beq.n	1000099e <xEventGroupWaitBits+0x72>
10000940:	0e0b      	lsrs	r3, r1, #24
10000942:	061f      	lsls	r7, r3, #24
10000944:	2b00      	cmp	r3, #0
10000946:	d131      	bne.n	100009ac <xEventGroupWaitBits+0x80>
10000948:	2900      	cmp	r1, #0
1000094a:	d036      	beq.n	100009ba <xEventGroupWaitBits+0x8e>
1000094c:	f001 fb2e 	bl	10001fac <xTaskGetSchedulerState>
10000950:	2800      	cmp	r0, #0
10000952:	d102      	bne.n	1000095a <xEventGroupWaitBits+0x2e>
10000954:	9b08      	ldr	r3, [sp, #32]
10000956:	2b00      	cmp	r3, #0
10000958:	d136      	bne.n	100009c8 <xEventGroupWaitBits+0x9c>
1000095a:	f000 ff3b 	bl	100017d4 <vTaskSuspendAll>
1000095e:	6834      	ldr	r4, [r6, #0]
10000960:	464a      	mov	r2, r9
10000962:	0029      	movs	r1, r5
10000964:	0020      	movs	r0, r4
10000966:	f7ff ffc5 	bl	100008f4 <prvTestWaitCondition>
1000096a:	2800      	cmp	r0, #0
1000096c:	d033      	beq.n	100009d6 <xEventGroupWaitBits+0xaa>
1000096e:	4643      	mov	r3, r8
10000970:	2b00      	cmp	r3, #0
10000972:	d002      	beq.n	1000097a <xEventGroupWaitBits+0x4e>
10000974:	0023      	movs	r3, r4
10000976:	43ab      	bics	r3, r5
10000978:	6033      	str	r3, [r6, #0]
1000097a:	f001 f805 	bl	10001988 <xTaskResumeAll>
1000097e:	2f00      	cmp	r7, #0
10000980:	d008      	beq.n	10000994 <xEventGroupWaitBits+0x68>
10000982:	2800      	cmp	r0, #0
10000984:	d041      	beq.n	10000a0a <xEventGroupWaitBits+0xde>
10000986:	f001 fb83 	bl	10002090 <uxTaskResetEventItemValue>
1000098a:	0004      	movs	r4, r0
1000098c:	0183      	lsls	r3, r0, #6
1000098e:	d53f      	bpl.n	10000a10 <xEventGroupWaitBits+0xe4>
10000990:	0224      	lsls	r4, r4, #8
10000992:	0a24      	lsrs	r4, r4, #8
10000994:	0020      	movs	r0, r4
10000996:	bcc0      	pop	{r6, r7}
10000998:	46b9      	mov	r9, r7
1000099a:	46b0      	mov	r8, r6
1000099c:	bdf8      	pop	{r3, r4, r5, r6, r7, pc}
1000099e:	21a5      	movs	r1, #165	; 0xa5
100009a0:	4b25      	ldr	r3, [pc, #148]	; (10000a38 <xEventGroupWaitBits+0x10c>)
100009a2:	4a26      	ldr	r2, [pc, #152]	; (10000a3c <xEventGroupWaitBits+0x110>)
100009a4:	0049      	lsls	r1, r1, #1
100009a6:	4826      	ldr	r0, [pc, #152]	; (10000a40 <xEventGroupWaitBits+0x114>)
100009a8:	f002 fe52 	bl	10003650 <__assert_func>
100009ac:	214c      	movs	r1, #76	; 0x4c
100009ae:	4b25      	ldr	r3, [pc, #148]	; (10000a44 <xEventGroupWaitBits+0x118>)
100009b0:	4a22      	ldr	r2, [pc, #136]	; (10000a3c <xEventGroupWaitBits+0x110>)
100009b2:	31ff      	adds	r1, #255	; 0xff
100009b4:	4822      	ldr	r0, [pc, #136]	; (10000a40 <xEventGroupWaitBits+0x114>)
100009b6:	f002 fe4b 	bl	10003650 <__assert_func>
100009ba:	21a6      	movs	r1, #166	; 0xa6
100009bc:	4b22      	ldr	r3, [pc, #136]	; (10000a48 <xEventGroupWaitBits+0x11c>)
100009be:	4a1f      	ldr	r2, [pc, #124]	; (10000a3c <xEventGroupWaitBits+0x110>)
100009c0:	0049      	lsls	r1, r1, #1
100009c2:	481f      	ldr	r0, [pc, #124]	; (10000a40 <xEventGroupWaitBits+0x114>)
100009c4:	f002 fe44 	bl	10003650 <__assert_func>
100009c8:	2150      	movs	r1, #80	; 0x50
100009ca:	4b20      	ldr	r3, [pc, #128]	; (10000a4c <xEventGroupWaitBits+0x120>)
100009cc:	4a1b      	ldr	r2, [pc, #108]	; (10000a3c <xEventGroupWaitBits+0x110>)
100009ce:	31ff      	adds	r1, #255	; 0xff
100009d0:	481b      	ldr	r0, [pc, #108]	; (10000a40 <xEventGroupWaitBits+0x114>)
100009d2:	f002 fe3d 	bl	10003650 <__assert_func>
100009d6:	9b08      	ldr	r3, [sp, #32]
100009d8:	2b00      	cmp	r3, #0
100009da:	d014      	beq.n	10000a06 <xEventGroupWaitBits+0xda>
100009dc:	4643      	mov	r3, r8
100009de:	2b00      	cmp	r3, #0
100009e0:	d10e      	bne.n	10000a00 <xEventGroupWaitBits+0xd4>
100009e2:	0039      	movs	r1, r7
100009e4:	464b      	mov	r3, r9
100009e6:	2b00      	cmp	r3, #0
100009e8:	d002      	beq.n	100009f0 <xEventGroupWaitBits+0xc4>
100009ea:	2380      	movs	r3, #128	; 0x80
100009ec:	04db      	lsls	r3, r3, #19
100009ee:	4319      	orrs	r1, r3
100009f0:	4329      	orrs	r1, r5
100009f2:	1d30      	adds	r0, r6, #4
100009f4:	9a08      	ldr	r2, [sp, #32]
100009f6:	f001 f8fd 	bl	10001bf4 <vTaskPlaceOnUnorderedEventList>
100009fa:	003c      	movs	r4, r7
100009fc:	9f08      	ldr	r7, [sp, #32]
100009fe:	e7bc      	b.n	1000097a <xEventGroupWaitBits+0x4e>
10000a00:	2180      	movs	r1, #128	; 0x80
10000a02:	0449      	lsls	r1, r1, #17
10000a04:	e7ee      	b.n	100009e4 <xEventGroupWaitBits+0xb8>
10000a06:	9f08      	ldr	r7, [sp, #32]
10000a08:	e7b7      	b.n	1000097a <xEventGroupWaitBits+0x4e>
10000a0a:	f7ff fd8d 	bl	10000528 <vPortYield>
10000a0e:	e7ba      	b.n	10000986 <xEventGroupWaitBits+0x5a>
10000a10:	f7ff fdaa 	bl	10000568 <vPortEnterCritical>
10000a14:	6834      	ldr	r4, [r6, #0]
10000a16:	464a      	mov	r2, r9
10000a18:	0029      	movs	r1, r5
10000a1a:	0020      	movs	r0, r4
10000a1c:	f7ff ff6a 	bl	100008f4 <prvTestWaitCondition>
10000a20:	2800      	cmp	r0, #0
10000a22:	d005      	beq.n	10000a30 <xEventGroupWaitBits+0x104>
10000a24:	4643      	mov	r3, r8
10000a26:	2b00      	cmp	r3, #0
10000a28:	d002      	beq.n	10000a30 <xEventGroupWaitBits+0x104>
10000a2a:	0023      	movs	r3, r4
10000a2c:	43ab      	bics	r3, r5
10000a2e:	6033      	str	r3, [r6, #0]
10000a30:	f7ff fdba 	bl	100005a8 <vPortExitCritical>
10000a34:	e7ac      	b.n	10000990 <xEventGroupWaitBits+0x64>
10000a36:	46c0      	nop			; (mov r8, r8)
10000a38:	10006504 	.word	0x10006504
10000a3c:	1000661c 	.word	0x1000661c
10000a40:	10006510 	.word	0x10006510
10000a44:	10006550 	.word	0x10006550
10000a48:	10006578 	.word	0x10006578
10000a4c:	10006590 	.word	0x10006590

10000a50 <xEventGroupSetBits>:
10000a50:	b5f8      	push	{r3, r4, r5, r6, r7, lr}
10000a52:	0004      	movs	r4, r0
10000a54:	000d      	movs	r5, r1
10000a56:	2800      	cmp	r0, #0
10000a58:	d00c      	beq.n	10000a74 <xEventGroupSetBits+0x24>
10000a5a:	0e0b      	lsrs	r3, r1, #24
10000a5c:	061f      	lsls	r7, r3, #24
10000a5e:	2b00      	cmp	r3, #0
10000a60:	d10e      	bne.n	10000a80 <xEventGroupSetBits+0x30>
10000a62:	0006      	movs	r6, r0
10000a64:	360c      	adds	r6, #12
10000a66:	f000 feb5 	bl	100017d4 <vTaskSuspendAll>
10000a6a:	6920      	ldr	r0, [r4, #16]
10000a6c:	6823      	ldr	r3, [r4, #0]
10000a6e:	431d      	orrs	r5, r3
10000a70:	6025      	str	r5, [r4, #0]
10000a72:	e017      	b.n	10000aa4 <xEventGroupSetBits+0x54>
10000a74:	4b16      	ldr	r3, [pc, #88]	; (10000ad0 <xEventGroupSetBits+0x80>)
10000a76:	4a17      	ldr	r2, [pc, #92]	; (10000ad4 <xEventGroupSetBits+0x84>)
10000a78:	4917      	ldr	r1, [pc, #92]	; (10000ad8 <xEventGroupSetBits+0x88>)
10000a7a:	4818      	ldr	r0, [pc, #96]	; (10000adc <xEventGroupSetBits+0x8c>)
10000a7c:	f002 fde8 	bl	10003650 <__assert_func>
10000a80:	4b17      	ldr	r3, [pc, #92]	; (10000ae0 <xEventGroupSetBits+0x90>)
10000a82:	4a14      	ldr	r2, [pc, #80]	; (10000ad4 <xEventGroupSetBits+0x84>)
10000a84:	4917      	ldr	r1, [pc, #92]	; (10000ae4 <xEventGroupSetBits+0x94>)
10000a86:	4815      	ldr	r0, [pc, #84]	; (10000adc <xEventGroupSetBits+0x8c>)
10000a88:	f002 fde2 	bl	10003650 <__assert_func>
10000a8c:	6821      	ldr	r1, [r4, #0]
10000a8e:	4019      	ands	r1, r3
10000a90:	4299      	cmp	r1, r3
10000a92:	d106      	bne.n	10000aa2 <xEventGroupSetBits+0x52>
10000a94:	e011      	b.n	10000aba <xEventGroupSetBits+0x6a>
10000a96:	2180      	movs	r1, #128	; 0x80
10000a98:	0489      	lsls	r1, r1, #18
10000a9a:	6823      	ldr	r3, [r4, #0]
10000a9c:	4319      	orrs	r1, r3
10000a9e:	f001 f999 	bl	10001dd4 <vTaskRemoveFromUnorderedEventList>
10000aa2:	0028      	movs	r0, r5
10000aa4:	42b0      	cmp	r0, r6
10000aa6:	d00c      	beq.n	10000ac2 <xEventGroupSetBits+0x72>
10000aa8:	6845      	ldr	r5, [r0, #4]
10000aaa:	6802      	ldr	r2, [r0, #0]
10000aac:	0213      	lsls	r3, r2, #8
10000aae:	0a1b      	lsrs	r3, r3, #8
10000ab0:	0151      	lsls	r1, r2, #5
10000ab2:	d4eb      	bmi.n	10000a8c <xEventGroupSetBits+0x3c>
10000ab4:	6821      	ldr	r1, [r4, #0]
10000ab6:	420b      	tst	r3, r1
10000ab8:	d0f3      	beq.n	10000aa2 <xEventGroupSetBits+0x52>
10000aba:	01d2      	lsls	r2, r2, #7
10000abc:	d5eb      	bpl.n	10000a96 <xEventGroupSetBits+0x46>
10000abe:	431f      	orrs	r7, r3
10000ac0:	e7e9      	b.n	10000a96 <xEventGroupSetBits+0x46>
10000ac2:	6823      	ldr	r3, [r4, #0]
10000ac4:	43bb      	bics	r3, r7
10000ac6:	6023      	str	r3, [r4, #0]
10000ac8:	f000 ff5e 	bl	10001988 <xTaskResumeAll>
10000acc:	6820      	ldr	r0, [r4, #0]
10000ace:	bdf8      	pop	{r3, r4, r5, r6, r7, pc}
10000ad0:	10006504 	.word	0x10006504
10000ad4:	10006608 	.word	0x10006608
10000ad8:	00000221 	.word	0x00000221
10000adc:	10006510 	.word	0x10006510
10000ae0:	100065e4 	.word	0x100065e4
10000ae4:	00000222 	.word	0x00000222

10000ae8 <vEventGroupSetBitsCallback>:
10000ae8:	b510      	push	{r4, lr}
10000aea:	f7ff ffb1 	bl	10000a50 <xEventGroupSetBits>
10000aee:	bd10      	pop	{r4, pc}

10000af0 <xEventGroupSetBitsFromISR>:
10000af0:	b510      	push	{r4, lr}
10000af2:	0013      	movs	r3, r2
10000af4:	000a      	movs	r2, r1
10000af6:	0001      	movs	r1, r0
10000af8:	4801      	ldr	r0, [pc, #4]	; (10000b00 <xEventGroupSetBitsFromISR+0x10>)
10000afa:	f001 fd15 	bl	10002528 <xTimerPendFunctionCallFromISR>
10000afe:	bd10      	pop	{r4, pc}
10000b00:	10000ae9 	.word	0x10000ae9

10000b04 <vListInitialise>:
10000b04:	0003      	movs	r3, r0
10000b06:	3308      	adds	r3, #8
10000b08:	6043      	str	r3, [r0, #4]
10000b0a:	2201      	movs	r2, #1
10000b0c:	4252      	negs	r2, r2
10000b0e:	6082      	str	r2, [r0, #8]
10000b10:	60c3      	str	r3, [r0, #12]
10000b12:	6103      	str	r3, [r0, #16]
10000b14:	2300      	movs	r3, #0
10000b16:	6003      	str	r3, [r0, #0]
10000b18:	4770      	bx	lr

10000b1a <vListInitialiseItem>:
10000b1a:	2300      	movs	r3, #0
10000b1c:	6103      	str	r3, [r0, #16]
10000b1e:	4770      	bx	lr

10000b20 <vListInsert>:
10000b20:	b530      	push	{r4, r5, lr}
10000b22:	680c      	ldr	r4, [r1, #0]
10000b24:	1c63      	adds	r3, r4, #1
10000b26:	d010      	beq.n	10000b4a <vListInsert+0x2a>
10000b28:	0003      	movs	r3, r0
10000b2a:	3308      	adds	r3, #8
10000b2c:	001a      	movs	r2, r3
10000b2e:	685b      	ldr	r3, [r3, #4]
10000b30:	681d      	ldr	r5, [r3, #0]
10000b32:	42a5      	cmp	r5, r4
10000b34:	d9fa      	bls.n	10000b2c <vListInsert+0xc>
10000b36:	6853      	ldr	r3, [r2, #4]
10000b38:	604b      	str	r3, [r1, #4]
10000b3a:	6099      	str	r1, [r3, #8]
10000b3c:	608a      	str	r2, [r1, #8]
10000b3e:	6051      	str	r1, [r2, #4]
10000b40:	6108      	str	r0, [r1, #16]
10000b42:	6803      	ldr	r3, [r0, #0]
10000b44:	3301      	adds	r3, #1
10000b46:	6003      	str	r3, [r0, #0]
10000b48:	bd30      	pop	{r4, r5, pc}
10000b4a:	6902      	ldr	r2, [r0, #16]
10000b4c:	e7f3      	b.n	10000b36 <vListInsert+0x16>

10000b4e <uxListRemove>:
10000b4e:	6903      	ldr	r3, [r0, #16]
10000b50:	6841      	ldr	r1, [r0, #4]
10000b52:	6882      	ldr	r2, [r0, #8]
10000b54:	608a      	str	r2, [r1, #8]
10000b56:	6841      	ldr	r1, [r0, #4]
10000b58:	6051      	str	r1, [r2, #4]
10000b5a:	685a      	ldr	r2, [r3, #4]
10000b5c:	4282      	cmp	r2, r0
10000b5e:	d006      	beq.n	10000b6e <uxListRemove+0x20>
10000b60:	2200      	movs	r2, #0
10000b62:	6102      	str	r2, [r0, #16]
10000b64:	681a      	ldr	r2, [r3, #0]
10000b66:	3a01      	subs	r2, #1
10000b68:	601a      	str	r2, [r3, #0]
10000b6a:	6818      	ldr	r0, [r3, #0]
10000b6c:	4770      	bx	lr
10000b6e:	6882      	ldr	r2, [r0, #8]
10000b70:	605a      	str	r2, [r3, #4]
10000b72:	e7f5      	b.n	10000b60 <uxListRemove+0x12>

10000b74 <prvIsQueueFull>:
10000b74:	b510      	push	{r4, lr}
10000b76:	0004      	movs	r4, r0
10000b78:	f7ff fcf6 	bl	10000568 <vPortEnterCritical>
10000b7c:	6ba2      	ldr	r2, [r4, #56]	; 0x38
10000b7e:	6be3      	ldr	r3, [r4, #60]	; 0x3c
10000b80:	429a      	cmp	r2, r3
10000b82:	d004      	beq.n	10000b8e <prvIsQueueFull+0x1a>
10000b84:	2400      	movs	r4, #0
10000b86:	f7ff fd0f 	bl	100005a8 <vPortExitCritical>
10000b8a:	0020      	movs	r0, r4
10000b8c:	bd10      	pop	{r4, pc}
10000b8e:	2401      	movs	r4, #1
10000b90:	e7f9      	b.n	10000b86 <prvIsQueueFull+0x12>

10000b92 <prvIsQueueEmpty>:
10000b92:	b510      	push	{r4, lr}
10000b94:	0004      	movs	r4, r0
10000b96:	f7ff fce7 	bl	10000568 <vPortEnterCritical>
10000b9a:	6ba3      	ldr	r3, [r4, #56]	; 0x38
10000b9c:	2b00      	cmp	r3, #0
10000b9e:	d104      	bne.n	10000baa <prvIsQueueEmpty+0x18>
10000ba0:	2401      	movs	r4, #1
10000ba2:	f7ff fd01 	bl	100005a8 <vPortExitCritical>
10000ba6:	0020      	movs	r0, r4
10000ba8:	bd10      	pop	{r4, pc}
10000baa:	2400      	movs	r4, #0
10000bac:	e7f9      	b.n	10000ba2 <prvIsQueueEmpty+0x10>

10000bae <prvCopyDataToQueue>:
10000bae:	b570      	push	{r4, r5, r6, lr}
10000bb0:	0004      	movs	r4, r0
10000bb2:	0015      	movs	r5, r2
10000bb4:	6b86      	ldr	r6, [r0, #56]	; 0x38
10000bb6:	6c02      	ldr	r2, [r0, #64]	; 0x40
10000bb8:	2a00      	cmp	r2, #0
10000bba:	d10c      	bne.n	10000bd6 <prvCopyDataToQueue+0x28>
10000bbc:	6803      	ldr	r3, [r0, #0]
10000bbe:	2b00      	cmp	r3, #0
10000bc0:	d003      	beq.n	10000bca <prvCopyDataToQueue+0x1c>
10000bc2:	2000      	movs	r0, #0
10000bc4:	3601      	adds	r6, #1
10000bc6:	63a6      	str	r6, [r4, #56]	; 0x38
10000bc8:	bd70      	pop	{r4, r5, r6, pc}
10000bca:	6880      	ldr	r0, [r0, #8]
10000bcc:	f001 fa00 	bl	10001fd0 <xTaskPriorityDisinherit>
10000bd0:	2300      	movs	r3, #0
10000bd2:	60a3      	str	r3, [r4, #8]
10000bd4:	e7f6      	b.n	10000bc4 <prvCopyDataToQueue+0x16>
10000bd6:	2d00      	cmp	r5, #0
10000bd8:	d10e      	bne.n	10000bf8 <prvCopyDataToQueue+0x4a>
10000bda:	6840      	ldr	r0, [r0, #4]
10000bdc:	f005 f99a 	bl	10005f14 <__wrap___aeabi_memcpy>
10000be0:	6863      	ldr	r3, [r4, #4]
10000be2:	6c22      	ldr	r2, [r4, #64]	; 0x40
10000be4:	4694      	mov	ip, r2
10000be6:	4463      	add	r3, ip
10000be8:	6063      	str	r3, [r4, #4]
10000bea:	68a2      	ldr	r2, [r4, #8]
10000bec:	4293      	cmp	r3, r2
10000bee:	d31b      	bcc.n	10000c28 <prvCopyDataToQueue+0x7a>
10000bf0:	6823      	ldr	r3, [r4, #0]
10000bf2:	6063      	str	r3, [r4, #4]
10000bf4:	0028      	movs	r0, r5
10000bf6:	e7e5      	b.n	10000bc4 <prvCopyDataToQueue+0x16>
10000bf8:	68c0      	ldr	r0, [r0, #12]
10000bfa:	f005 f98b 	bl	10005f14 <__wrap___aeabi_memcpy>
10000bfe:	6c23      	ldr	r3, [r4, #64]	; 0x40
10000c00:	425a      	negs	r2, r3
10000c02:	68e1      	ldr	r1, [r4, #12]
10000c04:	1acb      	subs	r3, r1, r3
10000c06:	60e3      	str	r3, [r4, #12]
10000c08:	6821      	ldr	r1, [r4, #0]
10000c0a:	428b      	cmp	r3, r1
10000c0c:	d203      	bcs.n	10000c16 <prvCopyDataToQueue+0x68>
10000c0e:	68a3      	ldr	r3, [r4, #8]
10000c10:	469c      	mov	ip, r3
10000c12:	4462      	add	r2, ip
10000c14:	60e2      	str	r2, [r4, #12]
10000c16:	2d02      	cmp	r5, #2
10000c18:	d001      	beq.n	10000c1e <prvCopyDataToQueue+0x70>
10000c1a:	2000      	movs	r0, #0
10000c1c:	e7d2      	b.n	10000bc4 <prvCopyDataToQueue+0x16>
10000c1e:	2e00      	cmp	r6, #0
10000c20:	d004      	beq.n	10000c2c <prvCopyDataToQueue+0x7e>
10000c22:	3e01      	subs	r6, #1
10000c24:	2000      	movs	r0, #0
10000c26:	e7cd      	b.n	10000bc4 <prvCopyDataToQueue+0x16>
10000c28:	0028      	movs	r0, r5
10000c2a:	e7cb      	b.n	10000bc4 <prvCopyDataToQueue+0x16>
10000c2c:	2000      	movs	r0, #0
10000c2e:	e7c9      	b.n	10000bc4 <prvCopyDataToQueue+0x16>

10000c30 <prvNotifyQueueSetContainer>:
10000c30:	b570      	push	{r4, r5, r6, lr}
10000c32:	b082      	sub	sp, #8
10000c34:	9001      	str	r0, [sp, #4]
10000c36:	6c84      	ldr	r4, [r0, #72]	; 0x48
10000c38:	2c00      	cmp	r4, #0
10000c3a:	d00a      	beq.n	10000c52 <prvNotifyQueueSetContainer+0x22>
10000c3c:	6ba2      	ldr	r2, [r4, #56]	; 0x38
10000c3e:	6be3      	ldr	r3, [r4, #60]	; 0x3c
10000c40:	429a      	cmp	r2, r3
10000c42:	d20c      	bcs.n	10000c5e <prvNotifyQueueSetContainer+0x2e>
10000c44:	6ba2      	ldr	r2, [r4, #56]	; 0x38
10000c46:	4293      	cmp	r3, r2
10000c48:	d80f      	bhi.n	10000c6a <prvNotifyQueueSetContainer+0x3a>
10000c4a:	2500      	movs	r5, #0
10000c4c:	0028      	movs	r0, r5
10000c4e:	b002      	add	sp, #8
10000c50:	bd70      	pop	{r4, r5, r6, pc}
10000c52:	4b17      	ldr	r3, [pc, #92]	; (10000cb0 <prvNotifyQueueSetContainer+0x80>)
10000c54:	4a17      	ldr	r2, [pc, #92]	; (10000cb4 <prvNotifyQueueSetContainer+0x84>)
10000c56:	4918      	ldr	r1, [pc, #96]	; (10000cb8 <prvNotifyQueueSetContainer+0x88>)
10000c58:	4818      	ldr	r0, [pc, #96]	; (10000cbc <prvNotifyQueueSetContainer+0x8c>)
10000c5a:	f002 fcf9 	bl	10003650 <__assert_func>
10000c5e:	4b18      	ldr	r3, [pc, #96]	; (10000cc0 <prvNotifyQueueSetContainer+0x90>)
10000c60:	4a14      	ldr	r2, [pc, #80]	; (10000cb4 <prvNotifyQueueSetContainer+0x84>)
10000c62:	4918      	ldr	r1, [pc, #96]	; (10000cc4 <prvNotifyQueueSetContainer+0x94>)
10000c64:	4815      	ldr	r0, [pc, #84]	; (10000cbc <prvNotifyQueueSetContainer+0x8c>)
10000c66:	f002 fcf3 	bl	10003650 <__assert_func>
10000c6a:	2345      	movs	r3, #69	; 0x45
10000c6c:	5ce6      	ldrb	r6, [r4, r3]
10000c6e:	b276      	sxtb	r6, r6
10000c70:	2200      	movs	r2, #0
10000c72:	a901      	add	r1, sp, #4
10000c74:	0020      	movs	r0, r4
10000c76:	f7ff ff9a 	bl	10000bae <prvCopyDataToQueue>
10000c7a:	0005      	movs	r5, r0
10000c7c:	1c73      	adds	r3, r6, #1
10000c7e:	d006      	beq.n	10000c8e <prvNotifyQueueSetContainer+0x5e>
10000c80:	2e7f      	cmp	r6, #127	; 0x7f
10000c82:	d00f      	beq.n	10000ca4 <prvNotifyQueueSetContainer+0x74>
10000c84:	3601      	adds	r6, #1
10000c86:	b276      	sxtb	r6, r6
10000c88:	2345      	movs	r3, #69	; 0x45
10000c8a:	54e6      	strb	r6, [r4, r3]
10000c8c:	e7de      	b.n	10000c4c <prvNotifyQueueSetContainer+0x1c>
10000c8e:	6a63      	ldr	r3, [r4, #36]	; 0x24
10000c90:	2b00      	cmp	r3, #0
10000c92:	d0db      	beq.n	10000c4c <prvNotifyQueueSetContainer+0x1c>
10000c94:	0020      	movs	r0, r4
10000c96:	3024      	adds	r0, #36	; 0x24
10000c98:	f001 f81c 	bl	10001cd4 <xTaskRemoveFromEventList>
10000c9c:	2800      	cmp	r0, #0
10000c9e:	d0d5      	beq.n	10000c4c <prvNotifyQueueSetContainer+0x1c>
10000ca0:	2501      	movs	r5, #1
10000ca2:	e7d3      	b.n	10000c4c <prvNotifyQueueSetContainer+0x1c>
10000ca4:	4b08      	ldr	r3, [pc, #32]	; (10000cc8 <prvNotifyQueueSetContainer+0x98>)
10000ca6:	4a03      	ldr	r2, [pc, #12]	; (10000cb4 <prvNotifyQueueSetContainer+0x84>)
10000ca8:	4908      	ldr	r1, [pc, #32]	; (10000ccc <prvNotifyQueueSetContainer+0x9c>)
10000caa:	4804      	ldr	r0, [pc, #16]	; (10000cbc <prvNotifyQueueSetContainer+0x8c>)
10000cac:	f002 fcd0 	bl	10003650 <__assert_func>
10000cb0:	10006630 	.word	0x10006630
10000cb4:	10006860 	.word	0x10006860
10000cb8:	00000bd4 	.word	0x00000bd4
10000cbc:	10006644 	.word	0x10006644
10000cc0:	1000667c 	.word	0x1000667c
10000cc4:	00000bd5 	.word	0x00000bd5
10000cc8:	100066c4 	.word	0x100066c4
10000ccc:	00000bf5 	.word	0x00000bf5

10000cd0 <prvCopyDataFromQueue>:
10000cd0:	b510      	push	{r4, lr}
10000cd2:	0003      	movs	r3, r0
10000cd4:	0008      	movs	r0, r1
10000cd6:	6c1a      	ldr	r2, [r3, #64]	; 0x40
10000cd8:	2a00      	cmp	r2, #0
10000cda:	d00a      	beq.n	10000cf2 <prvCopyDataFromQueue+0x22>
10000cdc:	68d9      	ldr	r1, [r3, #12]
10000cde:	1889      	adds	r1, r1, r2
10000ce0:	60d9      	str	r1, [r3, #12]
10000ce2:	689c      	ldr	r4, [r3, #8]
10000ce4:	42a1      	cmp	r1, r4
10000ce6:	d301      	bcc.n	10000cec <prvCopyDataFromQueue+0x1c>
10000ce8:	6819      	ldr	r1, [r3, #0]
10000cea:	60d9      	str	r1, [r3, #12]
10000cec:	68d9      	ldr	r1, [r3, #12]
10000cee:	f005 f911 	bl	10005f14 <__wrap___aeabi_memcpy>
10000cf2:	bd10      	pop	{r4, pc}

10000cf4 <prvUnlockQueue>:
10000cf4:	b570      	push	{r4, r5, r6, lr}
10000cf6:	0005      	movs	r5, r0
10000cf8:	f7ff fc36 	bl	10000568 <vPortEnterCritical>
10000cfc:	2345      	movs	r3, #69	; 0x45
10000cfe:	5cec      	ldrb	r4, [r5, r3]
10000d00:	b264      	sxtb	r4, r4
10000d02:	e00a      	b.n	10000d1a <prvUnlockQueue+0x26>
10000d04:	6a6b      	ldr	r3, [r5, #36]	; 0x24
10000d06:	2b00      	cmp	r3, #0
10000d08:	d017      	beq.n	10000d3a <prvUnlockQueue+0x46>
10000d0a:	0028      	movs	r0, r5
10000d0c:	3024      	adds	r0, #36	; 0x24
10000d0e:	f000 ffe1 	bl	10001cd4 <xTaskRemoveFromEventList>
10000d12:	2800      	cmp	r0, #0
10000d14:	d10e      	bne.n	10000d34 <prvUnlockQueue+0x40>
10000d16:	3c01      	subs	r4, #1
10000d18:	b264      	sxtb	r4, r4
10000d1a:	2c00      	cmp	r4, #0
10000d1c:	dd0d      	ble.n	10000d3a <prvUnlockQueue+0x46>
10000d1e:	6cab      	ldr	r3, [r5, #72]	; 0x48
10000d20:	2b00      	cmp	r3, #0
10000d22:	d0ef      	beq.n	10000d04 <prvUnlockQueue+0x10>
10000d24:	0028      	movs	r0, r5
10000d26:	f7ff ff83 	bl	10000c30 <prvNotifyQueueSetContainer>
10000d2a:	2800      	cmp	r0, #0
10000d2c:	d0f3      	beq.n	10000d16 <prvUnlockQueue+0x22>
10000d2e:	f001 f931 	bl	10001f94 <vTaskMissedYield>
10000d32:	e7f0      	b.n	10000d16 <prvUnlockQueue+0x22>
10000d34:	f001 f92e 	bl	10001f94 <vTaskMissedYield>
10000d38:	e7ed      	b.n	10000d16 <prvUnlockQueue+0x22>
10000d3a:	2345      	movs	r3, #69	; 0x45
10000d3c:	22ff      	movs	r2, #255	; 0xff
10000d3e:	54ea      	strb	r2, [r5, r3]
10000d40:	f7ff fc32 	bl	100005a8 <vPortExitCritical>
10000d44:	f7ff fc10 	bl	10000568 <vPortEnterCritical>
10000d48:	2344      	movs	r3, #68	; 0x44
10000d4a:	5cec      	ldrb	r4, [r5, r3]
10000d4c:	b264      	sxtb	r4, r4
10000d4e:	e001      	b.n	10000d54 <prvUnlockQueue+0x60>
10000d50:	3c01      	subs	r4, #1
10000d52:	b264      	sxtb	r4, r4
10000d54:	2c00      	cmp	r4, #0
10000d56:	dd0b      	ble.n	10000d70 <prvUnlockQueue+0x7c>
10000d58:	692b      	ldr	r3, [r5, #16]
10000d5a:	2b00      	cmp	r3, #0
10000d5c:	d008      	beq.n	10000d70 <prvUnlockQueue+0x7c>
10000d5e:	0028      	movs	r0, r5
10000d60:	3010      	adds	r0, #16
10000d62:	f000 ffb7 	bl	10001cd4 <xTaskRemoveFromEventList>
10000d66:	2800      	cmp	r0, #0
10000d68:	d0f2      	beq.n	10000d50 <prvUnlockQueue+0x5c>
10000d6a:	f001 f913 	bl	10001f94 <vTaskMissedYield>
10000d6e:	e7ef      	b.n	10000d50 <prvUnlockQueue+0x5c>
10000d70:	2344      	movs	r3, #68	; 0x44
10000d72:	22ff      	movs	r2, #255	; 0xff
10000d74:	54ea      	strb	r2, [r5, r3]
10000d76:	f7ff fc17 	bl	100005a8 <vPortExitCritical>
10000d7a:	bd70      	pop	{r4, r5, r6, pc}

10000d7c <xQueueGenericReset>:
10000d7c:	b5f8      	push	{r3, r4, r5, r6, r7, lr}
10000d7e:	0004      	movs	r4, r0
10000d80:	000d      	movs	r5, r1
10000d82:	2800      	cmp	r0, #0
10000d84:	d02b      	beq.n	10000dde <xQueueGenericReset+0x62>
10000d86:	6bc3      	ldr	r3, [r0, #60]	; 0x3c
10000d88:	2b00      	cmp	r3, #0
10000d8a:	d054      	beq.n	10000e36 <xQueueGenericReset+0xba>
10000d8c:	6c01      	ldr	r1, [r0, #64]	; 0x40
10000d8e:	2600      	movs	r6, #0
10000d90:	0c0f      	lsrs	r7, r1, #16
10000d92:	0c1a      	lsrs	r2, r3, #16
10000d94:	2f00      	cmp	r7, #0
10000d96:	d136      	bne.n	10000e06 <xQueueGenericReset+0x8a>
10000d98:	b290      	uxth	r0, r2
10000d9a:	2800      	cmp	r0, #0
10000d9c:	d126      	bne.n	10000dec <xQueueGenericReset+0x70>
10000d9e:	2e00      	cmp	r6, #0
10000da0:	d149      	bne.n	10000e36 <xQueueGenericReset+0xba>
10000da2:	f7ff fbe1 	bl	10000568 <vPortEnterCritical>
10000da6:	6822      	ldr	r2, [r4, #0]
10000da8:	6be3      	ldr	r3, [r4, #60]	; 0x3c
10000daa:	6c20      	ldr	r0, [r4, #64]	; 0x40
10000dac:	0001      	movs	r1, r0
10000dae:	4359      	muls	r1, r3
10000db0:	1851      	adds	r1, r2, r1
10000db2:	60a1      	str	r1, [r4, #8]
10000db4:	2100      	movs	r1, #0
10000db6:	63a1      	str	r1, [r4, #56]	; 0x38
10000db8:	6062      	str	r2, [r4, #4]
10000dba:	3b01      	subs	r3, #1
10000dbc:	4343      	muls	r3, r0
10000dbe:	18d3      	adds	r3, r2, r3
10000dc0:	60e3      	str	r3, [r4, #12]
10000dc2:	23ff      	movs	r3, #255	; 0xff
10000dc4:	2244      	movs	r2, #68	; 0x44
10000dc6:	54a3      	strb	r3, [r4, r2]
10000dc8:	3201      	adds	r2, #1
10000dca:	54a3      	strb	r3, [r4, r2]
10000dcc:	2d00      	cmp	r5, #0
10000dce:	d129      	bne.n	10000e24 <xQueueGenericReset+0xa8>
10000dd0:	6923      	ldr	r3, [r4, #16]
10000dd2:	2b00      	cmp	r3, #0
10000dd4:	d11d      	bne.n	10000e12 <xQueueGenericReset+0x96>
10000dd6:	f7ff fbe7 	bl	100005a8 <vPortExitCritical>
10000dda:	2001      	movs	r0, #1
10000ddc:	bdf8      	pop	{r3, r4, r5, r6, r7, pc}
10000dde:	2188      	movs	r1, #136	; 0x88
10000de0:	4b18      	ldr	r3, [pc, #96]	; (10000e44 <xQueueGenericReset+0xc8>)
10000de2:	4a19      	ldr	r2, [pc, #100]	; (10000e48 <xQueueGenericReset+0xcc>)
10000de4:	0049      	lsls	r1, r1, #1
10000de6:	4819      	ldr	r0, [pc, #100]	; (10000e4c <xQueueGenericReset+0xd0>)
10000de8:	f002 fc32 	bl	10003650 <__assert_func>
10000dec:	1c08      	adds	r0, r1, #0
10000dee:	b289      	uxth	r1, r1
10000df0:	b29b      	uxth	r3, r3
10000df2:	434b      	muls	r3, r1
10000df4:	b280      	uxth	r0, r0
10000df6:	b292      	uxth	r2, r2
10000df8:	4342      	muls	r2, r0
10000dfa:	0c1b      	lsrs	r3, r3, #16
10000dfc:	18d3      	adds	r3, r2, r3
10000dfe:	0c1b      	lsrs	r3, r3, #16
10000e00:	d0cd      	beq.n	10000d9e <xQueueGenericReset+0x22>
10000e02:	2601      	movs	r6, #1
10000e04:	e7cb      	b.n	10000d9e <xQueueGenericReset+0x22>
10000e06:	b292      	uxth	r2, r2
10000e08:	2a00      	cmp	r2, #0
10000e0a:	d1fa      	bne.n	10000e02 <xQueueGenericReset+0x86>
10000e0c:	1c3a      	adds	r2, r7, #0
10000e0e:	1c18      	adds	r0, r3, #0
10000e10:	e7ed      	b.n	10000dee <xQueueGenericReset+0x72>
10000e12:	0020      	movs	r0, r4
10000e14:	3010      	adds	r0, #16
10000e16:	f000 ff5d 	bl	10001cd4 <xTaskRemoveFromEventList>
10000e1a:	2800      	cmp	r0, #0
10000e1c:	d0db      	beq.n	10000dd6 <xQueueGenericReset+0x5a>
10000e1e:	f7ff fb83 	bl	10000528 <vPortYield>
10000e22:	e7d8      	b.n	10000dd6 <xQueueGenericReset+0x5a>
10000e24:	0020      	movs	r0, r4
10000e26:	3010      	adds	r0, #16
10000e28:	f7ff fe6c 	bl	10000b04 <vListInitialise>
10000e2c:	0020      	movs	r0, r4
10000e2e:	3024      	adds	r0, #36	; 0x24
10000e30:	f7ff fe68 	bl	10000b04 <vListInitialise>
10000e34:	e7cf      	b.n	10000dd6 <xQueueGenericReset+0x5a>
10000e36:	2146      	movs	r1, #70	; 0x46
10000e38:	4b05      	ldr	r3, [pc, #20]	; (10000e50 <xQueueGenericReset+0xd4>)
10000e3a:	4a03      	ldr	r2, [pc, #12]	; (10000e48 <xQueueGenericReset+0xcc>)
10000e3c:	31ff      	adds	r1, #255	; 0xff
10000e3e:	4803      	ldr	r0, [pc, #12]	; (10000e4c <xQueueGenericReset+0xd0>)
10000e40:	f002 fc06 	bl	10003650 <__assert_func>
10000e44:	100066e4 	.word	0x100066e4
10000e48:	100068b8 	.word	0x100068b8
10000e4c:	10006644 	.word	0x10006644
10000e50:	100066ec 	.word	0x100066ec

10000e54 <prvInitialiseNewQueue>:
10000e54:	b570      	push	{r4, r5, r6, lr}
10000e56:	001d      	movs	r5, r3
10000e58:	9c04      	ldr	r4, [sp, #16]
10000e5a:	2900      	cmp	r1, #0
10000e5c:	d10b      	bne.n	10000e76 <prvInitialiseNewQueue+0x22>
10000e5e:	6024      	str	r4, [r4, #0]
10000e60:	63e0      	str	r0, [r4, #60]	; 0x3c
10000e62:	6421      	str	r1, [r4, #64]	; 0x40
10000e64:	2101      	movs	r1, #1
10000e66:	0020      	movs	r0, r4
10000e68:	f7ff ff88 	bl	10000d7c <xQueueGenericReset>
10000e6c:	2350      	movs	r3, #80	; 0x50
10000e6e:	54e5      	strb	r5, [r4, r3]
10000e70:	2300      	movs	r3, #0
10000e72:	64a3      	str	r3, [r4, #72]	; 0x48
10000e74:	bd70      	pop	{r4, r5, r6, pc}
10000e76:	6022      	str	r2, [r4, #0]
10000e78:	e7f2      	b.n	10000e60 <prvInitialiseNewQueue+0xc>
	...

10000e7c <xQueueGenericCreate>:
10000e7c:	b5f0      	push	{r4, r5, r6, r7, lr}
10000e7e:	b083      	sub	sp, #12
10000e80:	0004      	movs	r4, r0
10000e82:	000d      	movs	r5, r1
10000e84:	0017      	movs	r7, r2
10000e86:	2800      	cmp	r0, #0
10000e88:	d031      	beq.n	10000eee <xQueueGenericCreate+0x72>
10000e8a:	2000      	movs	r0, #0
10000e8c:	0c0a      	lsrs	r2, r1, #16
10000e8e:	0c23      	lsrs	r3, r4, #16
10000e90:	2a00      	cmp	r2, #0
10000e92:	d127      	bne.n	10000ee4 <xQueueGenericCreate+0x68>
10000e94:	b29a      	uxth	r2, r3
10000e96:	2a00      	cmp	r2, #0
10000e98:	d116      	bne.n	10000ec8 <xQueueGenericCreate+0x4c>
10000e9a:	2800      	cmp	r0, #0
10000e9c:	d127      	bne.n	10000eee <xQueueGenericCreate+0x72>
10000e9e:	0028      	movs	r0, r5
10000ea0:	4360      	muls	r0, r4
10000ea2:	0003      	movs	r3, r0
10000ea4:	3355      	adds	r3, #85	; 0x55
10000ea6:	d822      	bhi.n	10000eee <xQueueGenericCreate+0x72>
10000ea8:	3054      	adds	r0, #84	; 0x54
10000eaa:	f001 fc4b 	bl	10002744 <pvPortMalloc>
10000eae:	1e06      	subs	r6, r0, #0
10000eb0:	d007      	beq.n	10000ec2 <xQueueGenericCreate+0x46>
10000eb2:	0002      	movs	r2, r0
10000eb4:	3254      	adds	r2, #84	; 0x54
10000eb6:	9000      	str	r0, [sp, #0]
10000eb8:	003b      	movs	r3, r7
10000eba:	0029      	movs	r1, r5
10000ebc:	0020      	movs	r0, r4
10000ebe:	f7ff ffc9 	bl	10000e54 <prvInitialiseNewQueue>
10000ec2:	0030      	movs	r0, r6
10000ec4:	b003      	add	sp, #12
10000ec6:	bdf0      	pop	{r4, r5, r6, r7, pc}
10000ec8:	1c1a      	adds	r2, r3, #0
10000eca:	1c2e      	adds	r6, r5, #0
10000ecc:	b2ab      	uxth	r3, r5
10000ece:	b2a1      	uxth	r1, r4
10000ed0:	4359      	muls	r1, r3
10000ed2:	b2b6      	uxth	r6, r6
10000ed4:	b293      	uxth	r3, r2
10000ed6:	4373      	muls	r3, r6
10000ed8:	0c09      	lsrs	r1, r1, #16
10000eda:	185b      	adds	r3, r3, r1
10000edc:	0c1b      	lsrs	r3, r3, #16
10000ede:	d0dc      	beq.n	10000e9a <xQueueGenericCreate+0x1e>
10000ee0:	2001      	movs	r0, #1
10000ee2:	e7da      	b.n	10000e9a <xQueueGenericCreate+0x1e>
10000ee4:	b29b      	uxth	r3, r3
10000ee6:	2b00      	cmp	r3, #0
10000ee8:	d1fa      	bne.n	10000ee0 <xQueueGenericCreate+0x64>
10000eea:	1c26      	adds	r6, r4, #0
10000eec:	e7ee      	b.n	10000ecc <xQueueGenericCreate+0x50>
10000eee:	21e3      	movs	r1, #227	; 0xe3
10000ef0:	4b02      	ldr	r3, [pc, #8]	; (10000efc <xQueueGenericCreate+0x80>)
10000ef2:	4a03      	ldr	r2, [pc, #12]	; (10000f00 <xQueueGenericCreate+0x84>)
10000ef4:	0049      	lsls	r1, r1, #1
10000ef6:	4803      	ldr	r0, [pc, #12]	; (10000f04 <xQueueGenericCreate+0x88>)
10000ef8:	f002 fbaa 	bl	10003650 <__assert_func>
10000efc:	10006710 	.word	0x10006710
10000f00:	100068a4 	.word	0x100068a4
10000f04:	10006644 	.word	0x10006644

10000f08 <xQueueGenericSend>:
10000f08:	b5f0      	push	{r4, r5, r6, r7, lr}
10000f0a:	b085      	sub	sp, #20
10000f0c:	0004      	movs	r4, r0
10000f0e:	000f      	movs	r7, r1
10000f10:	9201      	str	r2, [sp, #4]
10000f12:	001e      	movs	r6, r3
10000f14:	2800      	cmp	r0, #0
10000f16:	d013      	beq.n	10000f40 <xQueueGenericSend+0x38>
10000f18:	2900      	cmp	r1, #0
10000f1a:	d017      	beq.n	10000f4c <xQueueGenericSend+0x44>
10000f1c:	2e02      	cmp	r6, #2
10000f1e:	d102      	bne.n	10000f26 <xQueueGenericSend+0x1e>
10000f20:	6be3      	ldr	r3, [r4, #60]	; 0x3c
10000f22:	2b01      	cmp	r3, #1
10000f24:	d11b      	bne.n	10000f5e <xQueueGenericSend+0x56>
10000f26:	f001 f841 	bl	10001fac <xTaskGetSchedulerState>
10000f2a:	1e05      	subs	r5, r0, #0
10000f2c:	d11e      	bne.n	10000f6c <xQueueGenericSend+0x64>
10000f2e:	9b01      	ldr	r3, [sp, #4]
10000f30:	2b00      	cmp	r3, #0
10000f32:	d05e      	beq.n	10000ff2 <xQueueGenericSend+0xea>
10000f34:	4b4f      	ldr	r3, [pc, #316]	; (10001074 <xQueueGenericSend+0x16c>)
10000f36:	4a50      	ldr	r2, [pc, #320]	; (10001078 <xQueueGenericSend+0x170>)
10000f38:	4950      	ldr	r1, [pc, #320]	; (1000107c <xQueueGenericSend+0x174>)
10000f3a:	4851      	ldr	r0, [pc, #324]	; (10001080 <xQueueGenericSend+0x178>)
10000f3c:	f002 fb88 	bl	10003650 <__assert_func>
10000f40:	4b50      	ldr	r3, [pc, #320]	; (10001084 <xQueueGenericSend+0x17c>)
10000f42:	4a4d      	ldr	r2, [pc, #308]	; (10001078 <xQueueGenericSend+0x170>)
10000f44:	4950      	ldr	r1, [pc, #320]	; (10001088 <xQueueGenericSend+0x180>)
10000f46:	484e      	ldr	r0, [pc, #312]	; (10001080 <xQueueGenericSend+0x178>)
10000f48:	f002 fb82 	bl	10003650 <__assert_func>
10000f4c:	6c03      	ldr	r3, [r0, #64]	; 0x40
10000f4e:	2b00      	cmp	r3, #0
10000f50:	d0e4      	beq.n	10000f1c <xQueueGenericSend+0x14>
10000f52:	4b4e      	ldr	r3, [pc, #312]	; (1000108c <xQueueGenericSend+0x184>)
10000f54:	4a48      	ldr	r2, [pc, #288]	; (10001078 <xQueueGenericSend+0x170>)
10000f56:	494e      	ldr	r1, [pc, #312]	; (10001090 <xQueueGenericSend+0x188>)
10000f58:	4849      	ldr	r0, [pc, #292]	; (10001080 <xQueueGenericSend+0x178>)
10000f5a:	f002 fb79 	bl	10003650 <__assert_func>
10000f5e:	21cc      	movs	r1, #204	; 0xcc
10000f60:	4b4c      	ldr	r3, [pc, #304]	; (10001094 <xQueueGenericSend+0x18c>)
10000f62:	4a45      	ldr	r2, [pc, #276]	; (10001078 <xQueueGenericSend+0x170>)
10000f64:	0089      	lsls	r1, r1, #2
10000f66:	4846      	ldr	r0, [pc, #280]	; (10001080 <xQueueGenericSend+0x178>)
10000f68:	f002 fb72 	bl	10003650 <__assert_func>
10000f6c:	2500      	movs	r5, #0
10000f6e:	e040      	b.n	10000ff2 <xQueueGenericSend+0xea>
10000f70:	6ba5      	ldr	r5, [r4, #56]	; 0x38
10000f72:	0032      	movs	r2, r6
10000f74:	0039      	movs	r1, r7
10000f76:	0020      	movs	r0, r4
10000f78:	f7ff fe19 	bl	10000bae <prvCopyDataToQueue>
10000f7c:	6ca3      	ldr	r3, [r4, #72]	; 0x48
10000f7e:	2b00      	cmp	r3, #0
10000f80:	d010      	beq.n	10000fa4 <xQueueGenericSend+0x9c>
10000f82:	2e02      	cmp	r6, #2
10000f84:	d101      	bne.n	10000f8a <xQueueGenericSend+0x82>
10000f86:	2d00      	cmp	r5, #0
10000f88:	d104      	bne.n	10000f94 <xQueueGenericSend+0x8c>
10000f8a:	0020      	movs	r0, r4
10000f8c:	f7ff fe50 	bl	10000c30 <prvNotifyQueueSetContainer>
10000f90:	2800      	cmp	r0, #0
10000f92:	d104      	bne.n	10000f9e <xQueueGenericSend+0x96>
10000f94:	f7ff fb08 	bl	100005a8 <vPortExitCritical>
10000f98:	2001      	movs	r0, #1
10000f9a:	b005      	add	sp, #20
10000f9c:	bdf0      	pop	{r4, r5, r6, r7, pc}
10000f9e:	f7ff fac3 	bl	10000528 <vPortYield>
10000fa2:	e7f7      	b.n	10000f94 <xQueueGenericSend+0x8c>
10000fa4:	6a63      	ldr	r3, [r4, #36]	; 0x24
10000fa6:	2b00      	cmp	r3, #0
10000fa8:	d104      	bne.n	10000fb4 <xQueueGenericSend+0xac>
10000faa:	2800      	cmp	r0, #0
10000fac:	d0f2      	beq.n	10000f94 <xQueueGenericSend+0x8c>
10000fae:	f7ff fabb 	bl	10000528 <vPortYield>
10000fb2:	e7ef      	b.n	10000f94 <xQueueGenericSend+0x8c>
10000fb4:	0020      	movs	r0, r4
10000fb6:	3024      	adds	r0, #36	; 0x24
10000fb8:	f000 fe8c 	bl	10001cd4 <xTaskRemoveFromEventList>
10000fbc:	2800      	cmp	r0, #0
10000fbe:	d0e9      	beq.n	10000f94 <xQueueGenericSend+0x8c>
10000fc0:	f7ff fab2 	bl	10000528 <vPortYield>
10000fc4:	e7e6      	b.n	10000f94 <xQueueGenericSend+0x8c>
10000fc6:	f7ff faef 	bl	100005a8 <vPortExitCritical>
10000fca:	2000      	movs	r0, #0
10000fcc:	e7e5      	b.n	10000f9a <xQueueGenericSend+0x92>
10000fce:	a802      	add	r0, sp, #8
10000fd0:	f000 ff7c 	bl	10001ecc <vTaskInternalSetTimeOutState>
10000fd4:	3501      	adds	r5, #1
10000fd6:	e019      	b.n	1000100c <xQueueGenericSend+0x104>
10000fd8:	2344      	movs	r3, #68	; 0x44
10000fda:	2200      	movs	r2, #0
10000fdc:	54e2      	strb	r2, [r4, r3]
10000fde:	e020      	b.n	10001022 <xQueueGenericSend+0x11a>
10000fe0:	2345      	movs	r3, #69	; 0x45
10000fe2:	2200      	movs	r2, #0
10000fe4:	54e2      	strb	r2, [r4, r3]
10000fe6:	e021      	b.n	1000102c <xQueueGenericSend+0x124>
10000fe8:	0020      	movs	r0, r4
10000fea:	f7ff fe83 	bl	10000cf4 <prvUnlockQueue>
10000fee:	f000 fccb 	bl	10001988 <xTaskResumeAll>
10000ff2:	f7ff fab9 	bl	10000568 <vPortEnterCritical>
10000ff6:	6ba3      	ldr	r3, [r4, #56]	; 0x38
10000ff8:	6be2      	ldr	r2, [r4, #60]	; 0x3c
10000ffa:	4293      	cmp	r3, r2
10000ffc:	d3b8      	bcc.n	10000f70 <xQueueGenericSend+0x68>
10000ffe:	2e02      	cmp	r6, #2
10001000:	d0b6      	beq.n	10000f70 <xQueueGenericSend+0x68>
10001002:	9b01      	ldr	r3, [sp, #4]
10001004:	2b00      	cmp	r3, #0
10001006:	d0de      	beq.n	10000fc6 <xQueueGenericSend+0xbe>
10001008:	2d00      	cmp	r5, #0
1000100a:	d0e0      	beq.n	10000fce <xQueueGenericSend+0xc6>
1000100c:	f7ff facc 	bl	100005a8 <vPortExitCritical>
10001010:	f000 fbe0 	bl	100017d4 <vTaskSuspendAll>
10001014:	f7ff faa8 	bl	10000568 <vPortEnterCritical>
10001018:	2344      	movs	r3, #68	; 0x44
1000101a:	5ce2      	ldrb	r2, [r4, r3]
1000101c:	b252      	sxtb	r2, r2
1000101e:	1c53      	adds	r3, r2, #1
10001020:	d0da      	beq.n	10000fd8 <xQueueGenericSend+0xd0>
10001022:	2345      	movs	r3, #69	; 0x45
10001024:	5ce2      	ldrb	r2, [r4, r3]
10001026:	b252      	sxtb	r2, r2
10001028:	1c53      	adds	r3, r2, #1
1000102a:	d0d9      	beq.n	10000fe0 <xQueueGenericSend+0xd8>
1000102c:	f7ff fabc 	bl	100005a8 <vPortExitCritical>
10001030:	a901      	add	r1, sp, #4
10001032:	a802      	add	r0, sp, #8
10001034:	f000 ff56 	bl	10001ee4 <xTaskCheckForTimeOut>
10001038:	2800      	cmp	r0, #0
1000103a:	d113      	bne.n	10001064 <xQueueGenericSend+0x15c>
1000103c:	0020      	movs	r0, r4
1000103e:	f7ff fd99 	bl	10000b74 <prvIsQueueFull>
10001042:	2800      	cmp	r0, #0
10001044:	d0d0      	beq.n	10000fe8 <xQueueGenericSend+0xe0>
10001046:	0020      	movs	r0, r4
10001048:	3010      	adds	r0, #16
1000104a:	9901      	ldr	r1, [sp, #4]
1000104c:	f000 fdb4 	bl	10001bb8 <vTaskPlaceOnEventList>
10001050:	0020      	movs	r0, r4
10001052:	f7ff fe4f 	bl	10000cf4 <prvUnlockQueue>
10001056:	f000 fc97 	bl	10001988 <xTaskResumeAll>
1000105a:	2800      	cmp	r0, #0
1000105c:	d1c9      	bne.n	10000ff2 <xQueueGenericSend+0xea>
1000105e:	f7ff fa63 	bl	10000528 <vPortYield>
10001062:	e7c6      	b.n	10000ff2 <xQueueGenericSend+0xea>
10001064:	0020      	movs	r0, r4
10001066:	f7ff fe45 	bl	10000cf4 <prvUnlockQueue>
1000106a:	f000 fc8d 	bl	10001988 <xTaskResumeAll>
1000106e:	2000      	movs	r0, #0
10001070:	e793      	b.n	10000f9a <xQueueGenericSend+0x92>
10001072:	46c0      	nop			; (mov r8, r8)
10001074:	10006590 	.word	0x10006590
10001078:	1000687c 	.word	0x1000687c
1000107c:	00000333 	.word	0x00000333
10001080:	10006644 	.word	0x10006644
10001084:	100066e4 	.word	0x100066e4
10001088:	0000032e 	.word	0x0000032e
1000108c:	1000671c 	.word	0x1000671c
10001090:	0000032f 	.word	0x0000032f
10001094:	10006774 	.word	0x10006774

10001098 <xQueueGenericSendFromISR>:
10001098:	b5f0      	push	{r4, r5, r6, r7, lr}
1000109a:	46d6      	mov	lr, sl
1000109c:	4647      	mov	r7, r8
1000109e:	b580      	push	{r7, lr}
100010a0:	b083      	sub	sp, #12
100010a2:	0004      	movs	r4, r0
100010a4:	000f      	movs	r7, r1
100010a6:	9201      	str	r2, [sp, #4]
100010a8:	001d      	movs	r5, r3
100010aa:	2800      	cmp	r0, #0
100010ac:	d019      	beq.n	100010e2 <xQueueGenericSendFromISR+0x4a>
100010ae:	2900      	cmp	r1, #0
100010b0:	d01d      	beq.n	100010ee <xQueueGenericSendFromISR+0x56>
100010b2:	2d02      	cmp	r5, #2
100010b4:	d102      	bne.n	100010bc <xQueueGenericSendFromISR+0x24>
100010b6:	6be3      	ldr	r3, [r4, #60]	; 0x3c
100010b8:	2b01      	cmp	r3, #1
100010ba:	d121      	bne.n	10001100 <xQueueGenericSendFromISR+0x68>
100010bc:	f7ff fa92 	bl	100005e4 <ulSetInterruptMaskFromISR>
100010c0:	4680      	mov	r8, r0
100010c2:	6ba3      	ldr	r3, [r4, #56]	; 0x38
100010c4:	6be2      	ldr	r2, [r4, #60]	; 0x3c
100010c6:	4293      	cmp	r3, r2
100010c8:	d320      	bcc.n	1000110c <xQueueGenericSendFromISR+0x74>
100010ca:	2d02      	cmp	r5, #2
100010cc:	d01e      	beq.n	1000110c <xQueueGenericSendFromISR+0x74>
100010ce:	2400      	movs	r4, #0
100010d0:	4640      	mov	r0, r8
100010d2:	f7ff fa8b 	bl	100005ec <vClearInterruptMaskFromISR>
100010d6:	0020      	movs	r0, r4
100010d8:	b003      	add	sp, #12
100010da:	bcc0      	pop	{r6, r7}
100010dc:	46ba      	mov	sl, r7
100010de:	46b0      	mov	r8, r6
100010e0:	bdf0      	pop	{r4, r5, r6, r7, pc}
100010e2:	4b2f      	ldr	r3, [pc, #188]	; (100011a0 <xQueueGenericSendFromISR+0x108>)
100010e4:	4a2f      	ldr	r2, [pc, #188]	; (100011a4 <xQueueGenericSendFromISR+0x10c>)
100010e6:	4930      	ldr	r1, [pc, #192]	; (100011a8 <xQueueGenericSendFromISR+0x110>)
100010e8:	4830      	ldr	r0, [pc, #192]	; (100011ac <xQueueGenericSendFromISR+0x114>)
100010ea:	f002 fab1 	bl	10003650 <__assert_func>
100010ee:	6c03      	ldr	r3, [r0, #64]	; 0x40
100010f0:	2b00      	cmp	r3, #0
100010f2:	d0de      	beq.n	100010b2 <xQueueGenericSendFromISR+0x1a>
100010f4:	4b2e      	ldr	r3, [pc, #184]	; (100011b0 <xQueueGenericSendFromISR+0x118>)
100010f6:	4a2b      	ldr	r2, [pc, #172]	; (100011a4 <xQueueGenericSendFromISR+0x10c>)
100010f8:	492e      	ldr	r1, [pc, #184]	; (100011b4 <xQueueGenericSendFromISR+0x11c>)
100010fa:	482c      	ldr	r0, [pc, #176]	; (100011ac <xQueueGenericSendFromISR+0x114>)
100010fc:	f002 faa8 	bl	10003650 <__assert_func>
10001100:	4b2d      	ldr	r3, [pc, #180]	; (100011b8 <xQueueGenericSendFromISR+0x120>)
10001102:	4a28      	ldr	r2, [pc, #160]	; (100011a4 <xQueueGenericSendFromISR+0x10c>)
10001104:	492d      	ldr	r1, [pc, #180]	; (100011bc <xQueueGenericSendFromISR+0x124>)
10001106:	4829      	ldr	r0, [pc, #164]	; (100011ac <xQueueGenericSendFromISR+0x114>)
10001108:	f002 faa2 	bl	10003650 <__assert_func>
1000110c:	2345      	movs	r3, #69	; 0x45
1000110e:	5ce6      	ldrb	r6, [r4, r3]
10001110:	b276      	sxtb	r6, r6
10001112:	6ba3      	ldr	r3, [r4, #56]	; 0x38
10001114:	469a      	mov	sl, r3
10001116:	002a      	movs	r2, r5
10001118:	0039      	movs	r1, r7
1000111a:	0020      	movs	r0, r4
1000111c:	f7ff fd47 	bl	10000bae <prvCopyDataToQueue>
10001120:	1c73      	adds	r3, r6, #1
10001122:	d007      	beq.n	10001134 <xQueueGenericSendFromISR+0x9c>
10001124:	2e7f      	cmp	r6, #127	; 0x7f
10001126:	d02b      	beq.n	10001180 <xQueueGenericSendFromISR+0xe8>
10001128:	3601      	adds	r6, #1
1000112a:	b276      	sxtb	r6, r6
1000112c:	2345      	movs	r3, #69	; 0x45
1000112e:	54e6      	strb	r6, [r4, r3]
10001130:	2401      	movs	r4, #1
10001132:	e7cd      	b.n	100010d0 <xQueueGenericSendFromISR+0x38>
10001134:	6ca3      	ldr	r3, [r4, #72]	; 0x48
10001136:	2b00      	cmp	r3, #0
10001138:	d010      	beq.n	1000115c <xQueueGenericSendFromISR+0xc4>
1000113a:	2d02      	cmp	r5, #2
1000113c:	d102      	bne.n	10001144 <xQueueGenericSendFromISR+0xac>
1000113e:	4653      	mov	r3, sl
10001140:	2b00      	cmp	r3, #0
10001142:	d123      	bne.n	1000118c <xQueueGenericSendFromISR+0xf4>
10001144:	0020      	movs	r0, r4
10001146:	f7ff fd73 	bl	10000c30 <prvNotifyQueueSetContainer>
1000114a:	2800      	cmp	r0, #0
1000114c:	d020      	beq.n	10001190 <xQueueGenericSendFromISR+0xf8>
1000114e:	9a01      	ldr	r2, [sp, #4]
10001150:	2a00      	cmp	r2, #0
10001152:	d01f      	beq.n	10001194 <xQueueGenericSendFromISR+0xfc>
10001154:	2301      	movs	r3, #1
10001156:	6013      	str	r3, [r2, #0]
10001158:	2401      	movs	r4, #1
1000115a:	e7b9      	b.n	100010d0 <xQueueGenericSendFromISR+0x38>
1000115c:	6a63      	ldr	r3, [r4, #36]	; 0x24
1000115e:	2b00      	cmp	r3, #0
10001160:	d101      	bne.n	10001166 <xQueueGenericSendFromISR+0xce>
10001162:	2401      	movs	r4, #1
10001164:	e7b4      	b.n	100010d0 <xQueueGenericSendFromISR+0x38>
10001166:	0020      	movs	r0, r4
10001168:	3024      	adds	r0, #36	; 0x24
1000116a:	f000 fdb3 	bl	10001cd4 <xTaskRemoveFromEventList>
1000116e:	2800      	cmp	r0, #0
10001170:	d012      	beq.n	10001198 <xQueueGenericSendFromISR+0x100>
10001172:	9a01      	ldr	r2, [sp, #4]
10001174:	2a00      	cmp	r2, #0
10001176:	d011      	beq.n	1000119c <xQueueGenericSendFromISR+0x104>
10001178:	2301      	movs	r3, #1
1000117a:	6013      	str	r3, [r2, #0]
1000117c:	2401      	movs	r4, #1
1000117e:	e7a7      	b.n	100010d0 <xQueueGenericSendFromISR+0x38>
10001180:	4b0f      	ldr	r3, [pc, #60]	; (100011c0 <xQueueGenericSendFromISR+0x128>)
10001182:	4a08      	ldr	r2, [pc, #32]	; (100011a4 <xQueueGenericSendFromISR+0x10c>)
10001184:	490f      	ldr	r1, [pc, #60]	; (100011c4 <xQueueGenericSendFromISR+0x12c>)
10001186:	4809      	ldr	r0, [pc, #36]	; (100011ac <xQueueGenericSendFromISR+0x114>)
10001188:	f002 fa62 	bl	10003650 <__assert_func>
1000118c:	2401      	movs	r4, #1
1000118e:	e79f      	b.n	100010d0 <xQueueGenericSendFromISR+0x38>
10001190:	2401      	movs	r4, #1
10001192:	e79d      	b.n	100010d0 <xQueueGenericSendFromISR+0x38>
10001194:	2401      	movs	r4, #1
10001196:	e79b      	b.n	100010d0 <xQueueGenericSendFromISR+0x38>
10001198:	2401      	movs	r4, #1
1000119a:	e799      	b.n	100010d0 <xQueueGenericSendFromISR+0x38>
1000119c:	2401      	movs	r4, #1
1000119e:	e797      	b.n	100010d0 <xQueueGenericSendFromISR+0x38>
100011a0:	100066e4 	.word	0x100066e4
100011a4:	10006844 	.word	0x10006844
100011a8:	00000402 	.word	0x00000402
100011ac:	10006644 	.word	0x10006644
100011b0:	1000671c 	.word	0x1000671c
100011b4:	00000403 	.word	0x00000403
100011b8:	10006774 	.word	0x10006774
100011bc:	00000404 	.word	0x00000404
100011c0:	100066c4 	.word	0x100066c4
100011c4:	0000048d 	.word	0x0000048d

100011c8 <xQueueReceive>:
100011c8:	b5f0      	push	{r4, r5, r6, r7, lr}
100011ca:	b085      	sub	sp, #20
100011cc:	0004      	movs	r4, r0
100011ce:	000f      	movs	r7, r1
100011d0:	9201      	str	r2, [sp, #4]
100011d2:	2800      	cmp	r0, #0
100011d4:	d00e      	beq.n	100011f4 <xQueueReceive+0x2c>
100011d6:	2900      	cmp	r1, #0
100011d8:	d012      	beq.n	10001200 <xQueueReceive+0x38>
100011da:	f000 fee7 	bl	10001fac <xTaskGetSchedulerState>
100011de:	1e06      	subs	r6, r0, #0
100011e0:	d117      	bne.n	10001212 <xQueueReceive+0x4a>
100011e2:	9b01      	ldr	r3, [sp, #4]
100011e4:	2b00      	cmp	r3, #0
100011e6:	d04e      	beq.n	10001286 <xQueueReceive+0xbe>
100011e8:	4b43      	ldr	r3, [pc, #268]	; (100012f8 <xQueueReceive+0x130>)
100011ea:	4a44      	ldr	r2, [pc, #272]	; (100012fc <xQueueReceive+0x134>)
100011ec:	4944      	ldr	r1, [pc, #272]	; (10001300 <xQueueReceive+0x138>)
100011ee:	4845      	ldr	r0, [pc, #276]	; (10001304 <xQueueReceive+0x13c>)
100011f0:	f002 fa2e 	bl	10003650 <__assert_func>
100011f4:	4b44      	ldr	r3, [pc, #272]	; (10001308 <xQueueReceive+0x140>)
100011f6:	4a41      	ldr	r2, [pc, #260]	; (100012fc <xQueueReceive+0x134>)
100011f8:	4944      	ldr	r1, [pc, #272]	; (1000130c <xQueueReceive+0x144>)
100011fa:	4842      	ldr	r0, [pc, #264]	; (10001304 <xQueueReceive+0x13c>)
100011fc:	f002 fa28 	bl	10003650 <__assert_func>
10001200:	6c03      	ldr	r3, [r0, #64]	; 0x40
10001202:	2b00      	cmp	r3, #0
10001204:	d0e9      	beq.n	100011da <xQueueReceive+0x12>
10001206:	4b42      	ldr	r3, [pc, #264]	; (10001310 <xQueueReceive+0x148>)
10001208:	4a3c      	ldr	r2, [pc, #240]	; (100012fc <xQueueReceive+0x134>)
1000120a:	4942      	ldr	r1, [pc, #264]	; (10001314 <xQueueReceive+0x14c>)
1000120c:	483d      	ldr	r0, [pc, #244]	; (10001304 <xQueueReceive+0x13c>)
1000120e:	f002 fa1f 	bl	10003650 <__assert_func>
10001212:	2600      	movs	r6, #0
10001214:	e037      	b.n	10001286 <xQueueReceive+0xbe>
10001216:	0039      	movs	r1, r7
10001218:	0020      	movs	r0, r4
1000121a:	f7ff fd59 	bl	10000cd0 <prvCopyDataFromQueue>
1000121e:	3d01      	subs	r5, #1
10001220:	63a5      	str	r5, [r4, #56]	; 0x38
10001222:	6923      	ldr	r3, [r4, #16]
10001224:	2b00      	cmp	r3, #0
10001226:	d104      	bne.n	10001232 <xQueueReceive+0x6a>
10001228:	f7ff f9be 	bl	100005a8 <vPortExitCritical>
1000122c:	2001      	movs	r0, #1
1000122e:	b005      	add	sp, #20
10001230:	bdf0      	pop	{r4, r5, r6, r7, pc}
10001232:	0020      	movs	r0, r4
10001234:	3010      	adds	r0, #16
10001236:	f000 fd4d 	bl	10001cd4 <xTaskRemoveFromEventList>
1000123a:	2800      	cmp	r0, #0
1000123c:	d0f4      	beq.n	10001228 <xQueueReceive+0x60>
1000123e:	f7ff f973 	bl	10000528 <vPortYield>
10001242:	e7f1      	b.n	10001228 <xQueueReceive+0x60>
10001244:	f7ff f9b0 	bl	100005a8 <vPortExitCritical>
10001248:	2000      	movs	r0, #0
1000124a:	e7f0      	b.n	1000122e <xQueueReceive+0x66>
1000124c:	a802      	add	r0, sp, #8
1000124e:	f000 fe3d 	bl	10001ecc <vTaskInternalSetTimeOutState>
10001252:	3601      	adds	r6, #1
10001254:	e021      	b.n	1000129a <xQueueReceive+0xd2>
10001256:	2344      	movs	r3, #68	; 0x44
10001258:	2200      	movs	r2, #0
1000125a:	54e2      	strb	r2, [r4, r3]
1000125c:	e028      	b.n	100012b0 <xQueueReceive+0xe8>
1000125e:	2345      	movs	r3, #69	; 0x45
10001260:	2200      	movs	r2, #0
10001262:	54e2      	strb	r2, [r4, r3]
10001264:	e029      	b.n	100012ba <xQueueReceive+0xf2>
10001266:	0020      	movs	r0, r4
10001268:	f7ff fd44 	bl	10000cf4 <prvUnlockQueue>
1000126c:	f000 fb8c 	bl	10001988 <xTaskResumeAll>
10001270:	e009      	b.n	10001286 <xQueueReceive+0xbe>
10001272:	0020      	movs	r0, r4
10001274:	f7ff fd3e 	bl	10000cf4 <prvUnlockQueue>
10001278:	f000 fb86 	bl	10001988 <xTaskResumeAll>
1000127c:	0020      	movs	r0, r4
1000127e:	f7ff fc88 	bl	10000b92 <prvIsQueueEmpty>
10001282:	2800      	cmp	r0, #0
10001284:	d135      	bne.n	100012f2 <xQueueReceive+0x12a>
10001286:	f7ff f96f 	bl	10000568 <vPortEnterCritical>
1000128a:	6ba5      	ldr	r5, [r4, #56]	; 0x38
1000128c:	2d00      	cmp	r5, #0
1000128e:	d1c2      	bne.n	10001216 <xQueueReceive+0x4e>
10001290:	9b01      	ldr	r3, [sp, #4]
10001292:	2b00      	cmp	r3, #0
10001294:	d0d6      	beq.n	10001244 <xQueueReceive+0x7c>
10001296:	2e00      	cmp	r6, #0
10001298:	d0d8      	beq.n	1000124c <xQueueReceive+0x84>
1000129a:	f7ff f985 	bl	100005a8 <vPortExitCritical>
1000129e:	f000 fa99 	bl	100017d4 <vTaskSuspendAll>
100012a2:	f7ff f961 	bl	10000568 <vPortEnterCritical>
100012a6:	2344      	movs	r3, #68	; 0x44
100012a8:	5ce3      	ldrb	r3, [r4, r3]
100012aa:	b25b      	sxtb	r3, r3
100012ac:	3301      	adds	r3, #1
100012ae:	d0d2      	beq.n	10001256 <xQueueReceive+0x8e>
100012b0:	2345      	movs	r3, #69	; 0x45
100012b2:	5ce3      	ldrb	r3, [r4, r3]
100012b4:	b25b      	sxtb	r3, r3
100012b6:	3301      	adds	r3, #1
100012b8:	d0d1      	beq.n	1000125e <xQueueReceive+0x96>
100012ba:	f7ff f975 	bl	100005a8 <vPortExitCritical>
100012be:	a901      	add	r1, sp, #4
100012c0:	a802      	add	r0, sp, #8
100012c2:	f000 fe0f 	bl	10001ee4 <xTaskCheckForTimeOut>
100012c6:	2800      	cmp	r0, #0
100012c8:	d1d3      	bne.n	10001272 <xQueueReceive+0xaa>
100012ca:	0020      	movs	r0, r4
100012cc:	f7ff fc61 	bl	10000b92 <prvIsQueueEmpty>
100012d0:	2800      	cmp	r0, #0
100012d2:	d0c8      	beq.n	10001266 <xQueueReceive+0x9e>
100012d4:	0020      	movs	r0, r4
100012d6:	3024      	adds	r0, #36	; 0x24
100012d8:	9901      	ldr	r1, [sp, #4]
100012da:	f000 fc6d 	bl	10001bb8 <vTaskPlaceOnEventList>
100012de:	0020      	movs	r0, r4
100012e0:	f7ff fd08 	bl	10000cf4 <prvUnlockQueue>
100012e4:	f000 fb50 	bl	10001988 <xTaskResumeAll>
100012e8:	2800      	cmp	r0, #0
100012ea:	d1cc      	bne.n	10001286 <xQueueReceive+0xbe>
100012ec:	f7ff f91c 	bl	10000528 <vPortYield>
100012f0:	e7c9      	b.n	10001286 <xQueueReceive+0xbe>
100012f2:	2000      	movs	r0, #0
100012f4:	e79b      	b.n	1000122e <xQueueReceive+0x66>
100012f6:	46c0      	nop			; (mov r8, r8)
100012f8:	10006590 	.word	0x10006590
100012fc:	10006834 	.word	0x10006834
10001300:	0000055a 	.word	0x0000055a
10001304:	10006644 	.word	0x10006644
10001308:	100067c4 	.word	0x100067c4
1000130c:	00000551 	.word	0x00000551
10001310:	100067d0 	.word	0x100067d0
10001314:	00000555 	.word	0x00000555

10001318 <vQueueAddToRegistry>:
10001318:	b570      	push	{r4, r5, r6, lr}
1000131a:	2800      	cmp	r0, #0
1000131c:	d004      	beq.n	10001328 <vQueueAddToRegistry+0x10>
1000131e:	2900      	cmp	r1, #0
10001320:	d00e      	beq.n	10001340 <vQueueAddToRegistry+0x28>
10001322:	2500      	movs	r5, #0
10001324:	2300      	movs	r3, #0
10001326:	e00d      	b.n	10001344 <vQueueAddToRegistry+0x2c>
10001328:	4b0f      	ldr	r3, [pc, #60]	; (10001368 <vQueueAddToRegistry+0x50>)
1000132a:	4a10      	ldr	r2, [pc, #64]	; (1000136c <vQueueAddToRegistry+0x54>)
1000132c:	4910      	ldr	r1, [pc, #64]	; (10001370 <vQueueAddToRegistry+0x58>)
1000132e:	4811      	ldr	r0, [pc, #68]	; (10001374 <vQueueAddToRegistry+0x5c>)
10001330:	f002 f98e 	bl	10003650 <__assert_func>
10001334:	4d10      	ldr	r5, [pc, #64]	; (10001378 <vQueueAddToRegistry+0x60>)
10001336:	192d      	adds	r5, r5, r4
10001338:	2d00      	cmp	r5, #0
1000133a:	d001      	beq.n	10001340 <vQueueAddToRegistry+0x28>
1000133c:	6029      	str	r1, [r5, #0]
1000133e:	6068      	str	r0, [r5, #4]
10001340:	bd70      	pop	{r4, r5, r6, pc}
10001342:	3301      	adds	r3, #1
10001344:	2b07      	cmp	r3, #7
10001346:	d8f7      	bhi.n	10001338 <vQueueAddToRegistry+0x20>
10001348:	00dc      	lsls	r4, r3, #3
1000134a:	4a0b      	ldr	r2, [pc, #44]	; (10001378 <vQueueAddToRegistry+0x60>)
1000134c:	1912      	adds	r2, r2, r4
1000134e:	6852      	ldr	r2, [r2, #4]
10001350:	4282      	cmp	r2, r0
10001352:	d0ef      	beq.n	10001334 <vQueueAddToRegistry+0x1c>
10001354:	2d00      	cmp	r5, #0
10001356:	d1f4      	bne.n	10001342 <vQueueAddToRegistry+0x2a>
10001358:	00da      	lsls	r2, r3, #3
1000135a:	4c07      	ldr	r4, [pc, #28]	; (10001378 <vQueueAddToRegistry+0x60>)
1000135c:	5912      	ldr	r2, [r2, r4]
1000135e:	2a00      	cmp	r2, #0
10001360:	d1ef      	bne.n	10001342 <vQueueAddToRegistry+0x2a>
10001362:	00da      	lsls	r2, r3, #3
10001364:	18a5      	adds	r5, r4, r2
10001366:	e7ec      	b.n	10001342 <vQueueAddToRegistry+0x2a>
10001368:	1000682c 	.word	0x1000682c
1000136c:	10006890 	.word	0x10006890
10001370:	00000ac9 	.word	0x00000ac9
10001374:	10006644 	.word	0x10006644
10001378:	200209ac 	.word	0x200209ac

1000137c <vQueueWaitForMessageRestricted>:
1000137c:	b570      	push	{r4, r5, r6, lr}
1000137e:	0004      	movs	r4, r0
10001380:	000d      	movs	r5, r1
10001382:	0016      	movs	r6, r2
10001384:	f7ff f8f0 	bl	10000568 <vPortEnterCritical>
10001388:	2344      	movs	r3, #68	; 0x44
1000138a:	5ce3      	ldrb	r3, [r4, r3]
1000138c:	b25b      	sxtb	r3, r3
1000138e:	3301      	adds	r3, #1
10001390:	d00d      	beq.n	100013ae <vQueueWaitForMessageRestricted+0x32>
10001392:	2345      	movs	r3, #69	; 0x45
10001394:	5ce3      	ldrb	r3, [r4, r3]
10001396:	b25b      	sxtb	r3, r3
10001398:	3301      	adds	r3, #1
1000139a:	d00c      	beq.n	100013b6 <vQueueWaitForMessageRestricted+0x3a>
1000139c:	f7ff f904 	bl	100005a8 <vPortExitCritical>
100013a0:	6ba3      	ldr	r3, [r4, #56]	; 0x38
100013a2:	2b00      	cmp	r3, #0
100013a4:	d00b      	beq.n	100013be <vQueueWaitForMessageRestricted+0x42>
100013a6:	0020      	movs	r0, r4
100013a8:	f7ff fca4 	bl	10000cf4 <prvUnlockQueue>
100013ac:	bd70      	pop	{r4, r5, r6, pc}
100013ae:	2344      	movs	r3, #68	; 0x44
100013b0:	2200      	movs	r2, #0
100013b2:	54e2      	strb	r2, [r4, r3]
100013b4:	e7ed      	b.n	10001392 <vQueueWaitForMessageRestricted+0x16>
100013b6:	2345      	movs	r3, #69	; 0x45
100013b8:	2200      	movs	r2, #0
100013ba:	54e2      	strb	r2, [r4, r3]
100013bc:	e7ee      	b.n	1000139c <vQueueWaitForMessageRestricted+0x20>
100013be:	0020      	movs	r0, r4
100013c0:	3024      	adds	r0, #36	; 0x24
100013c2:	0032      	movs	r2, r6
100013c4:	0029      	movs	r1, r5
100013c6:	f000 fc55 	bl	10001c74 <vTaskPlaceOnEventListRestricted>
100013ca:	e7ec      	b.n	100013a6 <vQueueWaitForMessageRestricted+0x2a>

100013cc <prvResetNextTaskUnblockTime>:
100013cc:	4b08      	ldr	r3, [pc, #32]	; (100013f0 <prvResetNextTaskUnblockTime+0x24>)
100013ce:	681b      	ldr	r3, [r3, #0]
100013d0:	681b      	ldr	r3, [r3, #0]
100013d2:	2b00      	cmp	r3, #0
100013d4:	d104      	bne.n	100013e0 <prvResetNextTaskUnblockTime+0x14>
100013d6:	4b07      	ldr	r3, [pc, #28]	; (100013f4 <prvResetNextTaskUnblockTime+0x28>)
100013d8:	2201      	movs	r2, #1
100013da:	4252      	negs	r2, r2
100013dc:	601a      	str	r2, [r3, #0]
100013de:	4770      	bx	lr
100013e0:	4b03      	ldr	r3, [pc, #12]	; (100013f0 <prvResetNextTaskUnblockTime+0x24>)
100013e2:	681b      	ldr	r3, [r3, #0]
100013e4:	68db      	ldr	r3, [r3, #12]
100013e6:	681a      	ldr	r2, [r3, #0]
100013e8:	4b02      	ldr	r3, [pc, #8]	; (100013f4 <prvResetNextTaskUnblockTime+0x28>)
100013ea:	601a      	str	r2, [r3, #0]
100013ec:	e7f7      	b.n	100013de <prvResetNextTaskUnblockTime+0x12>
100013ee:	46c0      	nop			; (mov r8, r8)
100013f0:	20000450 	.word	0x20000450
100013f4:	20020984 	.word	0x20020984

100013f8 <prvDeleteTCB>:
100013f8:	b510      	push	{r4, lr}
100013fa:	0004      	movs	r4, r0
100013fc:	6b00      	ldr	r0, [r0, #48]	; 0x30
100013fe:	f001 fa35 	bl	1000286c <vPortFree>
10001402:	0020      	movs	r0, r4
10001404:	f001 fa32 	bl	1000286c <vPortFree>
10001408:	bd10      	pop	{r4, pc}
	...

1000140c <prvInitialiseNewTask>:
1000140c:	b5f0      	push	{r4, r5, r6, r7, lr}
1000140e:	46de      	mov	lr, fp
10001410:	4657      	mov	r7, sl
10001412:	4646      	mov	r6, r8
10001414:	b5c0      	push	{r6, r7, lr}
10001416:	4682      	mov	sl, r0
10001418:	000f      	movs	r7, r1
1000141a:	0014      	movs	r4, r2
1000141c:	469b      	mov	fp, r3
1000141e:	9e08      	ldr	r6, [sp, #32]
10001420:	9d0a      	ldr	r5, [sp, #40]	; 0x28
10001422:	0092      	lsls	r2, r2, #2
10001424:	21a5      	movs	r1, #165	; 0xa5
10001426:	6b28      	ldr	r0, [r5, #48]	; 0x30
10001428:	f004 fd6e 	bl	10005f08 <__wrap_memset>
1000142c:	4b1f      	ldr	r3, [pc, #124]	; (100014ac <prvInitialiseNewTask+0xa0>)
1000142e:	469c      	mov	ip, r3
10001430:	4464      	add	r4, ip
10001432:	00a4      	lsls	r4, r4, #2
10001434:	6b2b      	ldr	r3, [r5, #48]	; 0x30
10001436:	469c      	mov	ip, r3
10001438:	4464      	add	r4, ip
1000143a:	2307      	movs	r3, #7
1000143c:	439c      	bics	r4, r3
1000143e:	46a0      	mov	r8, r4
10001440:	2f00      	cmp	r7, #0
10001442:	d00e      	beq.n	10001462 <prvInitialiseNewTask+0x56>
10001444:	2400      	movs	r4, #0
10001446:	2c0f      	cmp	r4, #15
10001448:	d808      	bhi.n	1000145c <prvInitialiseNewTask+0x50>
1000144a:	5d3a      	ldrb	r2, [r7, r4]
1000144c:	192b      	adds	r3, r5, r4
1000144e:	3334      	adds	r3, #52	; 0x34
10001450:	701a      	strb	r2, [r3, #0]
10001452:	5d3b      	ldrb	r3, [r7, r4]
10001454:	2b00      	cmp	r3, #0
10001456:	d001      	beq.n	1000145c <prvInitialiseNewTask+0x50>
10001458:	3401      	adds	r4, #1
1000145a:	e7f4      	b.n	10001446 <prvInitialiseNewTask+0x3a>
1000145c:	2343      	movs	r3, #67	; 0x43
1000145e:	2200      	movs	r2, #0
10001460:	54ea      	strb	r2, [r5, r3]
10001462:	2e1f      	cmp	r6, #31
10001464:	d81c      	bhi.n	100014a0 <prvInitialiseNewTask+0x94>
10001466:	62ee      	str	r6, [r5, #44]	; 0x2c
10001468:	64ee      	str	r6, [r5, #76]	; 0x4c
1000146a:	1d28      	adds	r0, r5, #4
1000146c:	f7ff fb55 	bl	10000b1a <vListInitialiseItem>
10001470:	0028      	movs	r0, r5
10001472:	3018      	adds	r0, #24
10001474:	f7ff fb51 	bl	10000b1a <vListInitialiseItem>
10001478:	612d      	str	r5, [r5, #16]
1000147a:	2320      	movs	r3, #32
1000147c:	1b9e      	subs	r6, r3, r6
1000147e:	61ae      	str	r6, [r5, #24]
10001480:	626d      	str	r5, [r5, #36]	; 0x24
10001482:	465a      	mov	r2, fp
10001484:	4651      	mov	r1, sl
10001486:	4640      	mov	r0, r8
10001488:	f7ff f83e 	bl	10000508 <pxPortInitialiseStack>
1000148c:	6028      	str	r0, [r5, #0]
1000148e:	9b09      	ldr	r3, [sp, #36]	; 0x24
10001490:	2b00      	cmp	r3, #0
10001492:	d000      	beq.n	10001496 <prvInitialiseNewTask+0x8a>
10001494:	601d      	str	r5, [r3, #0]
10001496:	bce0      	pop	{r5, r6, r7}
10001498:	46bb      	mov	fp, r7
1000149a:	46b2      	mov	sl, r6
1000149c:	46a8      	mov	r8, r5
1000149e:	bdf0      	pop	{r4, r5, r6, r7, pc}
100014a0:	4b03      	ldr	r3, [pc, #12]	; (100014b0 <prvInitialiseNewTask+0xa4>)
100014a2:	4a04      	ldr	r2, [pc, #16]	; (100014b4 <prvInitialiseNewTask+0xa8>)
100014a4:	4904      	ldr	r1, [pc, #16]	; (100014b8 <prvInitialiseNewTask+0xac>)
100014a6:	4805      	ldr	r0, [pc, #20]	; (100014bc <prvInitialiseNewTask+0xb0>)
100014a8:	f002 f8d2 	bl	10003650 <__assert_func>
100014ac:	3fffffff 	.word	0x3fffffff
100014b0:	1000690c 	.word	0x1000690c
100014b4:	10006b70 	.word	0x10006b70
100014b8:	0000039f 	.word	0x0000039f
100014bc:	100068d4 	.word	0x100068d4

100014c0 <prvInitialiseTaskLists>:
100014c0:	b570      	push	{r4, r5, r6, lr}
100014c2:	2400      	movs	r4, #0
100014c4:	e007      	b.n	100014d6 <prvInitialiseTaskLists+0x16>
100014c6:	00a3      	lsls	r3, r4, #2
100014c8:	191b      	adds	r3, r3, r4
100014ca:	0098      	lsls	r0, r3, #2
100014cc:	4b0e      	ldr	r3, [pc, #56]	; (10001508 <prvInitialiseTaskLists+0x48>)
100014ce:	18c0      	adds	r0, r0, r3
100014d0:	f7ff fb18 	bl	10000b04 <vListInitialise>
100014d4:	3401      	adds	r4, #1
100014d6:	2c1f      	cmp	r4, #31
100014d8:	d9f5      	bls.n	100014c6 <prvInitialiseTaskLists+0x6>
100014da:	4d0c      	ldr	r5, [pc, #48]	; (1000150c <prvInitialiseTaskLists+0x4c>)
100014dc:	0028      	movs	r0, r5
100014de:	f7ff fb11 	bl	10000b04 <vListInitialise>
100014e2:	4c0b      	ldr	r4, [pc, #44]	; (10001510 <prvInitialiseTaskLists+0x50>)
100014e4:	0020      	movs	r0, r4
100014e6:	f7ff fb0d 	bl	10000b04 <vListInitialise>
100014ea:	480a      	ldr	r0, [pc, #40]	; (10001514 <prvInitialiseTaskLists+0x54>)
100014ec:	f7ff fb0a 	bl	10000b04 <vListInitialise>
100014f0:	4809      	ldr	r0, [pc, #36]	; (10001518 <prvInitialiseTaskLists+0x58>)
100014f2:	f7ff fb07 	bl	10000b04 <vListInitialise>
100014f6:	4809      	ldr	r0, [pc, #36]	; (1000151c <prvInitialiseTaskLists+0x5c>)
100014f8:	f7ff fb04 	bl	10000b04 <vListInitialise>
100014fc:	4b08      	ldr	r3, [pc, #32]	; (10001520 <prvInitialiseTaskLists+0x60>)
100014fe:	601d      	str	r5, [r3, #0]
10001500:	4b08      	ldr	r3, [pc, #32]	; (10001524 <prvInitialiseTaskLists+0x64>)
10001502:	601c      	str	r4, [r3, #0]
10001504:	bd70      	pop	{r4, r5, r6, pc}
10001506:	46c0      	nop			; (mov r8, r8)
10001508:	20000460 	.word	0x20000460
1000150c:	20020948 	.word	0x20020948
10001510:	2002095c 	.word	0x2002095c
10001514:	20020998 	.word	0x20020998
10001518:	20020a0c 	.word	0x20020a0c
1000151c:	200209f8 	.word	0x200209f8
10001520:	20000450 	.word	0x20000450
10001524:	20000458 	.word	0x20000458

10001528 <prvAddNewTaskToReadyList>:
10001528:	b510      	push	{r4, lr}
1000152a:	0004      	movs	r4, r0
1000152c:	f7ff f81c 	bl	10000568 <vPortEnterCritical>
10001530:	4a28      	ldr	r2, [pc, #160]	; (100015d4 <prvAddNewTaskToReadyList+0xac>)
10001532:	6813      	ldr	r3, [r2, #0]
10001534:	3301      	adds	r3, #1
10001536:	6013      	str	r3, [r2, #0]
10001538:	4b27      	ldr	r3, [pc, #156]	; (100015d8 <prvAddNewTaskToReadyList+0xb0>)
1000153a:	681b      	ldr	r3, [r3, #0]
1000153c:	2b00      	cmp	r3, #0
1000153e:	d00c      	beq.n	1000155a <prvAddNewTaskToReadyList+0x32>
10001540:	4b26      	ldr	r3, [pc, #152]	; (100015dc <prvAddNewTaskToReadyList+0xb4>)
10001542:	681b      	ldr	r3, [r3, #0]
10001544:	2b00      	cmp	r3, #0
10001546:	d10d      	bne.n	10001564 <prvAddNewTaskToReadyList+0x3c>
10001548:	4b23      	ldr	r3, [pc, #140]	; (100015d8 <prvAddNewTaskToReadyList+0xb0>)
1000154a:	681b      	ldr	r3, [r3, #0]
1000154c:	6adb      	ldr	r3, [r3, #44]	; 0x2c
1000154e:	6ae2      	ldr	r2, [r4, #44]	; 0x2c
10001550:	4293      	cmp	r3, r2
10001552:	d807      	bhi.n	10001564 <prvAddNewTaskToReadyList+0x3c>
10001554:	4b20      	ldr	r3, [pc, #128]	; (100015d8 <prvAddNewTaskToReadyList+0xb0>)
10001556:	601c      	str	r4, [r3, #0]
10001558:	e004      	b.n	10001564 <prvAddNewTaskToReadyList+0x3c>
1000155a:	4b1f      	ldr	r3, [pc, #124]	; (100015d8 <prvAddNewTaskToReadyList+0xb0>)
1000155c:	601c      	str	r4, [r3, #0]
1000155e:	6813      	ldr	r3, [r2, #0]
10001560:	2b01      	cmp	r3, #1
10001562:	d031      	beq.n	100015c8 <prvAddNewTaskToReadyList+0xa0>
10001564:	4a1e      	ldr	r2, [pc, #120]	; (100015e0 <prvAddNewTaskToReadyList+0xb8>)
10001566:	6813      	ldr	r3, [r2, #0]
10001568:	3301      	adds	r3, #1
1000156a:	6013      	str	r3, [r2, #0]
1000156c:	6463      	str	r3, [r4, #68]	; 0x44
1000156e:	6ae2      	ldr	r2, [r4, #44]	; 0x2c
10001570:	4b1c      	ldr	r3, [pc, #112]	; (100015e4 <prvAddNewTaskToReadyList+0xbc>)
10001572:	681b      	ldr	r3, [r3, #0]
10001574:	429a      	cmp	r2, r3
10001576:	d901      	bls.n	1000157c <prvAddNewTaskToReadyList+0x54>
10001578:	4b1a      	ldr	r3, [pc, #104]	; (100015e4 <prvAddNewTaskToReadyList+0xbc>)
1000157a:	601a      	str	r2, [r3, #0]
1000157c:	491a      	ldr	r1, [pc, #104]	; (100015e8 <prvAddNewTaskToReadyList+0xc0>)
1000157e:	0093      	lsls	r3, r2, #2
10001580:	189b      	adds	r3, r3, r2
10001582:	009b      	lsls	r3, r3, #2
10001584:	18cb      	adds	r3, r1, r3
10001586:	685b      	ldr	r3, [r3, #4]
10001588:	60a3      	str	r3, [r4, #8]
1000158a:	6898      	ldr	r0, [r3, #8]
1000158c:	60e0      	str	r0, [r4, #12]
1000158e:	1d22      	adds	r2, r4, #4
10001590:	6042      	str	r2, [r0, #4]
10001592:	609a      	str	r2, [r3, #8]
10001594:	6ae0      	ldr	r0, [r4, #44]	; 0x2c
10001596:	0083      	lsls	r3, r0, #2
10001598:	181a      	adds	r2, r3, r0
1000159a:	0092      	lsls	r2, r2, #2
1000159c:	1852      	adds	r2, r2, r1
1000159e:	6162      	str	r2, [r4, #20]
100015a0:	181a      	adds	r2, r3, r0
100015a2:	0092      	lsls	r2, r2, #2
100015a4:	5852      	ldr	r2, [r2, r1]
100015a6:	3201      	adds	r2, #1
100015a8:	181b      	adds	r3, r3, r0
100015aa:	009b      	lsls	r3, r3, #2
100015ac:	505a      	str	r2, [r3, r1]
100015ae:	f7fe fffb 	bl	100005a8 <vPortExitCritical>
100015b2:	4b0a      	ldr	r3, [pc, #40]	; (100015dc <prvAddNewTaskToReadyList+0xb4>)
100015b4:	681b      	ldr	r3, [r3, #0]
100015b6:	2b00      	cmp	r3, #0
100015b8:	d005      	beq.n	100015c6 <prvAddNewTaskToReadyList+0x9e>
100015ba:	4b07      	ldr	r3, [pc, #28]	; (100015d8 <prvAddNewTaskToReadyList+0xb0>)
100015bc:	681b      	ldr	r3, [r3, #0]
100015be:	6ada      	ldr	r2, [r3, #44]	; 0x2c
100015c0:	6ae3      	ldr	r3, [r4, #44]	; 0x2c
100015c2:	429a      	cmp	r2, r3
100015c4:	d303      	bcc.n	100015ce <prvAddNewTaskToReadyList+0xa6>
100015c6:	bd10      	pop	{r4, pc}
100015c8:	f7ff ff7a 	bl	100014c0 <prvInitialiseTaskLists>
100015cc:	e7ca      	b.n	10001564 <prvAddNewTaskToReadyList+0x3c>
100015ce:	f7fe ffab 	bl	10000528 <vPortYield>
100015d2:	e7f8      	b.n	100015c6 <prvAddNewTaskToReadyList+0x9e>
100015d4:	20020908 	.word	0x20020908
100015d8:	20000448 	.word	0x20000448
100015dc:	200209ec 	.word	0x200209ec
100015e0:	20020914 	.word	0x20020914
100015e4:	20020918 	.word	0x20020918
100015e8:	20000460 	.word	0x20000460

100015ec <prvCheckTasksWaitingTermination>:
100015ec:	b510      	push	{r4, lr}
100015ee:	e014      	b.n	1000161a <prvCheckTasksWaitingTermination+0x2e>
100015f0:	f7fe ffba 	bl	10000568 <vPortEnterCritical>
100015f4:	4b0b      	ldr	r3, [pc, #44]	; (10001624 <prvCheckTasksWaitingTermination+0x38>)
100015f6:	68db      	ldr	r3, [r3, #12]
100015f8:	68dc      	ldr	r4, [r3, #12]
100015fa:	1d20      	adds	r0, r4, #4
100015fc:	f7ff faa7 	bl	10000b4e <uxListRemove>
10001600:	4a09      	ldr	r2, [pc, #36]	; (10001628 <prvCheckTasksWaitingTermination+0x3c>)
10001602:	6813      	ldr	r3, [r2, #0]
10001604:	3b01      	subs	r3, #1
10001606:	6013      	str	r3, [r2, #0]
10001608:	4a08      	ldr	r2, [pc, #32]	; (1000162c <prvCheckTasksWaitingTermination+0x40>)
1000160a:	6813      	ldr	r3, [r2, #0]
1000160c:	3b01      	subs	r3, #1
1000160e:	6013      	str	r3, [r2, #0]
10001610:	f7fe ffca 	bl	100005a8 <vPortExitCritical>
10001614:	0020      	movs	r0, r4
10001616:	f7ff feef 	bl	100013f8 <prvDeleteTCB>
1000161a:	4b04      	ldr	r3, [pc, #16]	; (1000162c <prvCheckTasksWaitingTermination+0x40>)
1000161c:	681b      	ldr	r3, [r3, #0]
1000161e:	2b00      	cmp	r3, #0
10001620:	d1e6      	bne.n	100015f0 <prvCheckTasksWaitingTermination+0x4>
10001622:	bd10      	pop	{r4, pc}
10001624:	20020a0c 	.word	0x20020a0c
10001628:	20020908 	.word	0x20020908
1000162c:	2002090c 	.word	0x2002090c

10001630 <prvIdleTask>:
10001630:	b510      	push	{r4, lr}
10001632:	f7ff ffdb 	bl	100015ec <prvCheckTasksWaitingTermination>
10001636:	4b03      	ldr	r3, [pc, #12]	; (10001644 <prvIdleTask+0x14>)
10001638:	681b      	ldr	r3, [r3, #0]
1000163a:	2b01      	cmp	r3, #1
1000163c:	d9f9      	bls.n	10001632 <prvIdleTask+0x2>
1000163e:	f7fe ff73 	bl	10000528 <vPortYield>
10001642:	e7f6      	b.n	10001632 <prvIdleTask+0x2>
10001644:	20000460 	.word	0x20000460

10001648 <prvAddCurrentTaskToDelayedList>:
10001648:	b570      	push	{r4, r5, r6, lr}
1000164a:	0004      	movs	r4, r0
1000164c:	000d      	movs	r5, r1
1000164e:	4b1f      	ldr	r3, [pc, #124]	; (100016cc <prvAddCurrentTaskToDelayedList+0x84>)
10001650:	681e      	ldr	r6, [r3, #0]
10001652:	4b1f      	ldr	r3, [pc, #124]	; (100016d0 <prvAddCurrentTaskToDelayedList+0x88>)
10001654:	6819      	ldr	r1, [r3, #0]
10001656:	226d      	movs	r2, #109	; 0x6d
10001658:	2000      	movs	r0, #0
1000165a:	5488      	strb	r0, [r1, r2]
1000165c:	6818      	ldr	r0, [r3, #0]
1000165e:	3004      	adds	r0, #4
10001660:	f7ff fa75 	bl	10000b4e <uxListRemove>
10001664:	1c63      	adds	r3, r4, #1
10001666:	d00d      	beq.n	10001684 <prvAddCurrentTaskToDelayedList+0x3c>
10001668:	1934      	adds	r4, r6, r4
1000166a:	4b19      	ldr	r3, [pc, #100]	; (100016d0 <prvAddCurrentTaskToDelayedList+0x88>)
1000166c:	681b      	ldr	r3, [r3, #0]
1000166e:	605c      	str	r4, [r3, #4]
10001670:	42a6      	cmp	r6, r4
10001672:	d91d      	bls.n	100016b0 <prvAddCurrentTaskToDelayedList+0x68>
10001674:	4b17      	ldr	r3, [pc, #92]	; (100016d4 <prvAddCurrentTaskToDelayedList+0x8c>)
10001676:	6818      	ldr	r0, [r3, #0]
10001678:	4b15      	ldr	r3, [pc, #84]	; (100016d0 <prvAddCurrentTaskToDelayedList+0x88>)
1000167a:	6819      	ldr	r1, [r3, #0]
1000167c:	3104      	adds	r1, #4
1000167e:	f7ff fa4f 	bl	10000b20 <vListInsert>
10001682:	bd70      	pop	{r4, r5, r6, pc}
10001684:	2d00      	cmp	r5, #0
10001686:	d0ef      	beq.n	10001668 <prvAddCurrentTaskToDelayedList+0x20>
10001688:	4a13      	ldr	r2, [pc, #76]	; (100016d8 <prvAddCurrentTaskToDelayedList+0x90>)
1000168a:	6851      	ldr	r1, [r2, #4]
1000168c:	4b10      	ldr	r3, [pc, #64]	; (100016d0 <prvAddCurrentTaskToDelayedList+0x88>)
1000168e:	6818      	ldr	r0, [r3, #0]
10001690:	6081      	str	r1, [r0, #8]
10001692:	6818      	ldr	r0, [r3, #0]
10001694:	688c      	ldr	r4, [r1, #8]
10001696:	60c4      	str	r4, [r0, #12]
10001698:	6818      	ldr	r0, [r3, #0]
1000169a:	3004      	adds	r0, #4
1000169c:	6060      	str	r0, [r4, #4]
1000169e:	6818      	ldr	r0, [r3, #0]
100016a0:	3004      	adds	r0, #4
100016a2:	6088      	str	r0, [r1, #8]
100016a4:	681b      	ldr	r3, [r3, #0]
100016a6:	615a      	str	r2, [r3, #20]
100016a8:	6813      	ldr	r3, [r2, #0]
100016aa:	3301      	adds	r3, #1
100016ac:	6013      	str	r3, [r2, #0]
100016ae:	e7e8      	b.n	10001682 <prvAddCurrentTaskToDelayedList+0x3a>
100016b0:	4b0a      	ldr	r3, [pc, #40]	; (100016dc <prvAddCurrentTaskToDelayedList+0x94>)
100016b2:	6818      	ldr	r0, [r3, #0]
100016b4:	4b06      	ldr	r3, [pc, #24]	; (100016d0 <prvAddCurrentTaskToDelayedList+0x88>)
100016b6:	6819      	ldr	r1, [r3, #0]
100016b8:	3104      	adds	r1, #4
100016ba:	f7ff fa31 	bl	10000b20 <vListInsert>
100016be:	4b08      	ldr	r3, [pc, #32]	; (100016e0 <prvAddCurrentTaskToDelayedList+0x98>)
100016c0:	681b      	ldr	r3, [r3, #0]
100016c2:	42a3      	cmp	r3, r4
100016c4:	d9dd      	bls.n	10001682 <prvAddCurrentTaskToDelayedList+0x3a>
100016c6:	4b06      	ldr	r3, [pc, #24]	; (100016e0 <prvAddCurrentTaskToDelayedList+0x98>)
100016c8:	601c      	str	r4, [r3, #0]
100016ca:	e7da      	b.n	10001682 <prvAddCurrentTaskToDelayedList+0x3a>
100016cc:	20020a20 	.word	0x20020a20
100016d0:	20000448 	.word	0x20000448
100016d4:	20000458 	.word	0x20000458
100016d8:	200209f8 	.word	0x200209f8
100016dc:	20000450 	.word	0x20000450
100016e0:	20020984 	.word	0x20020984

100016e4 <xTaskCreate>:
100016e4:	b5f0      	push	{r4, r5, r6, r7, lr}
100016e6:	b087      	sub	sp, #28
100016e8:	9004      	str	r0, [sp, #16]
100016ea:	9105      	str	r1, [sp, #20]
100016ec:	0016      	movs	r6, r2
100016ee:	001f      	movs	r7, r3
100016f0:	0090      	lsls	r0, r2, #2
100016f2:	f001 f827 	bl	10002744 <pvPortMalloc>
100016f6:	1e04      	subs	r4, r0, #0
100016f8:	d021      	beq.n	1000173e <xTaskCreate+0x5a>
100016fa:	2070      	movs	r0, #112	; 0x70
100016fc:	f001 f822 	bl	10002744 <pvPortMalloc>
10001700:	1e05      	subs	r5, r0, #0
10001702:	d018      	beq.n	10001736 <xTaskCreate+0x52>
10001704:	2270      	movs	r2, #112	; 0x70
10001706:	2100      	movs	r1, #0
10001708:	f004 fbfe 	bl	10005f08 <__wrap_memset>
1000170c:	632c      	str	r4, [r5, #48]	; 0x30
1000170e:	2d00      	cmp	r5, #0
10001710:	d019      	beq.n	10001746 <xTaskCreate+0x62>
10001712:	2300      	movs	r3, #0
10001714:	9303      	str	r3, [sp, #12]
10001716:	9502      	str	r5, [sp, #8]
10001718:	9b0d      	ldr	r3, [sp, #52]	; 0x34
1000171a:	9301      	str	r3, [sp, #4]
1000171c:	9b0c      	ldr	r3, [sp, #48]	; 0x30
1000171e:	9300      	str	r3, [sp, #0]
10001720:	003b      	movs	r3, r7
10001722:	0032      	movs	r2, r6
10001724:	9905      	ldr	r1, [sp, #20]
10001726:	9804      	ldr	r0, [sp, #16]
10001728:	f7ff fe70 	bl	1000140c <prvInitialiseNewTask>
1000172c:	0028      	movs	r0, r5
1000172e:	f7ff fefb 	bl	10001528 <prvAddNewTaskToReadyList>
10001732:	2001      	movs	r0, #1
10001734:	e005      	b.n	10001742 <xTaskCreate+0x5e>
10001736:	0020      	movs	r0, r4
10001738:	f001 f898 	bl	1000286c <vPortFree>
1000173c:	e7e7      	b.n	1000170e <xTaskCreate+0x2a>
1000173e:	2001      	movs	r0, #1
10001740:	4240      	negs	r0, r0
10001742:	b007      	add	sp, #28
10001744:	bdf0      	pop	{r4, r5, r6, r7, pc}
10001746:	2001      	movs	r0, #1
10001748:	4240      	negs	r0, r0
1000174a:	e7fa      	b.n	10001742 <xTaskCreate+0x5e>

1000174c <vTaskStartScheduler>:
1000174c:	b500      	push	{lr}
1000174e:	b083      	sub	sp, #12
10001750:	2280      	movs	r2, #128	; 0x80
10001752:	4b15      	ldr	r3, [pc, #84]	; (100017a8 <vTaskStartScheduler+0x5c>)
10001754:	9301      	str	r3, [sp, #4]
10001756:	2300      	movs	r3, #0
10001758:	9300      	str	r3, [sp, #0]
1000175a:	0052      	lsls	r2, r2, #1
1000175c:	4913      	ldr	r1, [pc, #76]	; (100017ac <vTaskStartScheduler+0x60>)
1000175e:	4814      	ldr	r0, [pc, #80]	; (100017b0 <vTaskStartScheduler+0x64>)
10001760:	f7ff ffc0 	bl	100016e4 <xTaskCreate>
10001764:	2801      	cmp	r0, #1
10001766:	d007      	beq.n	10001778 <vTaskStartScheduler+0x2c>
10001768:	2801      	cmp	r0, #1
1000176a:	d008      	beq.n	1000177e <vTaskStartScheduler+0x32>
1000176c:	1c43      	adds	r3, r0, #1
1000176e:	d014      	beq.n	1000179a <vTaskStartScheduler+0x4e>
10001770:	4b10      	ldr	r3, [pc, #64]	; (100017b4 <vTaskStartScheduler+0x68>)
10001772:	681b      	ldr	r3, [r3, #0]
10001774:	b003      	add	sp, #12
10001776:	bd00      	pop	{pc}
10001778:	f000 fe54 	bl	10002424 <xTimerCreateTimerTask>
1000177c:	e7f4      	b.n	10001768 <vTaskStartScheduler+0x1c>
1000177e:	b672      	cpsid	i
10001780:	4b0d      	ldr	r3, [pc, #52]	; (100017b8 <vTaskStartScheduler+0x6c>)
10001782:	2201      	movs	r2, #1
10001784:	4252      	negs	r2, r2
10001786:	601a      	str	r2, [r3, #0]
10001788:	4b0c      	ldr	r3, [pc, #48]	; (100017bc <vTaskStartScheduler+0x70>)
1000178a:	3202      	adds	r2, #2
1000178c:	601a      	str	r2, [r3, #0]
1000178e:	4b0c      	ldr	r3, [pc, #48]	; (100017c0 <vTaskStartScheduler+0x74>)
10001790:	2200      	movs	r2, #0
10001792:	601a      	str	r2, [r3, #0]
10001794:	f7fe ff5a 	bl	1000064c <xPortStartScheduler>
10001798:	e7ea      	b.n	10001770 <vTaskStartScheduler+0x24>
1000179a:	4b0a      	ldr	r3, [pc, #40]	; (100017c4 <vTaskStartScheduler+0x78>)
1000179c:	4a0a      	ldr	r2, [pc, #40]	; (100017c8 <vTaskStartScheduler+0x7c>)
1000179e:	490b      	ldr	r1, [pc, #44]	; (100017cc <vTaskStartScheduler+0x80>)
100017a0:	480b      	ldr	r0, [pc, #44]	; (100017d0 <vTaskStartScheduler+0x84>)
100017a2:	f001 ff55 	bl	10003650 <__assert_func>
100017a6:	46c0      	nop			; (mov r8, r8)
100017a8:	20020978 	.word	0x20020978
100017ac:	1000691c 	.word	0x1000691c
100017b0:	10001631 	.word	0x10001631
100017b4:	200001cc 	.word	0x200001cc
100017b8:	20020984 	.word	0x20020984
100017bc:	200209ec 	.word	0x200209ec
100017c0:	20020a20 	.word	0x20020a20
100017c4:	10006924 	.word	0x10006924
100017c8:	10006b5c 	.word	0x10006b5c
100017cc:	00000822 	.word	0x00000822
100017d0:	100068d4 	.word	0x100068d4

100017d4 <vTaskSuspendAll>:
100017d4:	4a02      	ldr	r2, [pc, #8]	; (100017e0 <vTaskSuspendAll+0xc>)
100017d6:	6813      	ldr	r3, [r2, #0]
100017d8:	3301      	adds	r3, #1
100017da:	6013      	str	r3, [r2, #0]
100017dc:	4770      	bx	lr
100017de:	46c0      	nop			; (mov r8, r8)
100017e0:	20020910 	.word	0x20020910

100017e4 <xTaskGetTickCount>:
100017e4:	4b01      	ldr	r3, [pc, #4]	; (100017ec <xTaskGetTickCount+0x8>)
100017e6:	6818      	ldr	r0, [r3, #0]
100017e8:	4770      	bx	lr
100017ea:	46c0      	nop			; (mov r8, r8)
100017ec:	20020a20 	.word	0x20020a20

100017f0 <xTaskIncrementTick>:
100017f0:	b5f8      	push	{r3, r4, r5, r6, r7, lr}
100017f2:	4b56      	ldr	r3, [pc, #344]	; (1000194c <xTaskIncrementTick+0x15c>)
100017f4:	681b      	ldr	r3, [r3, #0]
100017f6:	2b00      	cmp	r3, #0
100017f8:	d000      	beq.n	100017fc <xTaskIncrementTick+0xc>
100017fa:	e09c      	b.n	10001936 <xTaskIncrementTick+0x146>
100017fc:	4b54      	ldr	r3, [pc, #336]	; (10001950 <xTaskIncrementTick+0x160>)
100017fe:	681d      	ldr	r5, [r3, #0]
10001800:	3501      	adds	r5, #1
10001802:	601d      	str	r5, [r3, #0]
10001804:	2d00      	cmp	r5, #0
10001806:	d110      	bne.n	1000182a <xTaskIncrementTick+0x3a>
10001808:	4b52      	ldr	r3, [pc, #328]	; (10001954 <xTaskIncrementTick+0x164>)
1000180a:	681b      	ldr	r3, [r3, #0]
1000180c:	681b      	ldr	r3, [r3, #0]
1000180e:	2b00      	cmp	r3, #0
10001810:	d127      	bne.n	10001862 <xTaskIncrementTick+0x72>
10001812:	4a50      	ldr	r2, [pc, #320]	; (10001954 <xTaskIncrementTick+0x164>)
10001814:	6811      	ldr	r1, [r2, #0]
10001816:	4b50      	ldr	r3, [pc, #320]	; (10001958 <xTaskIncrementTick+0x168>)
10001818:	6818      	ldr	r0, [r3, #0]
1000181a:	6010      	str	r0, [r2, #0]
1000181c:	6019      	str	r1, [r3, #0]
1000181e:	4a4f      	ldr	r2, [pc, #316]	; (1000195c <xTaskIncrementTick+0x16c>)
10001820:	6813      	ldr	r3, [r2, #0]
10001822:	3301      	adds	r3, #1
10001824:	6013      	str	r3, [r2, #0]
10001826:	f7ff fdd1 	bl	100013cc <prvResetNextTaskUnblockTime>
1000182a:	4b4d      	ldr	r3, [pc, #308]	; (10001960 <xTaskIncrementTick+0x170>)
1000182c:	681b      	ldr	r3, [r3, #0]
1000182e:	42ab      	cmp	r3, r5
10001830:	d91d      	bls.n	1000186e <xTaskIncrementTick+0x7e>
10001832:	2600      	movs	r6, #0
10001834:	4b4b      	ldr	r3, [pc, #300]	; (10001964 <xTaskIncrementTick+0x174>)
10001836:	681b      	ldr	r3, [r3, #0]
10001838:	6ada      	ldr	r2, [r3, #44]	; 0x2c
1000183a:	0093      	lsls	r3, r2, #2
1000183c:	189b      	adds	r3, r3, r2
1000183e:	009a      	lsls	r2, r3, #2
10001840:	4b49      	ldr	r3, [pc, #292]	; (10001968 <xTaskIncrementTick+0x178>)
10001842:	58d3      	ldr	r3, [r2, r3]
10001844:	2b01      	cmp	r3, #1
10001846:	d900      	bls.n	1000184a <xTaskIncrementTick+0x5a>
10001848:	2601      	movs	r6, #1
1000184a:	4b48      	ldr	r3, [pc, #288]	; (1000196c <xTaskIncrementTick+0x17c>)
1000184c:	681b      	ldr	r3, [r3, #0]
1000184e:	2b00      	cmp	r3, #0
10001850:	d100      	bne.n	10001854 <xTaskIncrementTick+0x64>
10001852:	e06d      	b.n	10001930 <xTaskIncrementTick+0x140>
10001854:	4b46      	ldr	r3, [pc, #280]	; (10001970 <xTaskIncrementTick+0x180>)
10001856:	681b      	ldr	r3, [r3, #0]
10001858:	2b00      	cmp	r3, #0
1000185a:	d000      	beq.n	1000185e <xTaskIncrementTick+0x6e>
1000185c:	e073      	b.n	10001946 <xTaskIncrementTick+0x156>
1000185e:	0030      	movs	r0, r6
10001860:	bdf8      	pop	{r3, r4, r5, r6, r7, pc}
10001862:	4b44      	ldr	r3, [pc, #272]	; (10001974 <xTaskIncrementTick+0x184>)
10001864:	4a44      	ldr	r2, [pc, #272]	; (10001978 <xTaskIncrementTick+0x188>)
10001866:	4945      	ldr	r1, [pc, #276]	; (1000197c <xTaskIncrementTick+0x18c>)
10001868:	4845      	ldr	r0, [pc, #276]	; (10001980 <xTaskIncrementTick+0x190>)
1000186a:	f001 fef1 	bl	10003650 <__assert_func>
1000186e:	2600      	movs	r6, #0
10001870:	e035      	b.n	100018de <xTaskIncrementTick+0xee>
10001872:	4b3b      	ldr	r3, [pc, #236]	; (10001960 <xTaskIncrementTick+0x170>)
10001874:	2201      	movs	r2, #1
10001876:	4252      	negs	r2, r2
10001878:	601a      	str	r2, [r3, #0]
1000187a:	e7db      	b.n	10001834 <xTaskIncrementTick+0x44>
1000187c:	4b38      	ldr	r3, [pc, #224]	; (10001960 <xTaskIncrementTick+0x170>)
1000187e:	601a      	str	r2, [r3, #0]
10001880:	e7d8      	b.n	10001834 <xTaskIncrementTick+0x44>
10001882:	68d9      	ldr	r1, [r3, #12]
10001884:	6051      	str	r1, [r2, #4]
10001886:	e040      	b.n	1000190a <xTaskIncrementTick+0x11a>
10001888:	6a19      	ldr	r1, [r3, #32]
1000188a:	6051      	str	r1, [r2, #4]
1000188c:	2100      	movs	r1, #0
1000188e:	6299      	str	r1, [r3, #40]	; 0x28
10001890:	6811      	ldr	r1, [r2, #0]
10001892:	3901      	subs	r1, #1
10001894:	6011      	str	r1, [r2, #0]
10001896:	6ada      	ldr	r2, [r3, #44]	; 0x2c
10001898:	493a      	ldr	r1, [pc, #232]	; (10001984 <xTaskIncrementTick+0x194>)
1000189a:	6809      	ldr	r1, [r1, #0]
1000189c:	428a      	cmp	r2, r1
1000189e:	d901      	bls.n	100018a4 <xTaskIncrementTick+0xb4>
100018a0:	4938      	ldr	r1, [pc, #224]	; (10001984 <xTaskIncrementTick+0x194>)
100018a2:	600a      	str	r2, [r1, #0]
100018a4:	4930      	ldr	r1, [pc, #192]	; (10001968 <xTaskIncrementTick+0x178>)
100018a6:	0090      	lsls	r0, r2, #2
100018a8:	1880      	adds	r0, r0, r2
100018aa:	0082      	lsls	r2, r0, #2
100018ac:	188a      	adds	r2, r1, r2
100018ae:	6852      	ldr	r2, [r2, #4]
100018b0:	609a      	str	r2, [r3, #8]
100018b2:	6890      	ldr	r0, [r2, #8]
100018b4:	60d8      	str	r0, [r3, #12]
100018b6:	6044      	str	r4, [r0, #4]
100018b8:	6094      	str	r4, [r2, #8]
100018ba:	6ad8      	ldr	r0, [r3, #44]	; 0x2c
100018bc:	0082      	lsls	r2, r0, #2
100018be:	1817      	adds	r7, r2, r0
100018c0:	00bc      	lsls	r4, r7, #2
100018c2:	1864      	adds	r4, r4, r1
100018c4:	615c      	str	r4, [r3, #20]
100018c6:	00bc      	lsls	r4, r7, #2
100018c8:	5864      	ldr	r4, [r4, r1]
100018ca:	3401      	adds	r4, #1
100018cc:	00b8      	lsls	r0, r7, #2
100018ce:	5044      	str	r4, [r0, r1]
100018d0:	6ada      	ldr	r2, [r3, #44]	; 0x2c
100018d2:	4b24      	ldr	r3, [pc, #144]	; (10001964 <xTaskIncrementTick+0x174>)
100018d4:	681b      	ldr	r3, [r3, #0]
100018d6:	6adb      	ldr	r3, [r3, #44]	; 0x2c
100018d8:	429a      	cmp	r2, r3
100018da:	d300      	bcc.n	100018de <xTaskIncrementTick+0xee>
100018dc:	2601      	movs	r6, #1
100018de:	4b1d      	ldr	r3, [pc, #116]	; (10001954 <xTaskIncrementTick+0x164>)
100018e0:	681b      	ldr	r3, [r3, #0]
100018e2:	681b      	ldr	r3, [r3, #0]
100018e4:	2b00      	cmp	r3, #0
100018e6:	d0c4      	beq.n	10001872 <xTaskIncrementTick+0x82>
100018e8:	4b1a      	ldr	r3, [pc, #104]	; (10001954 <xTaskIncrementTick+0x164>)
100018ea:	681b      	ldr	r3, [r3, #0]
100018ec:	68db      	ldr	r3, [r3, #12]
100018ee:	68db      	ldr	r3, [r3, #12]
100018f0:	685a      	ldr	r2, [r3, #4]
100018f2:	4295      	cmp	r5, r2
100018f4:	d3c2      	bcc.n	1000187c <xTaskIncrementTick+0x8c>
100018f6:	695a      	ldr	r2, [r3, #20]
100018f8:	6898      	ldr	r0, [r3, #8]
100018fa:	68d9      	ldr	r1, [r3, #12]
100018fc:	6081      	str	r1, [r0, #8]
100018fe:	6898      	ldr	r0, [r3, #8]
10001900:	6048      	str	r0, [r1, #4]
10001902:	1d1c      	adds	r4, r3, #4
10001904:	6851      	ldr	r1, [r2, #4]
10001906:	42a1      	cmp	r1, r4
10001908:	d0bb      	beq.n	10001882 <xTaskIncrementTick+0x92>
1000190a:	2100      	movs	r1, #0
1000190c:	6159      	str	r1, [r3, #20]
1000190e:	6811      	ldr	r1, [r2, #0]
10001910:	3901      	subs	r1, #1
10001912:	6011      	str	r1, [r2, #0]
10001914:	6a9a      	ldr	r2, [r3, #40]	; 0x28
10001916:	2a00      	cmp	r2, #0
10001918:	d0bd      	beq.n	10001896 <xTaskIncrementTick+0xa6>
1000191a:	69d8      	ldr	r0, [r3, #28]
1000191c:	6a19      	ldr	r1, [r3, #32]
1000191e:	6081      	str	r1, [r0, #8]
10001920:	69d8      	ldr	r0, [r3, #28]
10001922:	6048      	str	r0, [r1, #4]
10001924:	0019      	movs	r1, r3
10001926:	3118      	adds	r1, #24
10001928:	6850      	ldr	r0, [r2, #4]
1000192a:	4288      	cmp	r0, r1
1000192c:	d1ae      	bne.n	1000188c <xTaskIncrementTick+0x9c>
1000192e:	e7ab      	b.n	10001888 <xTaskIncrementTick+0x98>
10001930:	f7fe fd5c 	bl	100003ec <vApplicationTickHook>
10001934:	e78e      	b.n	10001854 <xTaskIncrementTick+0x64>
10001936:	4a0d      	ldr	r2, [pc, #52]	; (1000196c <xTaskIncrementTick+0x17c>)
10001938:	6813      	ldr	r3, [r2, #0]
1000193a:	3301      	adds	r3, #1
1000193c:	6013      	str	r3, [r2, #0]
1000193e:	f7fe fd55 	bl	100003ec <vApplicationTickHook>
10001942:	2600      	movs	r6, #0
10001944:	e78b      	b.n	1000185e <xTaskIncrementTick+0x6e>
10001946:	2601      	movs	r6, #1
10001948:	e789      	b.n	1000185e <xTaskIncrementTick+0x6e>
1000194a:	46c0      	nop			; (mov r8, r8)
1000194c:	20020910 	.word	0x20020910
10001950:	20020a20 	.word	0x20020a20
10001954:	20000450 	.word	0x20000450
10001958:	20000458 	.word	0x20000458
1000195c:	20020988 	.word	0x20020988
10001960:	20020984 	.word	0x20020984
10001964:	20000448 	.word	0x20000448
10001968:	20000460 	.word	0x20000460
1000196c:	20020994 	.word	0x20020994
10001970:	20020a2c 	.word	0x20020a2c
10001974:	10006938 	.word	0x10006938
10001978:	10006b38 	.word	0x10006b38
1000197c:	00000aa9 	.word	0x00000aa9
10001980:	100068d4 	.word	0x100068d4
10001984:	20020918 	.word	0x20020918

10001988 <xTaskResumeAll>:
10001988:	b510      	push	{r4, lr}
1000198a:	4b4a      	ldr	r3, [pc, #296]	; (10001ab4 <xTaskResumeAll+0x12c>)
1000198c:	681b      	ldr	r3, [r3, #0]
1000198e:	2b00      	cmp	r3, #0
10001990:	d00f      	beq.n	100019b2 <xTaskResumeAll+0x2a>
10001992:	f7fe fde9 	bl	10000568 <vPortEnterCritical>
10001996:	4b47      	ldr	r3, [pc, #284]	; (10001ab4 <xTaskResumeAll+0x12c>)
10001998:	681a      	ldr	r2, [r3, #0]
1000199a:	3a01      	subs	r2, #1
1000199c:	601a      	str	r2, [r3, #0]
1000199e:	681b      	ldr	r3, [r3, #0]
100019a0:	2b00      	cmp	r3, #0
100019a2:	d000      	beq.n	100019a6 <xTaskResumeAll+0x1e>
100019a4:	e080      	b.n	10001aa8 <xTaskResumeAll+0x120>
100019a6:	4b44      	ldr	r3, [pc, #272]	; (10001ab8 <xTaskResumeAll+0x130>)
100019a8:	681b      	ldr	r3, [r3, #0]
100019aa:	2b00      	cmp	r3, #0
100019ac:	d10d      	bne.n	100019ca <xTaskResumeAll+0x42>
100019ae:	2400      	movs	r4, #0
100019b0:	e07b      	b.n	10001aaa <xTaskResumeAll+0x122>
100019b2:	4b42      	ldr	r3, [pc, #264]	; (10001abc <xTaskResumeAll+0x134>)
100019b4:	4a42      	ldr	r2, [pc, #264]	; (10001ac0 <xTaskResumeAll+0x138>)
100019b6:	4943      	ldr	r1, [pc, #268]	; (10001ac4 <xTaskResumeAll+0x13c>)
100019b8:	4843      	ldr	r0, [pc, #268]	; (10001ac8 <xTaskResumeAll+0x140>)
100019ba:	f001 fe49 	bl	10003650 <__assert_func>
100019be:	6a19      	ldr	r1, [r3, #32]
100019c0:	6051      	str	r1, [r2, #4]
100019c2:	e015      	b.n	100019f0 <xTaskResumeAll+0x68>
100019c4:	68d9      	ldr	r1, [r3, #12]
100019c6:	6051      	str	r1, [r2, #4]
100019c8:	e021      	b.n	10001a0e <xTaskResumeAll+0x86>
100019ca:	2300      	movs	r3, #0
100019cc:	4a3f      	ldr	r2, [pc, #252]	; (10001acc <xTaskResumeAll+0x144>)
100019ce:	6812      	ldr	r2, [r2, #0]
100019d0:	2a00      	cmp	r2, #0
100019d2:	d04a      	beq.n	10001a6a <xTaskResumeAll+0xe2>
100019d4:	4b3d      	ldr	r3, [pc, #244]	; (10001acc <xTaskResumeAll+0x144>)
100019d6:	68db      	ldr	r3, [r3, #12]
100019d8:	68db      	ldr	r3, [r3, #12]
100019da:	6a9a      	ldr	r2, [r3, #40]	; 0x28
100019dc:	69d8      	ldr	r0, [r3, #28]
100019de:	6a19      	ldr	r1, [r3, #32]
100019e0:	6081      	str	r1, [r0, #8]
100019e2:	69d8      	ldr	r0, [r3, #28]
100019e4:	6048      	str	r0, [r1, #4]
100019e6:	0019      	movs	r1, r3
100019e8:	3118      	adds	r1, #24
100019ea:	6850      	ldr	r0, [r2, #4]
100019ec:	4288      	cmp	r0, r1
100019ee:	d0e6      	beq.n	100019be <xTaskResumeAll+0x36>
100019f0:	2100      	movs	r1, #0
100019f2:	6299      	str	r1, [r3, #40]	; 0x28
100019f4:	6811      	ldr	r1, [r2, #0]
100019f6:	3901      	subs	r1, #1
100019f8:	6011      	str	r1, [r2, #0]
100019fa:	695a      	ldr	r2, [r3, #20]
100019fc:	6898      	ldr	r0, [r3, #8]
100019fe:	68d9      	ldr	r1, [r3, #12]
10001a00:	6081      	str	r1, [r0, #8]
10001a02:	6898      	ldr	r0, [r3, #8]
10001a04:	6048      	str	r0, [r1, #4]
10001a06:	1d1c      	adds	r4, r3, #4
10001a08:	6851      	ldr	r1, [r2, #4]
10001a0a:	42a1      	cmp	r1, r4
10001a0c:	d0da      	beq.n	100019c4 <xTaskResumeAll+0x3c>
10001a0e:	2100      	movs	r1, #0
10001a10:	6159      	str	r1, [r3, #20]
10001a12:	6811      	ldr	r1, [r2, #0]
10001a14:	3901      	subs	r1, #1
10001a16:	6011      	str	r1, [r2, #0]
10001a18:	6ad9      	ldr	r1, [r3, #44]	; 0x2c
10001a1a:	4a2d      	ldr	r2, [pc, #180]	; (10001ad0 <xTaskResumeAll+0x148>)
10001a1c:	6812      	ldr	r2, [r2, #0]
10001a1e:	4291      	cmp	r1, r2
10001a20:	d901      	bls.n	10001a26 <xTaskResumeAll+0x9e>
10001a22:	4a2b      	ldr	r2, [pc, #172]	; (10001ad0 <xTaskResumeAll+0x148>)
10001a24:	6011      	str	r1, [r2, #0]
10001a26:	482b      	ldr	r0, [pc, #172]	; (10001ad4 <xTaskResumeAll+0x14c>)
10001a28:	008a      	lsls	r2, r1, #2
10001a2a:	1852      	adds	r2, r2, r1
10001a2c:	0092      	lsls	r2, r2, #2
10001a2e:	1882      	adds	r2, r0, r2
10001a30:	6852      	ldr	r2, [r2, #4]
10001a32:	609a      	str	r2, [r3, #8]
10001a34:	6891      	ldr	r1, [r2, #8]
10001a36:	60d9      	str	r1, [r3, #12]
10001a38:	604c      	str	r4, [r1, #4]
10001a3a:	6094      	str	r4, [r2, #8]
10001a3c:	6adc      	ldr	r4, [r3, #44]	; 0x2c
10001a3e:	00a2      	lsls	r2, r4, #2
10001a40:	1911      	adds	r1, r2, r4
10001a42:	0089      	lsls	r1, r1, #2
10001a44:	1809      	adds	r1, r1, r0
10001a46:	6159      	str	r1, [r3, #20]
10001a48:	1911      	adds	r1, r2, r4
10001a4a:	0089      	lsls	r1, r1, #2
10001a4c:	5809      	ldr	r1, [r1, r0]
10001a4e:	3101      	adds	r1, #1
10001a50:	1912      	adds	r2, r2, r4
10001a52:	0092      	lsls	r2, r2, #2
10001a54:	5011      	str	r1, [r2, r0]
10001a56:	4a20      	ldr	r2, [pc, #128]	; (10001ad8 <xTaskResumeAll+0x150>)
10001a58:	6812      	ldr	r2, [r2, #0]
10001a5a:	6ad2      	ldr	r2, [r2, #44]	; 0x2c
10001a5c:	6ad9      	ldr	r1, [r3, #44]	; 0x2c
10001a5e:	4291      	cmp	r1, r2
10001a60:	d3b4      	bcc.n	100019cc <xTaskResumeAll+0x44>
10001a62:	4a1e      	ldr	r2, [pc, #120]	; (10001adc <xTaskResumeAll+0x154>)
10001a64:	2101      	movs	r1, #1
10001a66:	6011      	str	r1, [r2, #0]
10001a68:	e7b0      	b.n	100019cc <xTaskResumeAll+0x44>
10001a6a:	2b00      	cmp	r3, #0
10001a6c:	d001      	beq.n	10001a72 <xTaskResumeAll+0xea>
10001a6e:	f7ff fcad 	bl	100013cc <prvResetNextTaskUnblockTime>
10001a72:	4b1b      	ldr	r3, [pc, #108]	; (10001ae0 <xTaskResumeAll+0x158>)
10001a74:	681c      	ldr	r4, [r3, #0]
10001a76:	2c00      	cmp	r4, #0
10001a78:	d10a      	bne.n	10001a90 <xTaskResumeAll+0x108>
10001a7a:	4b18      	ldr	r3, [pc, #96]	; (10001adc <xTaskResumeAll+0x154>)
10001a7c:	681c      	ldr	r4, [r3, #0]
10001a7e:	2c00      	cmp	r4, #0
10001a80:	d013      	beq.n	10001aaa <xTaskResumeAll+0x122>
10001a82:	f7fe fd51 	bl	10000528 <vPortYield>
10001a86:	2401      	movs	r4, #1
10001a88:	e00f      	b.n	10001aaa <xTaskResumeAll+0x122>
10001a8a:	3c01      	subs	r4, #1
10001a8c:	2c00      	cmp	r4, #0
10001a8e:	d007      	beq.n	10001aa0 <xTaskResumeAll+0x118>
10001a90:	f7ff feae 	bl	100017f0 <xTaskIncrementTick>
10001a94:	2800      	cmp	r0, #0
10001a96:	d0f8      	beq.n	10001a8a <xTaskResumeAll+0x102>
10001a98:	4b10      	ldr	r3, [pc, #64]	; (10001adc <xTaskResumeAll+0x154>)
10001a9a:	2201      	movs	r2, #1
10001a9c:	601a      	str	r2, [r3, #0]
10001a9e:	e7f4      	b.n	10001a8a <xTaskResumeAll+0x102>
10001aa0:	4b0f      	ldr	r3, [pc, #60]	; (10001ae0 <xTaskResumeAll+0x158>)
10001aa2:	2200      	movs	r2, #0
10001aa4:	601a      	str	r2, [r3, #0]
10001aa6:	e7e8      	b.n	10001a7a <xTaskResumeAll+0xf2>
10001aa8:	2400      	movs	r4, #0
10001aaa:	f7fe fd7d 	bl	100005a8 <vPortExitCritical>
10001aae:	0020      	movs	r0, r4
10001ab0:	bd10      	pop	{r4, pc}
10001ab2:	46c0      	nop			; (mov r8, r8)
10001ab4:	20020910 	.word	0x20020910
10001ab8:	20020908 	.word	0x20020908
10001abc:	100069b0 	.word	0x100069b0
10001ac0:	10006b4c 	.word	0x10006b4c
10001ac4:	00000895 	.word	0x00000895
10001ac8:	100068d4 	.word	0x100068d4
10001acc:	20020998 	.word	0x20020998
10001ad0:	20020918 	.word	0x20020918
10001ad4:	20000460 	.word	0x20000460
10001ad8:	20000448 	.word	0x20000448
10001adc:	20020a2c 	.word	0x20020a2c
10001ae0:	20020994 	.word	0x20020994

10001ae4 <vTaskSwitchContext>:
10001ae4:	b570      	push	{r4, r5, r6, lr}
10001ae6:	4b2a      	ldr	r3, [pc, #168]	; (10001b90 <vTaskSwitchContext+0xac>)
10001ae8:	681b      	ldr	r3, [r3, #0]
10001aea:	2b00      	cmp	r3, #0
10001aec:	d003      	beq.n	10001af6 <vTaskSwitchContext+0x12>
10001aee:	4b29      	ldr	r3, [pc, #164]	; (10001b94 <vTaskSwitchContext+0xb0>)
10001af0:	2201      	movs	r2, #1
10001af2:	601a      	str	r2, [r3, #0]
10001af4:	bd70      	pop	{r4, r5, r6, pc}
10001af6:	4b27      	ldr	r3, [pc, #156]	; (10001b94 <vTaskSwitchContext+0xb0>)
10001af8:	2200      	movs	r2, #0
10001afa:	601a      	str	r2, [r3, #0]
10001afc:	4b26      	ldr	r3, [pc, #152]	; (10001b98 <vTaskSwitchContext+0xb4>)
10001afe:	681b      	ldr	r3, [r3, #0]
10001b00:	6b1b      	ldr	r3, [r3, #48]	; 0x30
10001b02:	4a26      	ldr	r2, [pc, #152]	; (10001b9c <vTaskSwitchContext+0xb8>)
10001b04:	6819      	ldr	r1, [r3, #0]
10001b06:	4291      	cmp	r1, r2
10001b08:	d102      	bne.n	10001b10 <vTaskSwitchContext+0x2c>
10001b0a:	6859      	ldr	r1, [r3, #4]
10001b0c:	4291      	cmp	r1, r2
10001b0e:	d012      	beq.n	10001b36 <vTaskSwitchContext+0x52>
10001b10:	4b21      	ldr	r3, [pc, #132]	; (10001b98 <vTaskSwitchContext+0xb4>)
10001b12:	6818      	ldr	r0, [r3, #0]
10001b14:	6819      	ldr	r1, [r3, #0]
10001b16:	3134      	adds	r1, #52	; 0x34
10001b18:	f7fe fc70 	bl	100003fc <vApplicationStackOverflowHook>
10001b1c:	4b20      	ldr	r3, [pc, #128]	; (10001ba0 <vTaskSwitchContext+0xbc>)
10001b1e:	681b      	ldr	r3, [r3, #0]
10001b20:	009a      	lsls	r2, r3, #2
10001b22:	18d2      	adds	r2, r2, r3
10001b24:	0091      	lsls	r1, r2, #2
10001b26:	4a1f      	ldr	r2, [pc, #124]	; (10001ba4 <vTaskSwitchContext+0xc0>)
10001b28:	588a      	ldr	r2, [r1, r2]
10001b2a:	2a00      	cmp	r2, #0
10001b2c:	d111      	bne.n	10001b52 <vTaskSwitchContext+0x6e>
10001b2e:	2b00      	cmp	r3, #0
10001b30:	d009      	beq.n	10001b46 <vTaskSwitchContext+0x62>
10001b32:	3b01      	subs	r3, #1
10001b34:	e7f4      	b.n	10001b20 <vTaskSwitchContext+0x3c>
10001b36:	6899      	ldr	r1, [r3, #8]
10001b38:	4291      	cmp	r1, r2
10001b3a:	d1e9      	bne.n	10001b10 <vTaskSwitchContext+0x2c>
10001b3c:	68da      	ldr	r2, [r3, #12]
10001b3e:	4b17      	ldr	r3, [pc, #92]	; (10001b9c <vTaskSwitchContext+0xb8>)
10001b40:	429a      	cmp	r2, r3
10001b42:	d1e5      	bne.n	10001b10 <vTaskSwitchContext+0x2c>
10001b44:	e7ea      	b.n	10001b1c <vTaskSwitchContext+0x38>
10001b46:	4b18      	ldr	r3, [pc, #96]	; (10001ba8 <vTaskSwitchContext+0xc4>)
10001b48:	4a18      	ldr	r2, [pc, #96]	; (10001bac <vTaskSwitchContext+0xc8>)
10001b4a:	4919      	ldr	r1, [pc, #100]	; (10001bb0 <vTaskSwitchContext+0xcc>)
10001b4c:	4819      	ldr	r0, [pc, #100]	; (10001bb4 <vTaskSwitchContext+0xd0>)
10001b4e:	f001 fd7f 	bl	10003650 <__assert_func>
10001b52:	4d14      	ldr	r5, [pc, #80]	; (10001ba4 <vTaskSwitchContext+0xc0>)
10001b54:	0099      	lsls	r1, r3, #2
10001b56:	18ca      	adds	r2, r1, r3
10001b58:	0090      	lsls	r0, r2, #2
10001b5a:	1828      	adds	r0, r5, r0
10001b5c:	6842      	ldr	r2, [r0, #4]
10001b5e:	6854      	ldr	r4, [r2, #4]
10001b60:	6044      	str	r4, [r0, #4]
10001b62:	18c9      	adds	r1, r1, r3
10001b64:	008a      	lsls	r2, r1, #2
10001b66:	3208      	adds	r2, #8
10001b68:	1952      	adds	r2, r2, r5
10001b6a:	4294      	cmp	r4, r2
10001b6c:	d00b      	beq.n	10001b86 <vTaskSwitchContext+0xa2>
10001b6e:	009a      	lsls	r2, r3, #2
10001b70:	18d2      	adds	r2, r2, r3
10001b72:	0091      	lsls	r1, r2, #2
10001b74:	4a0b      	ldr	r2, [pc, #44]	; (10001ba4 <vTaskSwitchContext+0xc0>)
10001b76:	1852      	adds	r2, r2, r1
10001b78:	6852      	ldr	r2, [r2, #4]
10001b7a:	68d1      	ldr	r1, [r2, #12]
10001b7c:	4a06      	ldr	r2, [pc, #24]	; (10001b98 <vTaskSwitchContext+0xb4>)
10001b7e:	6011      	str	r1, [r2, #0]
10001b80:	4a07      	ldr	r2, [pc, #28]	; (10001ba0 <vTaskSwitchContext+0xbc>)
10001b82:	6013      	str	r3, [r2, #0]
10001b84:	e7b6      	b.n	10001af4 <vTaskSwitchContext+0x10>
10001b86:	6860      	ldr	r0, [r4, #4]
10001b88:	0089      	lsls	r1, r1, #2
10001b8a:	186a      	adds	r2, r5, r1
10001b8c:	6050      	str	r0, [r2, #4]
10001b8e:	e7ee      	b.n	10001b6e <vTaskSwitchContext+0x8a>
10001b90:	20020910 	.word	0x20020910
10001b94:	20020a2c 	.word	0x20020a2c
10001b98:	20000448 	.word	0x20000448
10001b9c:	a5a5a5a5 	.word	0xa5a5a5a5
10001ba0:	20020918 	.word	0x20020918
10001ba4:	20000460 	.word	0x20000460
10001ba8:	100069c8 	.word	0x100069c8
10001bac:	10006b24 	.word	0x10006b24
10001bb0:	00000be4 	.word	0x00000be4
10001bb4:	100068d4 	.word	0x100068d4

10001bb8 <vTaskPlaceOnEventList>:
10001bb8:	b510      	push	{r4, lr}
10001bba:	000c      	movs	r4, r1
10001bbc:	2800      	cmp	r0, #0
10001bbe:	d009      	beq.n	10001bd4 <vTaskPlaceOnEventList+0x1c>
10001bc0:	4b07      	ldr	r3, [pc, #28]	; (10001be0 <vTaskPlaceOnEventList+0x28>)
10001bc2:	6819      	ldr	r1, [r3, #0]
10001bc4:	3118      	adds	r1, #24
10001bc6:	f7fe ffab 	bl	10000b20 <vListInsert>
10001bca:	2101      	movs	r1, #1
10001bcc:	0020      	movs	r0, r4
10001bce:	f7ff fd3b 	bl	10001648 <prvAddCurrentTaskToDelayedList>
10001bd2:	bd10      	pop	{r4, pc}
10001bd4:	4b03      	ldr	r3, [pc, #12]	; (10001be4 <vTaskPlaceOnEventList+0x2c>)
10001bd6:	4a04      	ldr	r2, [pc, #16]	; (10001be8 <vTaskPlaceOnEventList+0x30>)
10001bd8:	4904      	ldr	r1, [pc, #16]	; (10001bec <vTaskPlaceOnEventList+0x34>)
10001bda:	4805      	ldr	r0, [pc, #20]	; (10001bf0 <vTaskPlaceOnEventList+0x38>)
10001bdc:	f001 fd38 	bl	10003650 <__assert_func>
10001be0:	20000448 	.word	0x20000448
10001be4:	100069d8 	.word	0x100069d8
10001be8:	10006b0c 	.word	0x10006b0c
10001bec:	00000bfe 	.word	0x00000bfe
10001bf0:	100068d4 	.word	0x100068d4

10001bf4 <vTaskPlaceOnUnorderedEventList>:
10001bf4:	b570      	push	{r4, r5, r6, lr}
10001bf6:	0003      	movs	r3, r0
10001bf8:	0010      	movs	r0, r2
10001bfa:	2b00      	cmp	r3, #0
10001bfc:	d01e      	beq.n	10001c3c <vTaskPlaceOnUnorderedEventList+0x48>
10001bfe:	4a15      	ldr	r2, [pc, #84]	; (10001c54 <vTaskPlaceOnUnorderedEventList+0x60>)
10001c00:	6812      	ldr	r2, [r2, #0]
10001c02:	2a00      	cmp	r2, #0
10001c04:	d020      	beq.n	10001c48 <vTaskPlaceOnUnorderedEventList+0x54>
10001c06:	4c14      	ldr	r4, [pc, #80]	; (10001c58 <vTaskPlaceOnUnorderedEventList+0x64>)
10001c08:	6825      	ldr	r5, [r4, #0]
10001c0a:	2280      	movs	r2, #128	; 0x80
10001c0c:	0612      	lsls	r2, r2, #24
10001c0e:	4311      	orrs	r1, r2
10001c10:	61a9      	str	r1, [r5, #24]
10001c12:	685a      	ldr	r2, [r3, #4]
10001c14:	6821      	ldr	r1, [r4, #0]
10001c16:	61ca      	str	r2, [r1, #28]
10001c18:	6821      	ldr	r1, [r4, #0]
10001c1a:	6895      	ldr	r5, [r2, #8]
10001c1c:	620d      	str	r5, [r1, #32]
10001c1e:	6821      	ldr	r1, [r4, #0]
10001c20:	3118      	adds	r1, #24
10001c22:	6069      	str	r1, [r5, #4]
10001c24:	6821      	ldr	r1, [r4, #0]
10001c26:	3118      	adds	r1, #24
10001c28:	6091      	str	r1, [r2, #8]
10001c2a:	6822      	ldr	r2, [r4, #0]
10001c2c:	6293      	str	r3, [r2, #40]	; 0x28
10001c2e:	681a      	ldr	r2, [r3, #0]
10001c30:	3201      	adds	r2, #1
10001c32:	601a      	str	r2, [r3, #0]
10001c34:	2101      	movs	r1, #1
10001c36:	f7ff fd07 	bl	10001648 <prvAddCurrentTaskToDelayedList>
10001c3a:	bd70      	pop	{r4, r5, r6, pc}
10001c3c:	4b07      	ldr	r3, [pc, #28]	; (10001c5c <vTaskPlaceOnUnorderedEventList+0x68>)
10001c3e:	4a08      	ldr	r2, [pc, #32]	; (10001c60 <vTaskPlaceOnUnorderedEventList+0x6c>)
10001c40:	4908      	ldr	r1, [pc, #32]	; (10001c64 <vTaskPlaceOnUnorderedEventList+0x70>)
10001c42:	4809      	ldr	r0, [pc, #36]	; (10001c68 <vTaskPlaceOnUnorderedEventList+0x74>)
10001c44:	f001 fd04 	bl	10003650 <__assert_func>
10001c48:	4b08      	ldr	r3, [pc, #32]	; (10001c6c <vTaskPlaceOnUnorderedEventList+0x78>)
10001c4a:	4a05      	ldr	r2, [pc, #20]	; (10001c60 <vTaskPlaceOnUnorderedEventList+0x6c>)
10001c4c:	4908      	ldr	r1, [pc, #32]	; (10001c70 <vTaskPlaceOnUnorderedEventList+0x7c>)
10001c4e:	4806      	ldr	r0, [pc, #24]	; (10001c68 <vTaskPlaceOnUnorderedEventList+0x74>)
10001c50:	f001 fcfe 	bl	10003650 <__assert_func>
10001c54:	20020910 	.word	0x20020910
10001c58:	20000448 	.word	0x20000448
10001c5c:	100069d8 	.word	0x100069d8
10001c60:	10006aec 	.word	0x10006aec
10001c64:	00000c18 	.word	0x00000c18
10001c68:	100068d4 	.word	0x100068d4
10001c6c:	100069e4 	.word	0x100069e4
10001c70:	00000c1c 	.word	0x00000c1c

10001c74 <vTaskPlaceOnEventListRestricted>:
10001c74:	b570      	push	{r4, r5, r6, lr}
10001c76:	0003      	movs	r3, r0
10001c78:	0008      	movs	r0, r1
10001c7a:	0011      	movs	r1, r2
10001c7c:	2b00      	cmp	r3, #0
10001c7e:	d018      	beq.n	10001cb2 <vTaskPlaceOnEventListRestricted+0x3e>
10001c80:	685a      	ldr	r2, [r3, #4]
10001c82:	4c0f      	ldr	r4, [pc, #60]	; (10001cc0 <vTaskPlaceOnEventListRestricted+0x4c>)
10001c84:	6825      	ldr	r5, [r4, #0]
10001c86:	61ea      	str	r2, [r5, #28]
10001c88:	6825      	ldr	r5, [r4, #0]
10001c8a:	6896      	ldr	r6, [r2, #8]
10001c8c:	622e      	str	r6, [r5, #32]
10001c8e:	6825      	ldr	r5, [r4, #0]
10001c90:	3518      	adds	r5, #24
10001c92:	6075      	str	r5, [r6, #4]
10001c94:	6825      	ldr	r5, [r4, #0]
10001c96:	3518      	adds	r5, #24
10001c98:	6095      	str	r5, [r2, #8]
10001c9a:	6822      	ldr	r2, [r4, #0]
10001c9c:	6293      	str	r3, [r2, #40]	; 0x28
10001c9e:	681a      	ldr	r2, [r3, #0]
10001ca0:	3201      	adds	r2, #1
10001ca2:	601a      	str	r2, [r3, #0]
10001ca4:	2900      	cmp	r1, #0
10001ca6:	d001      	beq.n	10001cac <vTaskPlaceOnEventListRestricted+0x38>
10001ca8:	2001      	movs	r0, #1
10001caa:	4240      	negs	r0, r0
10001cac:	f7ff fccc 	bl	10001648 <prvAddCurrentTaskToDelayedList>
10001cb0:	bd70      	pop	{r4, r5, r6, pc}
10001cb2:	4b04      	ldr	r3, [pc, #16]	; (10001cc4 <vTaskPlaceOnEventListRestricted+0x50>)
10001cb4:	4a04      	ldr	r2, [pc, #16]	; (10001cc8 <vTaskPlaceOnEventListRestricted+0x54>)
10001cb6:	4905      	ldr	r1, [pc, #20]	; (10001ccc <vTaskPlaceOnEventListRestricted+0x58>)
10001cb8:	4805      	ldr	r0, [pc, #20]	; (10001cd0 <vTaskPlaceOnEventListRestricted+0x5c>)
10001cba:	f001 fcc9 	bl	10003650 <__assert_func>
10001cbe:	46c0      	nop			; (mov r8, r8)
10001cc0:	20000448 	.word	0x20000448
10001cc4:	100069d8 	.word	0x100069d8
10001cc8:	10006acc 	.word	0x10006acc
10001ccc:	00000c34 	.word	0x00000c34
10001cd0:	100068d4 	.word	0x100068d4

10001cd4 <xTaskRemoveFromEventList>:
10001cd4:	b510      	push	{r4, lr}
10001cd6:	68c3      	ldr	r3, [r0, #12]
10001cd8:	68db      	ldr	r3, [r3, #12]
10001cda:	2b00      	cmp	r3, #0
10001cdc:	d04c      	beq.n	10001d78 <xTaskRemoveFromEventList+0xa4>
10001cde:	6a9a      	ldr	r2, [r3, #40]	; 0x28
10001ce0:	69d8      	ldr	r0, [r3, #28]
10001ce2:	6a19      	ldr	r1, [r3, #32]
10001ce4:	6081      	str	r1, [r0, #8]
10001ce6:	69d8      	ldr	r0, [r3, #28]
10001ce8:	6048      	str	r0, [r1, #4]
10001cea:	0018      	movs	r0, r3
10001cec:	3018      	adds	r0, #24
10001cee:	6851      	ldr	r1, [r2, #4]
10001cf0:	4281      	cmp	r1, r0
10001cf2:	d047      	beq.n	10001d84 <xTaskRemoveFromEventList+0xb0>
10001cf4:	2100      	movs	r1, #0
10001cf6:	6299      	str	r1, [r3, #40]	; 0x28
10001cf8:	6811      	ldr	r1, [r2, #0]
10001cfa:	3901      	subs	r1, #1
10001cfc:	6011      	str	r1, [r2, #0]
10001cfe:	4a2b      	ldr	r2, [pc, #172]	; (10001dac <xTaskRemoveFromEventList+0xd8>)
10001d00:	6812      	ldr	r2, [r2, #0]
10001d02:	2a00      	cmp	r2, #0
10001d04:	d144      	bne.n	10001d90 <xTaskRemoveFromEventList+0xbc>
10001d06:	695a      	ldr	r2, [r3, #20]
10001d08:	6898      	ldr	r0, [r3, #8]
10001d0a:	68d9      	ldr	r1, [r3, #12]
10001d0c:	6081      	str	r1, [r0, #8]
10001d0e:	6898      	ldr	r0, [r3, #8]
10001d10:	6048      	str	r0, [r1, #4]
10001d12:	1d1c      	adds	r4, r3, #4
10001d14:	6851      	ldr	r1, [r2, #4]
10001d16:	42a1      	cmp	r1, r4
10001d18:	d037      	beq.n	10001d8a <xTaskRemoveFromEventList+0xb6>
10001d1a:	2100      	movs	r1, #0
10001d1c:	6159      	str	r1, [r3, #20]
10001d1e:	6811      	ldr	r1, [r2, #0]
10001d20:	3901      	subs	r1, #1
10001d22:	6011      	str	r1, [r2, #0]
10001d24:	6ad9      	ldr	r1, [r3, #44]	; 0x2c
10001d26:	4a22      	ldr	r2, [pc, #136]	; (10001db0 <xTaskRemoveFromEventList+0xdc>)
10001d28:	6812      	ldr	r2, [r2, #0]
10001d2a:	4291      	cmp	r1, r2
10001d2c:	d901      	bls.n	10001d32 <xTaskRemoveFromEventList+0x5e>
10001d2e:	4a20      	ldr	r2, [pc, #128]	; (10001db0 <xTaskRemoveFromEventList+0xdc>)
10001d30:	6011      	str	r1, [r2, #0]
10001d32:	4820      	ldr	r0, [pc, #128]	; (10001db4 <xTaskRemoveFromEventList+0xe0>)
10001d34:	008a      	lsls	r2, r1, #2
10001d36:	1852      	adds	r2, r2, r1
10001d38:	0092      	lsls	r2, r2, #2
10001d3a:	1882      	adds	r2, r0, r2
10001d3c:	6852      	ldr	r2, [r2, #4]
10001d3e:	609a      	str	r2, [r3, #8]
10001d40:	6891      	ldr	r1, [r2, #8]
10001d42:	60d9      	str	r1, [r3, #12]
10001d44:	604c      	str	r4, [r1, #4]
10001d46:	6094      	str	r4, [r2, #8]
10001d48:	6adc      	ldr	r4, [r3, #44]	; 0x2c
10001d4a:	00a2      	lsls	r2, r4, #2
10001d4c:	1911      	adds	r1, r2, r4
10001d4e:	0089      	lsls	r1, r1, #2
10001d50:	1809      	adds	r1, r1, r0
10001d52:	6159      	str	r1, [r3, #20]
10001d54:	1911      	adds	r1, r2, r4
10001d56:	0089      	lsls	r1, r1, #2
10001d58:	5809      	ldr	r1, [r1, r0]
10001d5a:	3101      	adds	r1, #1
10001d5c:	1912      	adds	r2, r2, r4
10001d5e:	0092      	lsls	r2, r2, #2
10001d60:	5011      	str	r1, [r2, r0]
10001d62:	6ada      	ldr	r2, [r3, #44]	; 0x2c
10001d64:	4b14      	ldr	r3, [pc, #80]	; (10001db8 <xTaskRemoveFromEventList+0xe4>)
10001d66:	681b      	ldr	r3, [r3, #0]
10001d68:	6adb      	ldr	r3, [r3, #44]	; 0x2c
10001d6a:	429a      	cmp	r2, r3
10001d6c:	d91c      	bls.n	10001da8 <xTaskRemoveFromEventList+0xd4>
10001d6e:	4b13      	ldr	r3, [pc, #76]	; (10001dbc <xTaskRemoveFromEventList+0xe8>)
10001d70:	2201      	movs	r2, #1
10001d72:	601a      	str	r2, [r3, #0]
10001d74:	2001      	movs	r0, #1
10001d76:	e018      	b.n	10001daa <xTaskRemoveFromEventList+0xd6>
10001d78:	4b11      	ldr	r3, [pc, #68]	; (10001dc0 <xTaskRemoveFromEventList+0xec>)
10001d7a:	4a12      	ldr	r2, [pc, #72]	; (10001dc4 <xTaskRemoveFromEventList+0xf0>)
10001d7c:	4912      	ldr	r1, [pc, #72]	; (10001dc8 <xTaskRemoveFromEventList+0xf4>)
10001d7e:	4813      	ldr	r0, [pc, #76]	; (10001dcc <xTaskRemoveFromEventList+0xf8>)
10001d80:	f001 fc66 	bl	10003650 <__assert_func>
10001d84:	6a19      	ldr	r1, [r3, #32]
10001d86:	6051      	str	r1, [r2, #4]
10001d88:	e7b4      	b.n	10001cf4 <xTaskRemoveFromEventList+0x20>
10001d8a:	68d9      	ldr	r1, [r3, #12]
10001d8c:	6051      	str	r1, [r2, #4]
10001d8e:	e7c4      	b.n	10001d1a <xTaskRemoveFromEventList+0x46>
10001d90:	4a0f      	ldr	r2, [pc, #60]	; (10001dd0 <xTaskRemoveFromEventList+0xfc>)
10001d92:	6851      	ldr	r1, [r2, #4]
10001d94:	61d9      	str	r1, [r3, #28]
10001d96:	688c      	ldr	r4, [r1, #8]
10001d98:	621c      	str	r4, [r3, #32]
10001d9a:	6060      	str	r0, [r4, #4]
10001d9c:	6088      	str	r0, [r1, #8]
10001d9e:	629a      	str	r2, [r3, #40]	; 0x28
10001da0:	6811      	ldr	r1, [r2, #0]
10001da2:	3101      	adds	r1, #1
10001da4:	6011      	str	r1, [r2, #0]
10001da6:	e7dc      	b.n	10001d62 <xTaskRemoveFromEventList+0x8e>
10001da8:	2000      	movs	r0, #0
10001daa:	bd10      	pop	{r4, pc}
10001dac:	20020910 	.word	0x20020910
10001db0:	20020918 	.word	0x20020918
10001db4:	20000460 	.word	0x20000460
10001db8:	20000448 	.word	0x20000448
10001dbc:	20020a2c 	.word	0x20020a2c
10001dc0:	10006a00 	.word	0x10006a00
10001dc4:	10006ab0 	.word	0x10006ab0
10001dc8:	00000c64 	.word	0x00000c64
10001dcc:	100068d4 	.word	0x100068d4
10001dd0:	20020998 	.word	0x20020998

10001dd4 <vTaskRemoveFromUnorderedEventList>:
10001dd4:	b510      	push	{r4, lr}
10001dd6:	4b32      	ldr	r3, [pc, #200]	; (10001ea0 <vTaskRemoveFromUnorderedEventList+0xcc>)
10001dd8:	681b      	ldr	r3, [r3, #0]
10001dda:	2b00      	cmp	r3, #0
10001ddc:	d04d      	beq.n	10001e7a <vTaskRemoveFromUnorderedEventList+0xa6>
10001dde:	2380      	movs	r3, #128	; 0x80
10001de0:	061b      	lsls	r3, r3, #24
10001de2:	4319      	orrs	r1, r3
10001de4:	6001      	str	r1, [r0, #0]
10001de6:	68c3      	ldr	r3, [r0, #12]
10001de8:	2b00      	cmp	r3, #0
10001dea:	d04c      	beq.n	10001e86 <vTaskRemoveFromUnorderedEventList+0xb2>
10001dec:	6902      	ldr	r2, [r0, #16]
10001dee:	6841      	ldr	r1, [r0, #4]
10001df0:	6884      	ldr	r4, [r0, #8]
10001df2:	608c      	str	r4, [r1, #8]
10001df4:	6881      	ldr	r1, [r0, #8]
10001df6:	6844      	ldr	r4, [r0, #4]
10001df8:	604c      	str	r4, [r1, #4]
10001dfa:	6851      	ldr	r1, [r2, #4]
10001dfc:	4281      	cmp	r1, r0
10001dfe:	d048      	beq.n	10001e92 <vTaskRemoveFromUnorderedEventList+0xbe>
10001e00:	2100      	movs	r1, #0
10001e02:	6101      	str	r1, [r0, #16]
10001e04:	6811      	ldr	r1, [r2, #0]
10001e06:	3901      	subs	r1, #1
10001e08:	6011      	str	r1, [r2, #0]
10001e0a:	695a      	ldr	r2, [r3, #20]
10001e0c:	6898      	ldr	r0, [r3, #8]
10001e0e:	68d9      	ldr	r1, [r3, #12]
10001e10:	6081      	str	r1, [r0, #8]
10001e12:	6898      	ldr	r0, [r3, #8]
10001e14:	6048      	str	r0, [r1, #4]
10001e16:	1d1c      	adds	r4, r3, #4
10001e18:	6851      	ldr	r1, [r2, #4]
10001e1a:	42a1      	cmp	r1, r4
10001e1c:	d03c      	beq.n	10001e98 <vTaskRemoveFromUnorderedEventList+0xc4>
10001e1e:	2100      	movs	r1, #0
10001e20:	6159      	str	r1, [r3, #20]
10001e22:	6811      	ldr	r1, [r2, #0]
10001e24:	3901      	subs	r1, #1
10001e26:	6011      	str	r1, [r2, #0]
10001e28:	6ad9      	ldr	r1, [r3, #44]	; 0x2c
10001e2a:	4a1e      	ldr	r2, [pc, #120]	; (10001ea4 <vTaskRemoveFromUnorderedEventList+0xd0>)
10001e2c:	6812      	ldr	r2, [r2, #0]
10001e2e:	4291      	cmp	r1, r2
10001e30:	d901      	bls.n	10001e36 <vTaskRemoveFromUnorderedEventList+0x62>
10001e32:	4a1c      	ldr	r2, [pc, #112]	; (10001ea4 <vTaskRemoveFromUnorderedEventList+0xd0>)
10001e34:	6011      	str	r1, [r2, #0]
10001e36:	481c      	ldr	r0, [pc, #112]	; (10001ea8 <vTaskRemoveFromUnorderedEventList+0xd4>)
10001e38:	008a      	lsls	r2, r1, #2
10001e3a:	1852      	adds	r2, r2, r1
10001e3c:	0092      	lsls	r2, r2, #2
10001e3e:	1882      	adds	r2, r0, r2
10001e40:	6852      	ldr	r2, [r2, #4]
10001e42:	609a      	str	r2, [r3, #8]
10001e44:	6891      	ldr	r1, [r2, #8]
10001e46:	60d9      	str	r1, [r3, #12]
10001e48:	604c      	str	r4, [r1, #4]
10001e4a:	6094      	str	r4, [r2, #8]
10001e4c:	6adc      	ldr	r4, [r3, #44]	; 0x2c
10001e4e:	00a2      	lsls	r2, r4, #2
10001e50:	1911      	adds	r1, r2, r4
10001e52:	0089      	lsls	r1, r1, #2
10001e54:	1809      	adds	r1, r1, r0
10001e56:	6159      	str	r1, [r3, #20]
10001e58:	1911      	adds	r1, r2, r4
10001e5a:	0089      	lsls	r1, r1, #2
10001e5c:	5809      	ldr	r1, [r1, r0]
10001e5e:	3101      	adds	r1, #1
10001e60:	1912      	adds	r2, r2, r4
10001e62:	0092      	lsls	r2, r2, #2
10001e64:	5011      	str	r1, [r2, r0]
10001e66:	6ada      	ldr	r2, [r3, #44]	; 0x2c
10001e68:	4b10      	ldr	r3, [pc, #64]	; (10001eac <vTaskRemoveFromUnorderedEventList+0xd8>)
10001e6a:	681b      	ldr	r3, [r3, #0]
10001e6c:	6adb      	ldr	r3, [r3, #44]	; 0x2c
10001e6e:	429a      	cmp	r2, r3
10001e70:	d902      	bls.n	10001e78 <vTaskRemoveFromUnorderedEventList+0xa4>
10001e72:	4b0f      	ldr	r3, [pc, #60]	; (10001eb0 <vTaskRemoveFromUnorderedEventList+0xdc>)
10001e74:	2201      	movs	r2, #1
10001e76:	601a      	str	r2, [r3, #0]
10001e78:	bd10      	pop	{r4, pc}
10001e7a:	4b0e      	ldr	r3, [pc, #56]	; (10001eb4 <vTaskRemoveFromUnorderedEventList+0xe0>)
10001e7c:	4a0e      	ldr	r2, [pc, #56]	; (10001eb8 <vTaskRemoveFromUnorderedEventList+0xe4>)
10001e7e:	490f      	ldr	r1, [pc, #60]	; (10001ebc <vTaskRemoveFromUnorderedEventList+0xe8>)
10001e80:	480f      	ldr	r0, [pc, #60]	; (10001ec0 <vTaskRemoveFromUnorderedEventList+0xec>)
10001e82:	f001 fbe5 	bl	10003650 <__assert_func>
10001e86:	4b0f      	ldr	r3, [pc, #60]	; (10001ec4 <vTaskRemoveFromUnorderedEventList+0xf0>)
10001e88:	4a0b      	ldr	r2, [pc, #44]	; (10001eb8 <vTaskRemoveFromUnorderedEventList+0xe4>)
10001e8a:	490f      	ldr	r1, [pc, #60]	; (10001ec8 <vTaskRemoveFromUnorderedEventList+0xf4>)
10001e8c:	480c      	ldr	r0, [pc, #48]	; (10001ec0 <vTaskRemoveFromUnorderedEventList+0xec>)
10001e8e:	f001 fbdf 	bl	10003650 <__assert_func>
10001e92:	6881      	ldr	r1, [r0, #8]
10001e94:	6051      	str	r1, [r2, #4]
10001e96:	e7b3      	b.n	10001e00 <vTaskRemoveFromUnorderedEventList+0x2c>
10001e98:	68d9      	ldr	r1, [r3, #12]
10001e9a:	6051      	str	r1, [r2, #4]
10001e9c:	e7bf      	b.n	10001e1e <vTaskRemoveFromUnorderedEventList+0x4a>
10001e9e:	46c0      	nop			; (mov r8, r8)
10001ea0:	20020910 	.word	0x20020910
10001ea4:	20020918 	.word	0x20020918
10001ea8:	20000460 	.word	0x20000460
10001eac:	20000448 	.word	0x20000448
10001eb0:	20020a2c 	.word	0x20020a2c
10001eb4:	10006a10 	.word	0x10006a10
10001eb8:	10006a8c 	.word	0x10006a8c
10001ebc:	00000c9c 	.word	0x00000c9c
10001ec0:	100068d4 	.word	0x100068d4
10001ec4:	10006a00 	.word	0x10006a00
10001ec8:	00000ca4 	.word	0x00000ca4

10001ecc <vTaskInternalSetTimeOutState>:
10001ecc:	4b03      	ldr	r3, [pc, #12]	; (10001edc <vTaskInternalSetTimeOutState+0x10>)
10001ece:	681b      	ldr	r3, [r3, #0]
10001ed0:	6003      	str	r3, [r0, #0]
10001ed2:	4b03      	ldr	r3, [pc, #12]	; (10001ee0 <vTaskInternalSetTimeOutState+0x14>)
10001ed4:	681b      	ldr	r3, [r3, #0]
10001ed6:	6043      	str	r3, [r0, #4]
10001ed8:	4770      	bx	lr
10001eda:	46c0      	nop			; (mov r8, r8)
10001edc:	20020988 	.word	0x20020988
10001ee0:	20020a20 	.word	0x20020a20

10001ee4 <xTaskCheckForTimeOut>:
10001ee4:	b5f8      	push	{r3, r4, r5, r6, r7, lr}
10001ee6:	0004      	movs	r4, r0
10001ee8:	000d      	movs	r5, r1
10001eea:	2800      	cmp	r0, #0
10001eec:	d017      	beq.n	10001f1e <xTaskCheckForTimeOut+0x3a>
10001eee:	2900      	cmp	r1, #0
10001ef0:	d01b      	beq.n	10001f2a <xTaskCheckForTimeOut+0x46>
10001ef2:	f7fe fb39 	bl	10000568 <vPortEnterCritical>
10001ef6:	4b1f      	ldr	r3, [pc, #124]	; (10001f74 <xTaskCheckForTimeOut+0x90>)
10001ef8:	681a      	ldr	r2, [r3, #0]
10001efa:	6863      	ldr	r3, [r4, #4]
10001efc:	1ad6      	subs	r6, r2, r3
10001efe:	491e      	ldr	r1, [pc, #120]	; (10001f78 <xTaskCheckForTimeOut+0x94>)
10001f00:	6808      	ldr	r0, [r1, #0]
10001f02:	216d      	movs	r1, #109	; 0x6d
10001f04:	5c41      	ldrb	r1, [r0, r1]
10001f06:	2900      	cmp	r1, #0
10001f08:	d016      	beq.n	10001f38 <xTaskCheckForTimeOut+0x54>
10001f0a:	4b1b      	ldr	r3, [pc, #108]	; (10001f78 <xTaskCheckForTimeOut+0x94>)
10001f0c:	681a      	ldr	r2, [r3, #0]
10001f0e:	236d      	movs	r3, #109	; 0x6d
10001f10:	2100      	movs	r1, #0
10001f12:	54d1      	strb	r1, [r2, r3]
10001f14:	2401      	movs	r4, #1
10001f16:	f7fe fb47 	bl	100005a8 <vPortExitCritical>
10001f1a:	0020      	movs	r0, r4
10001f1c:	bdf8      	pop	{r3, r4, r5, r6, r7, pc}
10001f1e:	4b17      	ldr	r3, [pc, #92]	; (10001f7c <xTaskCheckForTimeOut+0x98>)
10001f20:	4a17      	ldr	r2, [pc, #92]	; (10001f80 <xTaskCheckForTimeOut+0x9c>)
10001f22:	4918      	ldr	r1, [pc, #96]	; (10001f84 <xTaskCheckForTimeOut+0xa0>)
10001f24:	4818      	ldr	r0, [pc, #96]	; (10001f88 <xTaskCheckForTimeOut+0xa4>)
10001f26:	f001 fb93 	bl	10003650 <__assert_func>
10001f2a:	21ce      	movs	r1, #206	; 0xce
10001f2c:	4b17      	ldr	r3, [pc, #92]	; (10001f8c <xTaskCheckForTimeOut+0xa8>)
10001f2e:	4a14      	ldr	r2, [pc, #80]	; (10001f80 <xTaskCheckForTimeOut+0x9c>)
10001f30:	0109      	lsls	r1, r1, #4
10001f32:	4815      	ldr	r0, [pc, #84]	; (10001f88 <xTaskCheckForTimeOut+0xa4>)
10001f34:	f001 fb8c 	bl	10003650 <__assert_func>
10001f38:	6829      	ldr	r1, [r5, #0]
10001f3a:	1c48      	adds	r0, r1, #1
10001f3c:	d018      	beq.n	10001f70 <xTaskCheckForTimeOut+0x8c>
10001f3e:	4814      	ldr	r0, [pc, #80]	; (10001f90 <xTaskCheckForTimeOut+0xac>)
10001f40:	6800      	ldr	r0, [r0, #0]
10001f42:	6827      	ldr	r7, [r4, #0]
10001f44:	4287      	cmp	r7, r0
10001f46:	d005      	beq.n	10001f54 <xTaskCheckForTimeOut+0x70>
10001f48:	4293      	cmp	r3, r2
10001f4a:	d803      	bhi.n	10001f54 <xTaskCheckForTimeOut+0x70>
10001f4c:	2300      	movs	r3, #0
10001f4e:	602b      	str	r3, [r5, #0]
10001f50:	2401      	movs	r4, #1
10001f52:	e7e0      	b.n	10001f16 <xTaskCheckForTimeOut+0x32>
10001f54:	42b1      	cmp	r1, r6
10001f56:	d803      	bhi.n	10001f60 <xTaskCheckForTimeOut+0x7c>
10001f58:	2300      	movs	r3, #0
10001f5a:	602b      	str	r3, [r5, #0]
10001f5c:	2401      	movs	r4, #1
10001f5e:	e7da      	b.n	10001f16 <xTaskCheckForTimeOut+0x32>
10001f60:	1a9b      	subs	r3, r3, r2
10001f62:	185b      	adds	r3, r3, r1
10001f64:	602b      	str	r3, [r5, #0]
10001f66:	0020      	movs	r0, r4
10001f68:	f7ff ffb0 	bl	10001ecc <vTaskInternalSetTimeOutState>
10001f6c:	2400      	movs	r4, #0
10001f6e:	e7d2      	b.n	10001f16 <xTaskCheckForTimeOut+0x32>
10001f70:	2400      	movs	r4, #0
10001f72:	e7d0      	b.n	10001f16 <xTaskCheckForTimeOut+0x32>
10001f74:	20020a20 	.word	0x20020a20
10001f78:	20000448 	.word	0x20000448
10001f7c:	10006a40 	.word	0x10006a40
10001f80:	10006ba0 	.word	0x10006ba0
10001f84:	00000cdf 	.word	0x00000cdf
10001f88:	100068d4 	.word	0x100068d4
10001f8c:	10006a4c 	.word	0x10006a4c
10001f90:	20020988 	.word	0x20020988

10001f94 <vTaskMissedYield>:
10001f94:	4b01      	ldr	r3, [pc, #4]	; (10001f9c <vTaskMissedYield+0x8>)
10001f96:	2201      	movs	r2, #1
10001f98:	601a      	str	r2, [r3, #0]
10001f9a:	4770      	bx	lr
10001f9c:	20020a2c 	.word	0x20020a2c

10001fa0 <xTaskGetCurrentTaskHandle>:
10001fa0:	4b01      	ldr	r3, [pc, #4]	; (10001fa8 <xTaskGetCurrentTaskHandle+0x8>)
10001fa2:	6818      	ldr	r0, [r3, #0]
10001fa4:	4770      	bx	lr
10001fa6:	46c0      	nop			; (mov r8, r8)
10001fa8:	20000448 	.word	0x20000448

10001fac <xTaskGetSchedulerState>:
10001fac:	4b06      	ldr	r3, [pc, #24]	; (10001fc8 <xTaskGetSchedulerState+0x1c>)
10001fae:	681b      	ldr	r3, [r3, #0]
10001fb0:	2b00      	cmp	r3, #0
10001fb2:	d007      	beq.n	10001fc4 <xTaskGetSchedulerState+0x18>
10001fb4:	4b05      	ldr	r3, [pc, #20]	; (10001fcc <xTaskGetSchedulerState+0x20>)
10001fb6:	681b      	ldr	r3, [r3, #0]
10001fb8:	2b00      	cmp	r3, #0
10001fba:	d001      	beq.n	10001fc0 <xTaskGetSchedulerState+0x14>
10001fbc:	2000      	movs	r0, #0
10001fbe:	e002      	b.n	10001fc6 <xTaskGetSchedulerState+0x1a>
10001fc0:	2002      	movs	r0, #2
10001fc2:	e000      	b.n	10001fc6 <xTaskGetSchedulerState+0x1a>
10001fc4:	2001      	movs	r0, #1
10001fc6:	4770      	bx	lr
10001fc8:	200209ec 	.word	0x200209ec
10001fcc:	20020910 	.word	0x20020910

10001fd0 <xTaskPriorityDisinherit>:
10001fd0:	b570      	push	{r4, r5, r6, lr}
10001fd2:	1e04      	subs	r4, r0, #0
10001fd4:	d045      	beq.n	10002062 <xTaskPriorityDisinherit+0x92>
10001fd6:	4b25      	ldr	r3, [pc, #148]	; (1000206c <xTaskPriorityDisinherit+0x9c>)
10001fd8:	681b      	ldr	r3, [r3, #0]
10001fda:	4283      	cmp	r3, r0
10001fdc:	d10c      	bne.n	10001ff8 <xTaskPriorityDisinherit+0x28>
10001fde:	6d03      	ldr	r3, [r0, #80]	; 0x50
10001fe0:	2b00      	cmp	r3, #0
10001fe2:	d00f      	beq.n	10002004 <xTaskPriorityDisinherit+0x34>
10001fe4:	3b01      	subs	r3, #1
10001fe6:	6503      	str	r3, [r0, #80]	; 0x50
10001fe8:	6ac2      	ldr	r2, [r0, #44]	; 0x2c
10001fea:	6cc1      	ldr	r1, [r0, #76]	; 0x4c
10001fec:	428a      	cmp	r2, r1
10001fee:	d03a      	beq.n	10002066 <xTaskPriorityDisinherit+0x96>
10001ff0:	2b00      	cmp	r3, #0
10001ff2:	d00d      	beq.n	10002010 <xTaskPriorityDisinherit+0x40>
10001ff4:	2000      	movs	r0, #0
10001ff6:	bd70      	pop	{r4, r5, r6, pc}
10001ff8:	4b1d      	ldr	r3, [pc, #116]	; (10002070 <xTaskPriorityDisinherit+0xa0>)
10001ffa:	4a1e      	ldr	r2, [pc, #120]	; (10002074 <xTaskPriorityDisinherit+0xa4>)
10001ffc:	491e      	ldr	r1, [pc, #120]	; (10002078 <xTaskPriorityDisinherit+0xa8>)
10001ffe:	481f      	ldr	r0, [pc, #124]	; (1000207c <xTaskPriorityDisinherit+0xac>)
10002000:	f001 fb26 	bl	10003650 <__assert_func>
10002004:	4b1e      	ldr	r3, [pc, #120]	; (10002080 <xTaskPriorityDisinherit+0xb0>)
10002006:	4a1b      	ldr	r2, [pc, #108]	; (10002074 <xTaskPriorityDisinherit+0xa4>)
10002008:	491e      	ldr	r1, [pc, #120]	; (10002084 <xTaskPriorityDisinherit+0xb4>)
1000200a:	481c      	ldr	r0, [pc, #112]	; (1000207c <xTaskPriorityDisinherit+0xac>)
1000200c:	f001 fb20 	bl	10003650 <__assert_func>
10002010:	1d05      	adds	r5, r0, #4
10002012:	0028      	movs	r0, r5
10002014:	f7fe fd9b 	bl	10000b4e <uxListRemove>
10002018:	6ce2      	ldr	r2, [r4, #76]	; 0x4c
1000201a:	62e2      	str	r2, [r4, #44]	; 0x2c
1000201c:	2320      	movs	r3, #32
1000201e:	1a9b      	subs	r3, r3, r2
10002020:	61a3      	str	r3, [r4, #24]
10002022:	4b19      	ldr	r3, [pc, #100]	; (10002088 <xTaskPriorityDisinherit+0xb8>)
10002024:	681b      	ldr	r3, [r3, #0]
10002026:	429a      	cmp	r2, r3
10002028:	d901      	bls.n	1000202e <xTaskPriorityDisinherit+0x5e>
1000202a:	4b17      	ldr	r3, [pc, #92]	; (10002088 <xTaskPriorityDisinherit+0xb8>)
1000202c:	601a      	str	r2, [r3, #0]
1000202e:	4917      	ldr	r1, [pc, #92]	; (1000208c <xTaskPriorityDisinherit+0xbc>)
10002030:	0093      	lsls	r3, r2, #2
10002032:	189b      	adds	r3, r3, r2
10002034:	009b      	lsls	r3, r3, #2
10002036:	18cb      	adds	r3, r1, r3
10002038:	685b      	ldr	r3, [r3, #4]
1000203a:	60a3      	str	r3, [r4, #8]
1000203c:	689a      	ldr	r2, [r3, #8]
1000203e:	60e2      	str	r2, [r4, #12]
10002040:	6055      	str	r5, [r2, #4]
10002042:	609d      	str	r5, [r3, #8]
10002044:	6ae0      	ldr	r0, [r4, #44]	; 0x2c
10002046:	0083      	lsls	r3, r0, #2
10002048:	181a      	adds	r2, r3, r0
1000204a:	0092      	lsls	r2, r2, #2
1000204c:	1852      	adds	r2, r2, r1
1000204e:	6162      	str	r2, [r4, #20]
10002050:	181a      	adds	r2, r3, r0
10002052:	0092      	lsls	r2, r2, #2
10002054:	5852      	ldr	r2, [r2, r1]
10002056:	3201      	adds	r2, #1
10002058:	181b      	adds	r3, r3, r0
1000205a:	009b      	lsls	r3, r3, #2
1000205c:	505a      	str	r2, [r3, r1]
1000205e:	2001      	movs	r0, #1
10002060:	e7c9      	b.n	10001ff6 <xTaskPriorityDisinherit+0x26>
10002062:	2000      	movs	r0, #0
10002064:	e7c7      	b.n	10001ff6 <xTaskPriorityDisinherit+0x26>
10002066:	2000      	movs	r0, #0
10002068:	e7c5      	b.n	10001ff6 <xTaskPriorityDisinherit+0x26>
1000206a:	46c0      	nop			; (mov r8, r8)
1000206c:	20000448 	.word	0x20000448
10002070:	10006a5c 	.word	0x10006a5c
10002074:	10006b88 	.word	0x10006b88
10002078:	00001034 	.word	0x00001034
1000207c:	100068d4 	.word	0x100068d4
10002080:	10006a74 	.word	0x10006a74
10002084:	00001035 	.word	0x00001035
10002088:	20020918 	.word	0x20020918
1000208c:	20000460 	.word	0x20000460

10002090 <uxTaskResetEventItemValue>:
10002090:	4a04      	ldr	r2, [pc, #16]	; (100020a4 <uxTaskResetEventItemValue+0x14>)
10002092:	6813      	ldr	r3, [r2, #0]
10002094:	6998      	ldr	r0, [r3, #24]
10002096:	6813      	ldr	r3, [r2, #0]
10002098:	6ad9      	ldr	r1, [r3, #44]	; 0x2c
1000209a:	6812      	ldr	r2, [r2, #0]
1000209c:	2320      	movs	r3, #32
1000209e:	1a5b      	subs	r3, r3, r1
100020a0:	6193      	str	r3, [r2, #24]
100020a2:	4770      	bx	lr
100020a4:	20000448 	.word	0x20000448

100020a8 <prvGetNextExpireTime>:
100020a8:	4b07      	ldr	r3, [pc, #28]	; (100020c8 <prvGetNextExpireTime+0x20>)
100020aa:	681a      	ldr	r2, [r3, #0]
100020ac:	6813      	ldr	r3, [r2, #0]
100020ae:	2b00      	cmp	r3, #0
100020b0:	d106      	bne.n	100020c0 <prvGetNextExpireTime+0x18>
100020b2:	3301      	adds	r3, #1
100020b4:	6003      	str	r3, [r0, #0]
100020b6:	2b00      	cmp	r3, #0
100020b8:	d104      	bne.n	100020c4 <prvGetNextExpireTime+0x1c>
100020ba:	68d3      	ldr	r3, [r2, #12]
100020bc:	6818      	ldr	r0, [r3, #0]
100020be:	4770      	bx	lr
100020c0:	2300      	movs	r3, #0
100020c2:	e7f7      	b.n	100020b4 <prvGetNextExpireTime+0xc>
100020c4:	2000      	movs	r0, #0
100020c6:	e7fa      	b.n	100020be <prvGetNextExpireTime+0x16>
100020c8:	2000044c 	.word	0x2000044c

100020cc <prvInsertTimerInActiveList>:
100020cc:	b510      	push	{r4, lr}
100020ce:	6041      	str	r1, [r0, #4]
100020d0:	6100      	str	r0, [r0, #16]
100020d2:	4291      	cmp	r1, r2
100020d4:	d80c      	bhi.n	100020f0 <prvInsertTimerInActiveList+0x24>
100020d6:	1ad2      	subs	r2, r2, r3
100020d8:	6983      	ldr	r3, [r0, #24]
100020da:	429a      	cmp	r2, r3
100020dc:	d301      	bcc.n	100020e2 <prvInsertTimerInActiveList+0x16>
100020de:	2001      	movs	r0, #1
100020e0:	bd10      	pop	{r4, pc}
100020e2:	1d01      	adds	r1, r0, #4
100020e4:	4b09      	ldr	r3, [pc, #36]	; (1000210c <prvInsertTimerInActiveList+0x40>)
100020e6:	6818      	ldr	r0, [r3, #0]
100020e8:	f7fe fd1a 	bl	10000b20 <vListInsert>
100020ec:	2000      	movs	r0, #0
100020ee:	e7f7      	b.n	100020e0 <prvInsertTimerInActiveList+0x14>
100020f0:	429a      	cmp	r2, r3
100020f2:	d201      	bcs.n	100020f8 <prvInsertTimerInActiveList+0x2c>
100020f4:	4299      	cmp	r1, r3
100020f6:	d206      	bcs.n	10002106 <prvInsertTimerInActiveList+0x3a>
100020f8:	1d01      	adds	r1, r0, #4
100020fa:	4b05      	ldr	r3, [pc, #20]	; (10002110 <prvInsertTimerInActiveList+0x44>)
100020fc:	6818      	ldr	r0, [r3, #0]
100020fe:	f7fe fd0f 	bl	10000b20 <vListInsert>
10002102:	2000      	movs	r0, #0
10002104:	e7ec      	b.n	100020e0 <prvInsertTimerInActiveList+0x14>
10002106:	2001      	movs	r0, #1
10002108:	e7ea      	b.n	100020e0 <prvInsertTimerInActiveList+0x14>
1000210a:	46c0      	nop			; (mov r8, r8)
1000210c:	2000045c 	.word	0x2000045c
10002110:	2000044c 	.word	0x2000044c

10002114 <prvReloadTimer>:
10002114:	b570      	push	{r4, r5, r6, lr}
10002116:	0004      	movs	r4, r0
10002118:	000d      	movs	r5, r1
1000211a:	0016      	movs	r6, r2
1000211c:	e005      	b.n	1000212a <prvReloadTimer+0x16>
1000211e:	69a3      	ldr	r3, [r4, #24]
10002120:	469c      	mov	ip, r3
10002122:	4465      	add	r5, ip
10002124:	0020      	movs	r0, r4
10002126:	6a23      	ldr	r3, [r4, #32]
10002128:	4798      	blx	r3
1000212a:	69a3      	ldr	r3, [r4, #24]
1000212c:	1959      	adds	r1, r3, r5
1000212e:	002b      	movs	r3, r5
10002130:	0032      	movs	r2, r6
10002132:	0020      	movs	r0, r4
10002134:	f7ff ffca 	bl	100020cc <prvInsertTimerInActiveList>
10002138:	2800      	cmp	r0, #0
1000213a:	d1f0      	bne.n	1000211e <prvReloadTimer+0xa>
1000213c:	bd70      	pop	{r4, r5, r6, pc}
	...

10002140 <prvProcessExpiredTimer>:
10002140:	b570      	push	{r4, r5, r6, lr}
10002142:	0005      	movs	r5, r0
10002144:	000e      	movs	r6, r1
10002146:	4b0c      	ldr	r3, [pc, #48]	; (10002178 <prvProcessExpiredTimer+0x38>)
10002148:	681b      	ldr	r3, [r3, #0]
1000214a:	68db      	ldr	r3, [r3, #12]
1000214c:	68dc      	ldr	r4, [r3, #12]
1000214e:	1d20      	adds	r0, r4, #4
10002150:	f7fe fcfd 	bl	10000b4e <uxListRemove>
10002154:	2328      	movs	r3, #40	; 0x28
10002156:	5ce3      	ldrb	r3, [r4, r3]
10002158:	075a      	lsls	r2, r3, #29
1000215a:	d407      	bmi.n	1000216c <prvProcessExpiredTimer+0x2c>
1000215c:	2201      	movs	r2, #1
1000215e:	4393      	bics	r3, r2
10002160:	3227      	adds	r2, #39	; 0x27
10002162:	54a3      	strb	r3, [r4, r2]
10002164:	6a23      	ldr	r3, [r4, #32]
10002166:	0020      	movs	r0, r4
10002168:	4798      	blx	r3
1000216a:	bd70      	pop	{r4, r5, r6, pc}
1000216c:	0032      	movs	r2, r6
1000216e:	0029      	movs	r1, r5
10002170:	0020      	movs	r0, r4
10002172:	f7ff ffcf 	bl	10002114 <prvReloadTimer>
10002176:	e7f5      	b.n	10002164 <prvProcessExpiredTimer+0x24>
10002178:	2000044c 	.word	0x2000044c

1000217c <prvSwitchTimerLists>:
1000217c:	b510      	push	{r4, lr}
1000217e:	e005      	b.n	1000218c <prvSwitchTimerLists+0x10>
10002180:	68db      	ldr	r3, [r3, #12]
10002182:	6818      	ldr	r0, [r3, #0]
10002184:	2101      	movs	r1, #1
10002186:	4249      	negs	r1, r1
10002188:	f7ff ffda 	bl	10002140 <prvProcessExpiredTimer>
1000218c:	4b05      	ldr	r3, [pc, #20]	; (100021a4 <prvSwitchTimerLists+0x28>)
1000218e:	681b      	ldr	r3, [r3, #0]
10002190:	681a      	ldr	r2, [r3, #0]
10002192:	2a00      	cmp	r2, #0
10002194:	d1f4      	bne.n	10002180 <prvSwitchTimerLists+0x4>
10002196:	4a04      	ldr	r2, [pc, #16]	; (100021a8 <prvSwitchTimerLists+0x2c>)
10002198:	4902      	ldr	r1, [pc, #8]	; (100021a4 <prvSwitchTimerLists+0x28>)
1000219a:	6810      	ldr	r0, [r2, #0]
1000219c:	6008      	str	r0, [r1, #0]
1000219e:	6013      	str	r3, [r2, #0]
100021a0:	bd10      	pop	{r4, pc}
100021a2:	46c0      	nop			; (mov r8, r8)
100021a4:	2000044c 	.word	0x2000044c
100021a8:	2000045c 	.word	0x2000045c

100021ac <prvSampleTimeNow>:
100021ac:	b570      	push	{r4, r5, r6, lr}
100021ae:	0005      	movs	r5, r0
100021b0:	f7ff fb18 	bl	100017e4 <xTaskGetTickCount>
100021b4:	0004      	movs	r4, r0
100021b6:	4b07      	ldr	r3, [pc, #28]	; (100021d4 <prvSampleTimeNow+0x28>)
100021b8:	681b      	ldr	r3, [r3, #0]
100021ba:	4283      	cmp	r3, r0
100021bc:	d805      	bhi.n	100021ca <prvSampleTimeNow+0x1e>
100021be:	2300      	movs	r3, #0
100021c0:	602b      	str	r3, [r5, #0]
100021c2:	4b04      	ldr	r3, [pc, #16]	; (100021d4 <prvSampleTimeNow+0x28>)
100021c4:	601c      	str	r4, [r3, #0]
100021c6:	0020      	movs	r0, r4
100021c8:	bd70      	pop	{r4, r5, r6, pc}
100021ca:	f7ff ffd7 	bl	1000217c <prvSwitchTimerLists>
100021ce:	2301      	movs	r3, #1
100021d0:	602b      	str	r3, [r5, #0]
100021d2:	e7f6      	b.n	100021c2 <prvSampleTimeNow+0x16>
100021d4:	2002097c 	.word	0x2002097c

100021d8 <prvProcessTimerOrBlockTask>:
100021d8:	b570      	push	{r4, r5, r6, lr}
100021da:	b082      	sub	sp, #8
100021dc:	0004      	movs	r4, r0
100021de:	000d      	movs	r5, r1
100021e0:	f7ff faf8 	bl	100017d4 <vTaskSuspendAll>
100021e4:	a801      	add	r0, sp, #4
100021e6:	f7ff ffe1 	bl	100021ac <prvSampleTimeNow>
100021ea:	0006      	movs	r6, r0
100021ec:	9b01      	ldr	r3, [sp, #4]
100021ee:	2b00      	cmp	r3, #0
100021f0:	d123      	bne.n	1000223a <prvProcessTimerOrBlockTask+0x62>
100021f2:	2d00      	cmp	r5, #0
100021f4:	d101      	bne.n	100021fa <prvProcessTimerOrBlockTask+0x22>
100021f6:	42a0      	cmp	r0, r4
100021f8:	d213      	bcs.n	10002222 <prvProcessTimerOrBlockTask+0x4a>
100021fa:	2d00      	cmp	r5, #0
100021fc:	d005      	beq.n	1000220a <prvProcessTimerOrBlockTask+0x32>
100021fe:	4a10      	ldr	r2, [pc, #64]	; (10002240 <prvProcessTimerOrBlockTask+0x68>)
10002200:	6812      	ldr	r2, [r2, #0]
10002202:	6812      	ldr	r2, [r2, #0]
10002204:	2a00      	cmp	r2, #0
10002206:	d113      	bne.n	10002230 <prvProcessTimerOrBlockTask+0x58>
10002208:	2501      	movs	r5, #1
1000220a:	1ba1      	subs	r1, r4, r6
1000220c:	4b0d      	ldr	r3, [pc, #52]	; (10002244 <prvProcessTimerOrBlockTask+0x6c>)
1000220e:	6818      	ldr	r0, [r3, #0]
10002210:	002a      	movs	r2, r5
10002212:	f7ff f8b3 	bl	1000137c <vQueueWaitForMessageRestricted>
10002216:	f7ff fbb7 	bl	10001988 <xTaskResumeAll>
1000221a:	2800      	cmp	r0, #0
1000221c:	d00a      	beq.n	10002234 <prvProcessTimerOrBlockTask+0x5c>
1000221e:	b002      	add	sp, #8
10002220:	bd70      	pop	{r4, r5, r6, pc}
10002222:	f7ff fbb1 	bl	10001988 <xTaskResumeAll>
10002226:	0031      	movs	r1, r6
10002228:	0020      	movs	r0, r4
1000222a:	f7ff ff89 	bl	10002140 <prvProcessExpiredTimer>
1000222e:	e7f6      	b.n	1000221e <prvProcessTimerOrBlockTask+0x46>
10002230:	001d      	movs	r5, r3
10002232:	e7ea      	b.n	1000220a <prvProcessTimerOrBlockTask+0x32>
10002234:	f7fe f978 	bl	10000528 <vPortYield>
10002238:	e7f1      	b.n	1000221e <prvProcessTimerOrBlockTask+0x46>
1000223a:	f7ff fba5 	bl	10001988 <xTaskResumeAll>
1000223e:	e7ee      	b.n	1000221e <prvProcessTimerOrBlockTask+0x46>
10002240:	2000045c 	.word	0x2000045c
10002244:	20020a24 	.word	0x20020a24

10002248 <prvProcessReceivedCommands>:
10002248:	b530      	push	{r4, r5, lr}
1000224a:	b087      	sub	sp, #28
1000224c:	e002      	b.n	10002254 <prvProcessReceivedCommands+0xc>
1000224e:	9b02      	ldr	r3, [sp, #8]
10002250:	2b00      	cmp	r3, #0
10002252:	da0f      	bge.n	10002274 <prvProcessReceivedCommands+0x2c>
10002254:	4b39      	ldr	r3, [pc, #228]	; (1000233c <prvProcessReceivedCommands+0xf4>)
10002256:	6818      	ldr	r0, [r3, #0]
10002258:	2200      	movs	r2, #0
1000225a:	a902      	add	r1, sp, #8
1000225c:	f7fe ffb4 	bl	100011c8 <xQueueReceive>
10002260:	2800      	cmp	r0, #0
10002262:	d069      	beq.n	10002338 <prvProcessReceivedCommands+0xf0>
10002264:	9b02      	ldr	r3, [sp, #8]
10002266:	2b00      	cmp	r3, #0
10002268:	daf1      	bge.n	1000224e <prvProcessReceivedCommands+0x6>
1000226a:	9b03      	ldr	r3, [sp, #12]
1000226c:	9905      	ldr	r1, [sp, #20]
1000226e:	9804      	ldr	r0, [sp, #16]
10002270:	4798      	blx	r3
10002272:	e7ec      	b.n	1000224e <prvProcessReceivedCommands+0x6>
10002274:	9c04      	ldr	r4, [sp, #16]
10002276:	6963      	ldr	r3, [r4, #20]
10002278:	2b00      	cmp	r3, #0
1000227a:	d002      	beq.n	10002282 <prvProcessReceivedCommands+0x3a>
1000227c:	1d20      	adds	r0, r4, #4
1000227e:	f7fe fc66 	bl	10000b4e <uxListRemove>
10002282:	a801      	add	r0, sp, #4
10002284:	f7ff ff92 	bl	100021ac <prvSampleTimeNow>
10002288:	0005      	movs	r5, r0
1000228a:	9902      	ldr	r1, [sp, #8]
1000228c:	2909      	cmp	r1, #9
1000228e:	d8e1      	bhi.n	10002254 <prvProcessReceivedCommands+0xc>
10002290:	0089      	lsls	r1, r1, #2
10002292:	4b2b      	ldr	r3, [pc, #172]	; (10002340 <prvProcessReceivedCommands+0xf8>)
10002294:	5859      	ldr	r1, [r3, r1]
10002296:	468f      	mov	pc, r1
10002298:	2228      	movs	r2, #40	; 0x28
1000229a:	5ca3      	ldrb	r3, [r4, r2]
1000229c:	2101      	movs	r1, #1
1000229e:	430b      	orrs	r3, r1
100022a0:	54a3      	strb	r3, [r4, r2]
100022a2:	9b03      	ldr	r3, [sp, #12]
100022a4:	69a2      	ldr	r2, [r4, #24]
100022a6:	4694      	mov	ip, r2
100022a8:	4463      	add	r3, ip
100022aa:	0019      	movs	r1, r3
100022ac:	9b03      	ldr	r3, [sp, #12]
100022ae:	0002      	movs	r2, r0
100022b0:	0020      	movs	r0, r4
100022b2:	f7ff ff0b 	bl	100020cc <prvInsertTimerInActiveList>
100022b6:	2800      	cmp	r0, #0
100022b8:	d0cc      	beq.n	10002254 <prvProcessReceivedCommands+0xc>
100022ba:	2328      	movs	r3, #40	; 0x28
100022bc:	5ce3      	ldrb	r3, [r4, r3]
100022be:	075a      	lsls	r2, r3, #29
100022c0:	d407      	bmi.n	100022d2 <prvProcessReceivedCommands+0x8a>
100022c2:	2201      	movs	r2, #1
100022c4:	4393      	bics	r3, r2
100022c6:	3227      	adds	r2, #39	; 0x27
100022c8:	54a3      	strb	r3, [r4, r2]
100022ca:	6a23      	ldr	r3, [r4, #32]
100022cc:	0020      	movs	r0, r4
100022ce:	4798      	blx	r3
100022d0:	e7c0      	b.n	10002254 <prvProcessReceivedCommands+0xc>
100022d2:	9b03      	ldr	r3, [sp, #12]
100022d4:	69a2      	ldr	r2, [r4, #24]
100022d6:	4694      	mov	ip, r2
100022d8:	4463      	add	r3, ip
100022da:	0019      	movs	r1, r3
100022dc:	002a      	movs	r2, r5
100022de:	0020      	movs	r0, r4
100022e0:	f7ff ff18 	bl	10002114 <prvReloadTimer>
100022e4:	e7f1      	b.n	100022ca <prvProcessReceivedCommands+0x82>
100022e6:	2228      	movs	r2, #40	; 0x28
100022e8:	5ca3      	ldrb	r3, [r4, r2]
100022ea:	2101      	movs	r1, #1
100022ec:	438b      	bics	r3, r1
100022ee:	54a3      	strb	r3, [r4, r2]
100022f0:	e7b0      	b.n	10002254 <prvProcessReceivedCommands+0xc>
100022f2:	2228      	movs	r2, #40	; 0x28
100022f4:	5ca3      	ldrb	r3, [r4, r2]
100022f6:	2101      	movs	r1, #1
100022f8:	430b      	orrs	r3, r1
100022fa:	54a3      	strb	r3, [r4, r2]
100022fc:	9903      	ldr	r1, [sp, #12]
100022fe:	61a1      	str	r1, [r4, #24]
10002300:	2900      	cmp	r1, #0
10002302:	d006      	beq.n	10002312 <prvProcessReceivedCommands+0xca>
10002304:	1809      	adds	r1, r1, r0
10002306:	0003      	movs	r3, r0
10002308:	0002      	movs	r2, r0
1000230a:	0020      	movs	r0, r4
1000230c:	f7ff fede 	bl	100020cc <prvInsertTimerInActiveList>
10002310:	e7a0      	b.n	10002254 <prvProcessReceivedCommands+0xc>
10002312:	4b0c      	ldr	r3, [pc, #48]	; (10002344 <prvProcessReceivedCommands+0xfc>)
10002314:	4a0c      	ldr	r2, [pc, #48]	; (10002348 <prvProcessReceivedCommands+0x100>)
10002316:	490d      	ldr	r1, [pc, #52]	; (1000234c <prvProcessReceivedCommands+0x104>)
10002318:	480d      	ldr	r0, [pc, #52]	; (10002350 <prvProcessReceivedCommands+0x108>)
1000231a:	f001 f999 	bl	10003650 <__assert_func>
1000231e:	2328      	movs	r3, #40	; 0x28
10002320:	5ce3      	ldrb	r3, [r4, r3]
10002322:	079a      	lsls	r2, r3, #30
10002324:	d504      	bpl.n	10002330 <prvProcessReceivedCommands+0xe8>
10002326:	2201      	movs	r2, #1
10002328:	4393      	bics	r3, r2
1000232a:	3227      	adds	r2, #39	; 0x27
1000232c:	54a3      	strb	r3, [r4, r2]
1000232e:	e791      	b.n	10002254 <prvProcessReceivedCommands+0xc>
10002330:	0020      	movs	r0, r4
10002332:	f000 fa9b 	bl	1000286c <vPortFree>
10002336:	e78d      	b.n	10002254 <prvProcessReceivedCommands+0xc>
10002338:	b007      	add	sp, #28
1000233a:	bd30      	pop	{r4, r5, pc}
1000233c:	20020a24 	.word	0x20020a24
10002340:	10006c1c 	.word	0x10006c1c
10002344:	10006bb8 	.word	0x10006bb8
10002348:	10006cb0 	.word	0x10006cb0
1000234c:	00000359 	.word	0x00000359
10002350:	10006be0 	.word	0x10006be0

10002354 <prvTimerTask>:
10002354:	b500      	push	{lr}
10002356:	b083      	sub	sp, #12
10002358:	a801      	add	r0, sp, #4
1000235a:	f7ff fea5 	bl	100020a8 <prvGetNextExpireTime>
1000235e:	9901      	ldr	r1, [sp, #4]
10002360:	f7ff ff3a 	bl	100021d8 <prvProcessTimerOrBlockTask>
10002364:	f7ff ff70 	bl	10002248 <prvProcessReceivedCommands>
10002368:	e7f6      	b.n	10002358 <prvTimerTask+0x4>
	...

1000236c <prvCheckForValidListAndQueue>:
1000236c:	b570      	push	{r4, r5, r6, lr}
1000236e:	f7fe f8fb 	bl	10000568 <vPortEnterCritical>
10002372:	4b10      	ldr	r3, [pc, #64]	; (100023b4 <prvCheckForValidListAndQueue+0x48>)
10002374:	681b      	ldr	r3, [r3, #0]
10002376:	2b00      	cmp	r3, #0
10002378:	d002      	beq.n	10002380 <prvCheckForValidListAndQueue+0x14>
1000237a:	f7fe f915 	bl	100005a8 <vPortExitCritical>
1000237e:	bd70      	pop	{r4, r5, r6, pc}
10002380:	4d0d      	ldr	r5, [pc, #52]	; (100023b8 <prvCheckForValidListAndQueue+0x4c>)
10002382:	0028      	movs	r0, r5
10002384:	f7fe fbbe 	bl	10000b04 <vListInitialise>
10002388:	4c0c      	ldr	r4, [pc, #48]	; (100023bc <prvCheckForValidListAndQueue+0x50>)
1000238a:	0020      	movs	r0, r4
1000238c:	f7fe fbba 	bl	10000b04 <vListInitialise>
10002390:	4b0b      	ldr	r3, [pc, #44]	; (100023c0 <prvCheckForValidListAndQueue+0x54>)
10002392:	601d      	str	r5, [r3, #0]
10002394:	4b0b      	ldr	r3, [pc, #44]	; (100023c4 <prvCheckForValidListAndQueue+0x58>)
10002396:	601c      	str	r4, [r3, #0]
10002398:	2200      	movs	r2, #0
1000239a:	2110      	movs	r1, #16
1000239c:	200a      	movs	r0, #10
1000239e:	f7fe fd6d 	bl	10000e7c <xQueueGenericCreate>
100023a2:	4b04      	ldr	r3, [pc, #16]	; (100023b4 <prvCheckForValidListAndQueue+0x48>)
100023a4:	6018      	str	r0, [r3, #0]
100023a6:	2800      	cmp	r0, #0
100023a8:	d0e7      	beq.n	1000237a <prvCheckForValidListAndQueue+0xe>
100023aa:	4907      	ldr	r1, [pc, #28]	; (100023c8 <prvCheckForValidListAndQueue+0x5c>)
100023ac:	f7fe ffb4 	bl	10001318 <vQueueAddToRegistry>
100023b0:	e7e3      	b.n	1000237a <prvCheckForValidListAndQueue+0xe>
100023b2:	46c0      	nop			; (mov r8, r8)
100023b4:	20020a24 	.word	0x20020a24
100023b8:	2002091c 	.word	0x2002091c
100023bc:	20020930 	.word	0x20020930
100023c0:	2000044c 	.word	0x2000044c
100023c4:	2000045c 	.word	0x2000045c
100023c8:	10006c44 	.word	0x10006c44

100023cc <prvInitialiseNewTimer>:
100023cc:	b5f0      	push	{r4, r5, r6, r7, lr}
100023ce:	46c6      	mov	lr, r8
100023d0:	b500      	push	{lr}
100023d2:	4680      	mov	r8, r0
100023d4:	000d      	movs	r5, r1
100023d6:	0016      	movs	r6, r2
100023d8:	001f      	movs	r7, r3
100023da:	9c07      	ldr	r4, [sp, #28]
100023dc:	2900      	cmp	r1, #0
100023de:	d014      	beq.n	1000240a <prvInitialiseNewTimer+0x3e>
100023e0:	f7ff ffc4 	bl	1000236c <prvCheckForValidListAndQueue>
100023e4:	4643      	mov	r3, r8
100023e6:	6023      	str	r3, [r4, #0]
100023e8:	61a5      	str	r5, [r4, #24]
100023ea:	61e7      	str	r7, [r4, #28]
100023ec:	9b06      	ldr	r3, [sp, #24]
100023ee:	6223      	str	r3, [r4, #32]
100023f0:	1d20      	adds	r0, r4, #4
100023f2:	f7fe fb92 	bl	10000b1a <vListInitialiseItem>
100023f6:	2e00      	cmp	r6, #0
100023f8:	d004      	beq.n	10002404 <prvInitialiseNewTimer+0x38>
100023fa:	2228      	movs	r2, #40	; 0x28
100023fc:	5ca3      	ldrb	r3, [r4, r2]
100023fe:	2104      	movs	r1, #4
10002400:	430b      	orrs	r3, r1
10002402:	54a3      	strb	r3, [r4, r2]
10002404:	bc80      	pop	{r7}
10002406:	46b8      	mov	r8, r7
10002408:	bdf0      	pop	{r4, r5, r6, r7, pc}
1000240a:	216c      	movs	r1, #108	; 0x6c
1000240c:	4b02      	ldr	r3, [pc, #8]	; (10002418 <prvInitialiseNewTimer+0x4c>)
1000240e:	4a03      	ldr	r2, [pc, #12]	; (1000241c <prvInitialiseNewTimer+0x50>)
10002410:	31ff      	adds	r1, #255	; 0xff
10002412:	4803      	ldr	r0, [pc, #12]	; (10002420 <prvInitialiseNewTimer+0x54>)
10002414:	f001 f91c 	bl	10003650 <__assert_func>
10002418:	10006c4c 	.word	0x10006c4c
1000241c:	10006c98 	.word	0x10006c98
10002420:	10006be0 	.word	0x10006be0

10002424 <xTimerCreateTimerTask>:
10002424:	b500      	push	{lr}
10002426:	b083      	sub	sp, #12
10002428:	f7ff ffa0 	bl	1000236c <prvCheckForValidListAndQueue>
1000242c:	4b0c      	ldr	r3, [pc, #48]	; (10002460 <xTimerCreateTimerTask+0x3c>)
1000242e:	681b      	ldr	r3, [r3, #0]
10002430:	2b00      	cmp	r3, #0
10002432:	d00e      	beq.n	10002452 <xTimerCreateTimerTask+0x2e>
10002434:	2280      	movs	r2, #128	; 0x80
10002436:	4b0b      	ldr	r3, [pc, #44]	; (10002464 <xTimerCreateTimerTask+0x40>)
10002438:	9301      	str	r3, [sp, #4]
1000243a:	231f      	movs	r3, #31
1000243c:	9300      	str	r3, [sp, #0]
1000243e:	2300      	movs	r3, #0
10002440:	00d2      	lsls	r2, r2, #3
10002442:	4909      	ldr	r1, [pc, #36]	; (10002468 <xTimerCreateTimerTask+0x44>)
10002444:	4809      	ldr	r0, [pc, #36]	; (1000246c <xTimerCreateTimerTask+0x48>)
10002446:	f7ff f94d 	bl	100016e4 <xTaskCreate>
1000244a:	2800      	cmp	r0, #0
1000244c:	d001      	beq.n	10002452 <xTimerCreateTimerTask+0x2e>
1000244e:	b003      	add	sp, #12
10002450:	bd00      	pop	{pc}
10002452:	211a      	movs	r1, #26
10002454:	4b06      	ldr	r3, [pc, #24]	; (10002470 <xTimerCreateTimerTask+0x4c>)
10002456:	4a07      	ldr	r2, [pc, #28]	; (10002474 <xTimerCreateTimerTask+0x50>)
10002458:	31ff      	adds	r1, #255	; 0xff
1000245a:	4807      	ldr	r0, [pc, #28]	; (10002478 <xTimerCreateTimerTask+0x54>)
1000245c:	f001 f8f8 	bl	10003650 <__assert_func>
10002460:	20020a24 	.word	0x20020a24
10002464:	20020a28 	.word	0x20020a28
10002468:	10006c68 	.word	0x10006c68
1000246c:	10002355 	.word	0x10002355
10002470:	10006c70 	.word	0x10006c70
10002474:	10006ccc 	.word	0x10006ccc
10002478:	10006be0 	.word	0x10006be0

1000247c <xTimerCreate>:
1000247c:	b5f0      	push	{r4, r5, r6, r7, lr}
1000247e:	b085      	sub	sp, #20
10002480:	9003      	str	r0, [sp, #12]
10002482:	000d      	movs	r5, r1
10002484:	0016      	movs	r6, r2
10002486:	001f      	movs	r7, r3
10002488:	202c      	movs	r0, #44	; 0x2c
1000248a:	f000 f95b 	bl	10002744 <pvPortMalloc>
1000248e:	1e04      	subs	r4, r0, #0
10002490:	d00b      	beq.n	100024aa <xTimerCreate+0x2e>
10002492:	2328      	movs	r3, #40	; 0x28
10002494:	2200      	movs	r2, #0
10002496:	54c2      	strb	r2, [r0, r3]
10002498:	9001      	str	r0, [sp, #4]
1000249a:	9b0a      	ldr	r3, [sp, #40]	; 0x28
1000249c:	9300      	str	r3, [sp, #0]
1000249e:	003b      	movs	r3, r7
100024a0:	0032      	movs	r2, r6
100024a2:	0029      	movs	r1, r5
100024a4:	9803      	ldr	r0, [sp, #12]
100024a6:	f7ff ff91 	bl	100023cc <prvInitialiseNewTimer>
100024aa:	0020      	movs	r0, r4
100024ac:	b005      	add	sp, #20
100024ae:	bdf0      	pop	{r4, r5, r6, r7, pc}

100024b0 <xTimerGenericCommand>:
100024b0:	b530      	push	{r4, r5, lr}
100024b2:	b085      	sub	sp, #20
100024b4:	0004      	movs	r4, r0
100024b6:	001d      	movs	r5, r3
100024b8:	2800      	cmp	r0, #0
100024ba:	d014      	beq.n	100024e6 <xTimerGenericCommand+0x36>
100024bc:	4b16      	ldr	r3, [pc, #88]	; (10002518 <xTimerGenericCommand+0x68>)
100024be:	6818      	ldr	r0, [r3, #0]
100024c0:	2800      	cmp	r0, #0
100024c2:	d026      	beq.n	10002512 <xTimerGenericCommand+0x62>
100024c4:	9100      	str	r1, [sp, #0]
100024c6:	9201      	str	r2, [sp, #4]
100024c8:	9402      	str	r4, [sp, #8]
100024ca:	2905      	cmp	r1, #5
100024cc:	dc1a      	bgt.n	10002504 <xTimerGenericCommand+0x54>
100024ce:	f7ff fd6d 	bl	10001fac <xTaskGetSchedulerState>
100024d2:	2802      	cmp	r0, #2
100024d4:	d00e      	beq.n	100024f4 <xTimerGenericCommand+0x44>
100024d6:	4b10      	ldr	r3, [pc, #64]	; (10002518 <xTimerGenericCommand+0x68>)
100024d8:	6818      	ldr	r0, [r3, #0]
100024da:	2300      	movs	r3, #0
100024dc:	2200      	movs	r2, #0
100024de:	4669      	mov	r1, sp
100024e0:	f7fe fd12 	bl	10000f08 <xQueueGenericSend>
100024e4:	e013      	b.n	1000250e <xTimerGenericCommand+0x5e>
100024e6:	218c      	movs	r1, #140	; 0x8c
100024e8:	4b0c      	ldr	r3, [pc, #48]	; (1000251c <xTimerGenericCommand+0x6c>)
100024ea:	4a0d      	ldr	r2, [pc, #52]	; (10002520 <xTimerGenericCommand+0x70>)
100024ec:	31ff      	adds	r1, #255	; 0xff
100024ee:	480d      	ldr	r0, [pc, #52]	; (10002524 <xTimerGenericCommand+0x74>)
100024f0:	f001 f8ae 	bl	10003650 <__assert_func>
100024f4:	4b08      	ldr	r3, [pc, #32]	; (10002518 <xTimerGenericCommand+0x68>)
100024f6:	6818      	ldr	r0, [r3, #0]
100024f8:	2300      	movs	r3, #0
100024fa:	9a08      	ldr	r2, [sp, #32]
100024fc:	4669      	mov	r1, sp
100024fe:	f7fe fd03 	bl	10000f08 <xQueueGenericSend>
10002502:	e004      	b.n	1000250e <xTimerGenericCommand+0x5e>
10002504:	2300      	movs	r3, #0
10002506:	002a      	movs	r2, r5
10002508:	4669      	mov	r1, sp
1000250a:	f7fe fdc5 	bl	10001098 <xQueueGenericSendFromISR>
1000250e:	b005      	add	sp, #20
10002510:	bd30      	pop	{r4, r5, pc}
10002512:	2000      	movs	r0, #0
10002514:	e7fb      	b.n	1000250e <xTimerGenericCommand+0x5e>
10002516:	46c0      	nop			; (mov r8, r8)
10002518:	20020a24 	.word	0x20020a24
1000251c:	10006c78 	.word	0x10006c78
10002520:	10006c80 	.word	0x10006c80
10002524:	10006be0 	.word	0x10006be0

10002528 <xTimerPendFunctionCallFromISR>:
10002528:	b510      	push	{r4, lr}
1000252a:	b084      	sub	sp, #16
1000252c:	0014      	movs	r4, r2
1000252e:	001a      	movs	r2, r3
10002530:	2302      	movs	r3, #2
10002532:	425b      	negs	r3, r3
10002534:	9300      	str	r3, [sp, #0]
10002536:	9001      	str	r0, [sp, #4]
10002538:	9102      	str	r1, [sp, #8]
1000253a:	9403      	str	r4, [sp, #12]
1000253c:	4b03      	ldr	r3, [pc, #12]	; (1000254c <xTimerPendFunctionCallFromISR+0x24>)
1000253e:	6818      	ldr	r0, [r3, #0]
10002540:	2300      	movs	r3, #0
10002542:	4669      	mov	r1, sp
10002544:	f7fe fda8 	bl	10001098 <xQueueGenericSendFromISR>
10002548:	b004      	add	sp, #16
1000254a:	bd10      	pop	{r4, pc}
1000254c:	20020a24 	.word	0x20020a24

10002550 <exception_is_compile_time_default>:
10002550:	4b05      	ldr	r3, [pc, #20]	; (10002568 <exception_is_compile_time_default+0x18>)
10002552:	4298      	cmp	r0, r3
10002554:	d304      	bcc.n	10002560 <exception_is_compile_time_default+0x10>
10002556:	4b05      	ldr	r3, [pc, #20]	; (1000256c <exception_is_compile_time_default+0x1c>)
10002558:	4298      	cmp	r0, r3
1000255a:	d303      	bcc.n	10002564 <exception_is_compile_time_default+0x14>
1000255c:	2000      	movs	r0, #0
1000255e:	e000      	b.n	10002562 <exception_is_compile_time_default+0x12>
10002560:	2000      	movs	r0, #0
10002562:	4770      	bx	lr
10002564:	2001      	movs	r0, #1
10002566:	e7fc      	b.n	10002562 <exception_is_compile_time_default+0x12>
10002568:	100001c0 	.word	0x100001c0
1000256c:	100001cc 	.word	0x100001cc

10002570 <set_raw_exception_handler_and_restore_interrupts>:
10002570:	4b04      	ldr	r3, [pc, #16]	; (10002584 <set_raw_exception_handler_and_restore_interrupts+0x14>)
10002572:	689b      	ldr	r3, [r3, #8]
10002574:	3010      	adds	r0, #16
10002576:	0080      	lsls	r0, r0, #2
10002578:	5019      	str	r1, [r3, r0]
1000257a:	f3bf 8f5f 	dmb	sy
1000257e:	f382 8810 	msr	PRIMASK, r2
10002582:	4770      	bx	lr
10002584:	e000ed00 	.word	0xe000ed00

10002588 <exception_get_vtable_handler>:
10002588:	4b02      	ldr	r3, [pc, #8]	; (10002594 <exception_get_vtable_handler+0xc>)
1000258a:	689b      	ldr	r3, [r3, #8]
1000258c:	3010      	adds	r0, #16
1000258e:	0080      	lsls	r0, r0, #2
10002590:	58c0      	ldr	r0, [r0, r3]
10002592:	4770      	bx	lr
10002594:	e000ed00 	.word	0xe000ed00

10002598 <exception_set_exclusive_handler>:
10002598:	b5f8      	push	{r3, r4, r5, r6, r7, lr}
1000259a:	0005      	movs	r5, r0
1000259c:	000e      	movs	r6, r1
1000259e:	f3ef 8710 	mrs	r7, PRIMASK
100025a2:	b672      	cpsid	i
100025a4:	f7ff fff0 	bl	10002588 <exception_get_vtable_handler>
100025a8:	0004      	movs	r4, r0
100025aa:	42b0      	cmp	r0, r6
100025ac:	d003      	beq.n	100025b6 <exception_set_exclusive_handler+0x1e>
100025ae:	f7ff ffcf 	bl	10002550 <exception_is_compile_time_default>
100025b2:	2800      	cmp	r0, #0
100025b4:	d006      	beq.n	100025c4 <exception_set_exclusive_handler+0x2c>
100025b6:	003a      	movs	r2, r7
100025b8:	0031      	movs	r1, r6
100025ba:	0028      	movs	r0, r5
100025bc:	f7ff ffd8 	bl	10002570 <set_raw_exception_handler_and_restore_interrupts>
100025c0:	0020      	movs	r0, r4
100025c2:	bdf8      	pop	{r3, r4, r5, r6, r7, pc}
100025c4:	4b02      	ldr	r3, [pc, #8]	; (100025d0 <exception_set_exclusive_handler+0x38>)
100025c6:	4a03      	ldr	r2, [pc, #12]	; (100025d4 <exception_set_exclusive_handler+0x3c>)
100025c8:	2131      	movs	r1, #49	; 0x31
100025ca:	4803      	ldr	r0, [pc, #12]	; (100025d8 <exception_set_exclusive_handler+0x40>)
100025cc:	f001 f840 	bl	10003650 <__assert_func>
100025d0:	10006ce4 	.word	0x10006ce4
100025d4:	10006d80 	.word	0x10006d80
100025d8:	10006d28 	.word	0x10006d28

100025dc <hw_claim_lock>:
100025dc:	f3ef 8010 	mrs	r0, PRIMASK
100025e0:	b672      	cpsid	i
100025e2:	4b03      	ldr	r3, [pc, #12]	; (100025f0 <hw_claim_lock+0x14>)
100025e4:	681b      	ldr	r3, [r3, #0]
100025e6:	2b00      	cmp	r3, #0
100025e8:	d0fb      	beq.n	100025e2 <hw_claim_lock+0x6>
100025ea:	f3bf 8f5f 	dmb	sy
100025ee:	4770      	bx	lr
100025f0:	d000012c 	.word	0xd000012c

100025f4 <hw_claim_unlock>:
100025f4:	f3bf 8f5f 	dmb	sy
100025f8:	4b02      	ldr	r3, [pc, #8]	; (10002604 <hw_claim_unlock+0x10>)
100025fa:	2200      	movs	r2, #0
100025fc:	601a      	str	r2, [r3, #0]
100025fe:	f380 8810 	msr	PRIMASK, r0
10002602:	4770      	bx	lr
10002604:	d000012c 	.word	0xd000012c

10002608 <hw_claim_or_assert>:
10002608:	b5f8      	push	{r3, r4, r5, r6, r7, lr}
1000260a:	0006      	movs	r6, r0
1000260c:	000c      	movs	r4, r1
1000260e:	0015      	movs	r5, r2
10002610:	f7ff ffe4 	bl	100025dc <hw_claim_lock>
10002614:	08e3      	lsrs	r3, r4, #3
10002616:	18f7      	adds	r7, r6, r3
10002618:	5cf1      	ldrb	r1, [r6, r3]
1000261a:	2207      	movs	r2, #7
1000261c:	4022      	ands	r2, r4
1000261e:	2301      	movs	r3, #1
10002620:	4093      	lsls	r3, r2
10002622:	420b      	tst	r3, r1
10002624:	d105      	bne.n	10002632 <hw_claim_or_assert+0x2a>
10002626:	b2db      	uxtb	r3, r3
10002628:	430b      	orrs	r3, r1
1000262a:	703b      	strb	r3, [r7, #0]
1000262c:	f7ff ffe2 	bl	100025f4 <hw_claim_unlock>
10002630:	bdf8      	pop	{r3, r4, r5, r6, r7, pc}
10002632:	0021      	movs	r1, r4
10002634:	0028      	movs	r0, r5
10002636:	f001 f8a5 	bl	10003784 <panic>
	...

1000263c <running_on_fpga>:
1000263c:	4b03      	ldr	r3, [pc, #12]	; (1000264c <running_on_fpga+0x10>)
1000263e:	681b      	ldr	r3, [r3, #0]
10002640:	2002      	movs	r0, #2
10002642:	4018      	ands	r0, r3
10002644:	1e43      	subs	r3, r0, #1
10002646:	4198      	sbcs	r0, r3
10002648:	b2c0      	uxtb	r0, r0
1000264a:	4770      	bx	lr
1000264c:	4006c000 	.word	0x4006c000

10002650 <spin_locks_reset>:
10002650:	2300      	movs	r3, #0
10002652:	e007      	b.n	10002664 <spin_locks_reset+0x14>
10002654:	4a05      	ldr	r2, [pc, #20]	; (1000266c <spin_locks_reset+0x1c>)
10002656:	189a      	adds	r2, r3, r2
10002658:	0092      	lsls	r2, r2, #2
1000265a:	f3bf 8f5f 	dmb	sy
1000265e:	2100      	movs	r1, #0
10002660:	6011      	str	r1, [r2, #0]
10002662:	3301      	adds	r3, #1
10002664:	2b1f      	cmp	r3, #31
10002666:	d9f5      	bls.n	10002654 <spin_locks_reset+0x4>
10002668:	4770      	bx	lr
1000266a:	46c0      	nop			; (mov r8, r8)
1000266c:	34000040 	.word	0x34000040

10002670 <next_striped_spin_lock_num>:
10002670:	4a05      	ldr	r2, [pc, #20]	; (10002688 <next_striped_spin_lock_num+0x18>)
10002672:	7810      	ldrb	r0, [r2, #0]
10002674:	1c43      	adds	r3, r0, #1
10002676:	b2db      	uxtb	r3, r3
10002678:	7013      	strb	r3, [r2, #0]
1000267a:	2b17      	cmp	r3, #23
1000267c:	d902      	bls.n	10002684 <next_striped_spin_lock_num+0x14>
1000267e:	0013      	movs	r3, r2
10002680:	2210      	movs	r2, #16
10002682:	701a      	strb	r2, [r3, #0]
10002684:	4770      	bx	lr
10002686:	46c0      	nop			; (mov r8, r8)
10002688:	200001d0 	.word	0x200001d0

1000268c <prvHeapInit>:
1000268c:	4a12      	ldr	r2, [pc, #72]	; (100026d8 <prvHeapInit+0x4c>)
1000268e:	0753      	lsls	r3, r2, #29
10002690:	d01f      	beq.n	100026d2 <prvHeapInit+0x46>
10002692:	1dd1      	adds	r1, r2, #7
10002694:	2307      	movs	r3, #7
10002696:	4399      	bics	r1, r3
10002698:	2380      	movs	r3, #128	; 0x80
1000269a:	029b      	lsls	r3, r3, #10
1000269c:	1a5b      	subs	r3, r3, r1
1000269e:	189b      	adds	r3, r3, r2
100026a0:	000a      	movs	r2, r1
100026a2:	480e      	ldr	r0, [pc, #56]	; (100026dc <prvHeapInit+0x50>)
100026a4:	6002      	str	r2, [r0, #0]
100026a6:	2100      	movs	r1, #0
100026a8:	6041      	str	r1, [r0, #4]
100026aa:	18d3      	adds	r3, r2, r3
100026ac:	3b08      	subs	r3, #8
100026ae:	2007      	movs	r0, #7
100026b0:	4383      	bics	r3, r0
100026b2:	480b      	ldr	r0, [pc, #44]	; (100026e0 <prvHeapInit+0x54>)
100026b4:	6003      	str	r3, [r0, #0]
100026b6:	6059      	str	r1, [r3, #4]
100026b8:	6019      	str	r1, [r3, #0]
100026ba:	1a99      	subs	r1, r3, r2
100026bc:	6051      	str	r1, [r2, #4]
100026be:	6013      	str	r3, [r2, #0]
100026c0:	4b08      	ldr	r3, [pc, #32]	; (100026e4 <prvHeapInit+0x58>)
100026c2:	6019      	str	r1, [r3, #0]
100026c4:	4b08      	ldr	r3, [pc, #32]	; (100026e8 <prvHeapInit+0x5c>)
100026c6:	6019      	str	r1, [r3, #0]
100026c8:	4b08      	ldr	r3, [pc, #32]	; (100026ec <prvHeapInit+0x60>)
100026ca:	2280      	movs	r2, #128	; 0x80
100026cc:	0612      	lsls	r2, r2, #24
100026ce:	601a      	str	r2, [r3, #0]
100026d0:	4770      	bx	lr
100026d2:	2380      	movs	r3, #128	; 0x80
100026d4:	029b      	lsls	r3, r3, #10
100026d6:	e7e4      	b.n	100026a2 <prvHeapInit+0x16>
100026d8:	200008fc 	.word	0x200008fc
100026dc:	200209f0 	.word	0x200209f0
100026e0:	20000454 	.word	0x20000454
100026e4:	20020980 	.word	0x20020980
100026e8:	20020974 	.word	0x20020974
100026ec:	20020944 	.word	0x20020944

100026f0 <prvInsertBlockIntoFreeList>:
100026f0:	b510      	push	{r4, lr}
100026f2:	4b12      	ldr	r3, [pc, #72]	; (1000273c <prvInsertBlockIntoFreeList+0x4c>)
100026f4:	001a      	movs	r2, r3
100026f6:	681b      	ldr	r3, [r3, #0]
100026f8:	4283      	cmp	r3, r0
100026fa:	d3fb      	bcc.n	100026f4 <prvInsertBlockIntoFreeList+0x4>
100026fc:	6851      	ldr	r1, [r2, #4]
100026fe:	1854      	adds	r4, r2, r1
10002700:	4284      	cmp	r4, r0
10002702:	d008      	beq.n	10002716 <prvInsertBlockIntoFreeList+0x26>
10002704:	6841      	ldr	r1, [r0, #4]
10002706:	1844      	adds	r4, r0, r1
10002708:	42a3      	cmp	r3, r4
1000270a:	d009      	beq.n	10002720 <prvInsertBlockIntoFreeList+0x30>
1000270c:	6003      	str	r3, [r0, #0]
1000270e:	4290      	cmp	r0, r2
10002710:	d000      	beq.n	10002714 <prvInsertBlockIntoFreeList+0x24>
10002712:	6010      	str	r0, [r2, #0]
10002714:	bd10      	pop	{r4, pc}
10002716:	6840      	ldr	r0, [r0, #4]
10002718:	1809      	adds	r1, r1, r0
1000271a:	6051      	str	r1, [r2, #4]
1000271c:	0010      	movs	r0, r2
1000271e:	e7f1      	b.n	10002704 <prvInsertBlockIntoFreeList+0x14>
10002720:	4c07      	ldr	r4, [pc, #28]	; (10002740 <prvInsertBlockIntoFreeList+0x50>)
10002722:	6824      	ldr	r4, [r4, #0]
10002724:	42a3      	cmp	r3, r4
10002726:	d006      	beq.n	10002736 <prvInsertBlockIntoFreeList+0x46>
10002728:	685b      	ldr	r3, [r3, #4]
1000272a:	18c9      	adds	r1, r1, r3
1000272c:	6041      	str	r1, [r0, #4]
1000272e:	6813      	ldr	r3, [r2, #0]
10002730:	681b      	ldr	r3, [r3, #0]
10002732:	6003      	str	r3, [r0, #0]
10002734:	e7eb      	b.n	1000270e <prvInsertBlockIntoFreeList+0x1e>
10002736:	6004      	str	r4, [r0, #0]
10002738:	e7e9      	b.n	1000270e <prvInsertBlockIntoFreeList+0x1e>
1000273a:	46c0      	nop			; (mov r8, r8)
1000273c:	200209f0 	.word	0x200209f0
10002740:	20000454 	.word	0x20000454

10002744 <pvPortMalloc>:
10002744:	b570      	push	{r4, r5, r6, lr}
10002746:	0004      	movs	r4, r0
10002748:	f7ff f844 	bl	100017d4 <vTaskSuspendAll>
1000274c:	4b3d      	ldr	r3, [pc, #244]	; (10002844 <pvPortMalloc+0x100>)
1000274e:	681b      	ldr	r3, [r3, #0]
10002750:	2b00      	cmp	r3, #0
10002752:	d01d      	beq.n	10002790 <pvPortMalloc+0x4c>
10002754:	4b3c      	ldr	r3, [pc, #240]	; (10002848 <pvPortMalloc+0x104>)
10002756:	681b      	ldr	r3, [r3, #0]
10002758:	4223      	tst	r3, r4
1000275a:	d11c      	bne.n	10002796 <pvPortMalloc+0x52>
1000275c:	1e63      	subs	r3, r4, #1
1000275e:	330a      	adds	r3, #10
10002760:	d80d      	bhi.n	1000277e <pvPortMalloc+0x3a>
10002762:	0022      	movs	r2, r4
10002764:	3208      	adds	r2, #8
10002766:	0763      	lsls	r3, r4, #29
10002768:	d007      	beq.n	1000277a <pvPortMalloc+0x36>
1000276a:	2307      	movs	r3, #7
1000276c:	0011      	movs	r1, r2
1000276e:	4399      	bics	r1, r3
10002770:	000b      	movs	r3, r1
10002772:	3308      	adds	r3, #8
10002774:	4293      	cmp	r3, r2
10002776:	d958      	bls.n	1000282a <pvPortMalloc+0xe6>
10002778:	001a      	movs	r2, r3
1000277a:	2a00      	cmp	r2, #0
1000277c:	d10f      	bne.n	1000279e <pvPortMalloc+0x5a>
1000277e:	f7ff f903 	bl	10001988 <xTaskResumeAll>
10002782:	2500      	movs	r5, #0
10002784:	f7fd fe34 	bl	100003f0 <vApplicationMallocFailedHook>
10002788:	076b      	lsls	r3, r5, #29
1000278a:	d154      	bne.n	10002836 <pvPortMalloc+0xf2>
1000278c:	0028      	movs	r0, r5
1000278e:	bd70      	pop	{r4, r5, r6, pc}
10002790:	f7ff ff7c 	bl	1000268c <prvHeapInit>
10002794:	e7de      	b.n	10002754 <pvPortMalloc+0x10>
10002796:	f7ff f8f7 	bl	10001988 <xTaskResumeAll>
1000279a:	2500      	movs	r5, #0
1000279c:	e7f2      	b.n	10002784 <pvPortMalloc+0x40>
1000279e:	4b2b      	ldr	r3, [pc, #172]	; (1000284c <pvPortMalloc+0x108>)
100027a0:	681b      	ldr	r3, [r3, #0]
100027a2:	4293      	cmp	r3, r2
100027a4:	d302      	bcc.n	100027ac <pvPortMalloc+0x68>
100027a6:	492a      	ldr	r1, [pc, #168]	; (10002850 <pvPortMalloc+0x10c>)
100027a8:	680c      	ldr	r4, [r1, #0]
100027aa:	e005      	b.n	100027b8 <pvPortMalloc+0x74>
100027ac:	f7ff f8ec 	bl	10001988 <xTaskResumeAll>
100027b0:	2500      	movs	r5, #0
100027b2:	e7e7      	b.n	10002784 <pvPortMalloc+0x40>
100027b4:	0021      	movs	r1, r4
100027b6:	001c      	movs	r4, r3
100027b8:	6863      	ldr	r3, [r4, #4]
100027ba:	4293      	cmp	r3, r2
100027bc:	d202      	bcs.n	100027c4 <pvPortMalloc+0x80>
100027be:	6823      	ldr	r3, [r4, #0]
100027c0:	2b00      	cmp	r3, #0
100027c2:	d1f7      	bne.n	100027b4 <pvPortMalloc+0x70>
100027c4:	4b1f      	ldr	r3, [pc, #124]	; (10002844 <pvPortMalloc+0x100>)
100027c6:	681b      	ldr	r3, [r3, #0]
100027c8:	42a3      	cmp	r3, r4
100027ca:	d024      	beq.n	10002816 <pvPortMalloc+0xd2>
100027cc:	680d      	ldr	r5, [r1, #0]
100027ce:	3508      	adds	r5, #8
100027d0:	6823      	ldr	r3, [r4, #0]
100027d2:	600b      	str	r3, [r1, #0]
100027d4:	6863      	ldr	r3, [r4, #4]
100027d6:	1a9b      	subs	r3, r3, r2
100027d8:	2b10      	cmp	r3, #16
100027da:	d906      	bls.n	100027ea <pvPortMalloc+0xa6>
100027dc:	18a0      	adds	r0, r4, r2
100027de:	0741      	lsls	r1, r0, #29
100027e0:	d11d      	bne.n	1000281e <pvPortMalloc+0xda>
100027e2:	6043      	str	r3, [r0, #4]
100027e4:	6062      	str	r2, [r4, #4]
100027e6:	f7ff ff83 	bl	100026f0 <prvInsertBlockIntoFreeList>
100027ea:	6862      	ldr	r2, [r4, #4]
100027ec:	4917      	ldr	r1, [pc, #92]	; (1000284c <pvPortMalloc+0x108>)
100027ee:	680b      	ldr	r3, [r1, #0]
100027f0:	1a9b      	subs	r3, r3, r2
100027f2:	600b      	str	r3, [r1, #0]
100027f4:	4917      	ldr	r1, [pc, #92]	; (10002854 <pvPortMalloc+0x110>)
100027f6:	6809      	ldr	r1, [r1, #0]
100027f8:	428b      	cmp	r3, r1
100027fa:	d201      	bcs.n	10002800 <pvPortMalloc+0xbc>
100027fc:	4915      	ldr	r1, [pc, #84]	; (10002854 <pvPortMalloc+0x110>)
100027fe:	600b      	str	r3, [r1, #0]
10002800:	4b11      	ldr	r3, [pc, #68]	; (10002848 <pvPortMalloc+0x104>)
10002802:	681b      	ldr	r3, [r3, #0]
10002804:	4313      	orrs	r3, r2
10002806:	6063      	str	r3, [r4, #4]
10002808:	2300      	movs	r3, #0
1000280a:	6023      	str	r3, [r4, #0]
1000280c:	4a12      	ldr	r2, [pc, #72]	; (10002858 <pvPortMalloc+0x114>)
1000280e:	6813      	ldr	r3, [r2, #0]
10002810:	3301      	adds	r3, #1
10002812:	6013      	str	r3, [r2, #0]
10002814:	e00a      	b.n	1000282c <pvPortMalloc+0xe8>
10002816:	f7ff f8b7 	bl	10001988 <xTaskResumeAll>
1000281a:	2500      	movs	r5, #0
1000281c:	e7b2      	b.n	10002784 <pvPortMalloc+0x40>
1000281e:	4b0f      	ldr	r3, [pc, #60]	; (1000285c <pvPortMalloc+0x118>)
10002820:	4a0f      	ldr	r2, [pc, #60]	; (10002860 <pvPortMalloc+0x11c>)
10002822:	21cf      	movs	r1, #207	; 0xcf
10002824:	480f      	ldr	r0, [pc, #60]	; (10002864 <pvPortMalloc+0x120>)
10002826:	f000 ff13 	bl	10003650 <__assert_func>
1000282a:	2500      	movs	r5, #0
1000282c:	f7ff f8ac 	bl	10001988 <xTaskResumeAll>
10002830:	2d00      	cmp	r5, #0
10002832:	d1a9      	bne.n	10002788 <pvPortMalloc+0x44>
10002834:	e7a6      	b.n	10002784 <pvPortMalloc+0x40>
10002836:	2188      	movs	r1, #136	; 0x88
10002838:	4b0b      	ldr	r3, [pc, #44]	; (10002868 <pvPortMalloc+0x124>)
1000283a:	4a09      	ldr	r2, [pc, #36]	; (10002860 <pvPortMalloc+0x11c>)
1000283c:	0049      	lsls	r1, r1, #1
1000283e:	4809      	ldr	r0, [pc, #36]	; (10002864 <pvPortMalloc+0x120>)
10002840:	f000 ff06 	bl	10003650 <__assert_func>
10002844:	20000454 	.word	0x20000454
10002848:	20020944 	.word	0x20020944
1000284c:	20020974 	.word	0x20020974
10002850:	200209f0 	.word	0x200209f0
10002854:	20020980 	.word	0x20020980
10002858:	2002098c 	.word	0x2002098c
1000285c:	10006da0 	.word	0x10006da0
10002860:	10006ec4 	.word	0x10006ec4
10002864:	10006dd4 	.word	0x10006dd4
10002868:	10006e20 	.word	0x10006e20

1000286c <vPortFree>:
1000286c:	b570      	push	{r4, r5, r6, lr}
1000286e:	2800      	cmp	r0, #0
10002870:	d020      	beq.n	100028b4 <vPortFree+0x48>
10002872:	0005      	movs	r5, r0
10002874:	3d08      	subs	r5, #8
10002876:	686b      	ldr	r3, [r5, #4]
10002878:	4a16      	ldr	r2, [pc, #88]	; (100028d4 <vPortFree+0x68>)
1000287a:	6812      	ldr	r2, [r2, #0]
1000287c:	421a      	tst	r2, r3
1000287e:	d01a      	beq.n	100028b6 <vPortFree+0x4a>
10002880:	0001      	movs	r1, r0
10002882:	3908      	subs	r1, #8
10002884:	6809      	ldr	r1, [r1, #0]
10002886:	2900      	cmp	r1, #0
10002888:	d11c      	bne.n	100028c4 <vPortFree+0x58>
1000288a:	3808      	subs	r0, #8
1000288c:	0004      	movs	r4, r0
1000288e:	4393      	bics	r3, r2
10002890:	6043      	str	r3, [r0, #4]
10002892:	f7fe ff9f 	bl	100017d4 <vTaskSuspendAll>
10002896:	6863      	ldr	r3, [r4, #4]
10002898:	4a0f      	ldr	r2, [pc, #60]	; (100028d8 <vPortFree+0x6c>)
1000289a:	6811      	ldr	r1, [r2, #0]
1000289c:	468c      	mov	ip, r1
1000289e:	4463      	add	r3, ip
100028a0:	6013      	str	r3, [r2, #0]
100028a2:	0028      	movs	r0, r5
100028a4:	f7ff ff24 	bl	100026f0 <prvInsertBlockIntoFreeList>
100028a8:	4a0c      	ldr	r2, [pc, #48]	; (100028dc <vPortFree+0x70>)
100028aa:	6813      	ldr	r3, [r2, #0]
100028ac:	3301      	adds	r3, #1
100028ae:	6013      	str	r3, [r2, #0]
100028b0:	f7ff f86a 	bl	10001988 <xTaskResumeAll>
100028b4:	bd70      	pop	{r4, r5, r6, pc}
100028b6:	2192      	movs	r1, #146	; 0x92
100028b8:	4b09      	ldr	r3, [pc, #36]	; (100028e0 <vPortFree+0x74>)
100028ba:	4a0a      	ldr	r2, [pc, #40]	; (100028e4 <vPortFree+0x78>)
100028bc:	0049      	lsls	r1, r1, #1
100028be:	480a      	ldr	r0, [pc, #40]	; (100028e8 <vPortFree+0x7c>)
100028c0:	f000 fec6 	bl	10003650 <__assert_func>
100028c4:	2126      	movs	r1, #38	; 0x26
100028c6:	4b09      	ldr	r3, [pc, #36]	; (100028ec <vPortFree+0x80>)
100028c8:	4a06      	ldr	r2, [pc, #24]	; (100028e4 <vPortFree+0x78>)
100028ca:	31ff      	adds	r1, #255	; 0xff
100028cc:	4806      	ldr	r0, [pc, #24]	; (100028e8 <vPortFree+0x7c>)
100028ce:	f000 febf 	bl	10003650 <__assert_func>
100028d2:	46c0      	nop			; (mov r8, r8)
100028d4:	20020944 	.word	0x20020944
100028d8:	20020974 	.word	0x20020974
100028dc:	20020990 	.word	0x20020990
100028e0:	10006e5c 	.word	0x10006e5c
100028e4:	10006eb8 	.word	0x10006eb8
100028e8:	10006dd4 	.word	0x10006dd4
100028ec:	10006e90 	.word	0x10006e90

100028f0 <alarm_pool_post_alloc_init>:
100028f0:	b570      	push	{r4, r5, r6, lr}
100028f2:	0005      	movs	r5, r0
100028f4:	000c      	movs	r4, r1
100028f6:	0008      	movs	r0, r1
100028f8:	f000 fb7a 	bl	10002ff0 <hardware_alarm_claim>
100028fc:	0020      	movs	r0, r4
100028fe:	f000 fc4b 	bl	10003198 <hardware_alarm_cancel>
10002902:	4908      	ldr	r1, [pc, #32]	; (10002924 <alarm_pool_post_alloc_init+0x34>)
10002904:	0020      	movs	r0, r4
10002906:	f000 fb8b 	bl	10003020 <hardware_alarm_set_callback>
1000290a:	f7ff feb1 	bl	10002670 <next_striped_spin_lock_num>
1000290e:	4b06      	ldr	r3, [pc, #24]	; (10002928 <alarm_pool_post_alloc_init+0x38>)
10002910:	469c      	mov	ip, r3
10002912:	4460      	add	r0, ip
10002914:	0080      	lsls	r0, r0, #2
10002916:	6068      	str	r0, [r5, #4]
10002918:	752c      	strb	r4, [r5, #20]
1000291a:	00a4      	lsls	r4, r4, #2
1000291c:	4b03      	ldr	r3, [pc, #12]	; (1000292c <alarm_pool_post_alloc_init+0x3c>)
1000291e:	50e5      	str	r5, [r4, r3]
10002920:	bd70      	pop	{r4, r5, r6, pc}
10002922:	46c0      	nop			; (mov r8, r8)
10002924:	10002c05 	.word	0x10002c05
10002928:	34000040 	.word	0x34000040
1000292c:	20000434 	.word	0x20000434

10002930 <timer_pool_entry_comparator>:
10002930:	b510      	push	{r4, lr}
10002932:	2900      	cmp	r1, #0
10002934:	d022      	beq.n	1000297c <timer_pool_entry_comparator+0x4c>
10002936:	6803      	ldr	r3, [r0, #0]
10002938:	7b1b      	ldrb	r3, [r3, #12]
1000293a:	4299      	cmp	r1, r3
1000293c:	d81e      	bhi.n	1000297c <timer_pool_entry_comparator+0x4c>
1000293e:	4b17      	ldr	r3, [pc, #92]	; (1000299c <timer_pool_entry_comparator+0x6c>)
10002940:	469c      	mov	ip, r3
10002942:	4461      	add	r1, ip
10002944:	0109      	lsls	r1, r1, #4
10002946:	6883      	ldr	r3, [r0, #8]
10002948:	469c      	mov	ip, r3
1000294a:	4461      	add	r1, ip
1000294c:	680c      	ldr	r4, [r1, #0]
1000294e:	6849      	ldr	r1, [r1, #4]
10002950:	2a00      	cmp	r2, #0
10002952:	d019      	beq.n	10002988 <timer_pool_entry_comparator+0x58>
10002954:	6803      	ldr	r3, [r0, #0]
10002956:	7b1b      	ldrb	r3, [r3, #12]
10002958:	429a      	cmp	r2, r3
1000295a:	d815      	bhi.n	10002988 <timer_pool_entry_comparator+0x58>
1000295c:	6883      	ldr	r3, [r0, #8]
1000295e:	480f      	ldr	r0, [pc, #60]	; (1000299c <timer_pool_entry_comparator+0x6c>)
10002960:	4684      	mov	ip, r0
10002962:	4462      	add	r2, ip
10002964:	0112      	lsls	r2, r2, #4
10002966:	189a      	adds	r2, r3, r2
10002968:	6810      	ldr	r0, [r2, #0]
1000296a:	6853      	ldr	r3, [r2, #4]
1000296c:	0002      	movs	r2, r0
1000296e:	2001      	movs	r0, #1
10002970:	428b      	cmp	r3, r1
10002972:	d801      	bhi.n	10002978 <timer_pool_entry_comparator+0x48>
10002974:	d00e      	beq.n	10002994 <timer_pool_entry_comparator+0x64>
10002976:	2000      	movs	r0, #0
10002978:	b2c0      	uxtb	r0, r0
1000297a:	bd10      	pop	{r4, pc}
1000297c:	4b08      	ldr	r3, [pc, #32]	; (100029a0 <timer_pool_entry_comparator+0x70>)
1000297e:	4a09      	ldr	r2, [pc, #36]	; (100029a4 <timer_pool_entry_comparator+0x74>)
10002980:	213b      	movs	r1, #59	; 0x3b
10002982:	4809      	ldr	r0, [pc, #36]	; (100029a8 <timer_pool_entry_comparator+0x78>)
10002984:	f000 fe64 	bl	10003650 <__assert_func>
10002988:	4b05      	ldr	r3, [pc, #20]	; (100029a0 <timer_pool_entry_comparator+0x70>)
1000298a:	4a06      	ldr	r2, [pc, #24]	; (100029a4 <timer_pool_entry_comparator+0x74>)
1000298c:	213b      	movs	r1, #59	; 0x3b
1000298e:	4806      	ldr	r0, [pc, #24]	; (100029a8 <timer_pool_entry_comparator+0x78>)
10002990:	f000 fe5e 	bl	10003650 <__assert_func>
10002994:	42a2      	cmp	r2, r4
10002996:	d8ef      	bhi.n	10002978 <timer_pool_entry_comparator+0x48>
10002998:	e7ed      	b.n	10002976 <timer_pool_entry_comparator+0x46>
1000299a:	46c0      	nop			; (mov r8, r8)
1000299c:	0fffffff 	.word	0x0fffffff
100029a0:	10006f2c 	.word	0x10006f2c
100029a4:	10007154 	.word	0x10007154
100029a8:	10006ee8 	.word	0x10006ee8

100029ac <ph_add_child_node>:
100029ac:	b510      	push	{r4, lr}
100029ae:	2900      	cmp	r1, #0
100029b0:	d01e      	beq.n	100029f0 <ph_add_child_node+0x44>
100029b2:	7b03      	ldrb	r3, [r0, #12]
100029b4:	4299      	cmp	r1, r3
100029b6:	d81b      	bhi.n	100029f0 <ph_add_child_node+0x44>
100029b8:	004b      	lsls	r3, r1, #1
100029ba:	185b      	adds	r3, r3, r1
100029bc:	3b03      	subs	r3, #3
100029be:	6804      	ldr	r4, [r0, #0]
100029c0:	46a4      	mov	ip, r4
100029c2:	4463      	add	r3, ip
100029c4:	2900      	cmp	r1, #0
100029c6:	d019      	beq.n	100029fc <ph_add_child_node+0x50>
100029c8:	2a00      	cmp	r2, #0
100029ca:	d01d      	beq.n	10002a08 <ph_add_child_node+0x5c>
100029cc:	4291      	cmp	r1, r2
100029ce:	d021      	beq.n	10002a14 <ph_add_child_node+0x68>
100029d0:	2a00      	cmp	r2, #0
100029d2:	d025      	beq.n	10002a20 <ph_add_child_node+0x74>
100029d4:	7b04      	ldrb	r4, [r0, #12]
100029d6:	42a2      	cmp	r2, r4
100029d8:	d822      	bhi.n	10002a20 <ph_add_child_node+0x74>
100029da:	6804      	ldr	r4, [r0, #0]
100029dc:	0050      	lsls	r0, r2, #1
100029de:	1880      	adds	r0, r0, r2
100029e0:	3803      	subs	r0, #3
100029e2:	1820      	adds	r0, r4, r0
100029e4:	7081      	strb	r1, [r0, #2]
100029e6:	7819      	ldrb	r1, [r3, #0]
100029e8:	2900      	cmp	r1, #0
100029ea:	d11f      	bne.n	10002a2c <ph_add_child_node+0x80>
100029ec:	701a      	strb	r2, [r3, #0]
100029ee:	bd10      	pop	{r4, pc}
100029f0:	4b10      	ldr	r3, [pc, #64]	; (10002a34 <ph_add_child_node+0x88>)
100029f2:	4a11      	ldr	r2, [pc, #68]	; (10002a38 <ph_add_child_node+0x8c>)
100029f4:	2169      	movs	r1, #105	; 0x69
100029f6:	4811      	ldr	r0, [pc, #68]	; (10002a3c <ph_add_child_node+0x90>)
100029f8:	f000 fe2a 	bl	10003650 <__assert_func>
100029fc:	4b10      	ldr	r3, [pc, #64]	; (10002a40 <ph_add_child_node+0x94>)
100029fe:	4a11      	ldr	r2, [pc, #68]	; (10002a44 <ph_add_child_node+0x98>)
10002a00:	3170      	adds	r1, #112	; 0x70
10002a02:	480e      	ldr	r0, [pc, #56]	; (10002a3c <ph_add_child_node+0x90>)
10002a04:	f000 fe24 	bl	10003650 <__assert_func>
10002a08:	4b0f      	ldr	r3, [pc, #60]	; (10002a48 <ph_add_child_node+0x9c>)
10002a0a:	4a0e      	ldr	r2, [pc, #56]	; (10002a44 <ph_add_child_node+0x98>)
10002a0c:	2171      	movs	r1, #113	; 0x71
10002a0e:	480b      	ldr	r0, [pc, #44]	; (10002a3c <ph_add_child_node+0x90>)
10002a10:	f000 fe1e 	bl	10003650 <__assert_func>
10002a14:	4b0d      	ldr	r3, [pc, #52]	; (10002a4c <ph_add_child_node+0xa0>)
10002a16:	4a0b      	ldr	r2, [pc, #44]	; (10002a44 <ph_add_child_node+0x98>)
10002a18:	2172      	movs	r1, #114	; 0x72
10002a1a:	4808      	ldr	r0, [pc, #32]	; (10002a3c <ph_add_child_node+0x90>)
10002a1c:	f000 fe18 	bl	10003650 <__assert_func>
10002a20:	4b04      	ldr	r3, [pc, #16]	; (10002a34 <ph_add_child_node+0x88>)
10002a22:	4a05      	ldr	r2, [pc, #20]	; (10002a38 <ph_add_child_node+0x8c>)
10002a24:	2169      	movs	r1, #105	; 0x69
10002a26:	4805      	ldr	r0, [pc, #20]	; (10002a3c <ph_add_child_node+0x90>)
10002a28:	f000 fe12 	bl	10003650 <__assert_func>
10002a2c:	7041      	strb	r1, [r0, #1]
10002a2e:	701a      	strb	r2, [r3, #0]
10002a30:	e7dd      	b.n	100029ee <ph_add_child_node+0x42>
10002a32:	46c0      	nop			; (mov r8, r8)
10002a34:	10006f60 	.word	0x10006f60
10002a38:	100071a8 	.word	0x100071a8
10002a3c:	10006f7c 	.word	0x10006f7c
10002a40:	10006fd4 	.word	0x10006fd4
10002a44:	10007184 	.word	0x10007184
10002a48:	10006fe0 	.word	0x10006fe0
10002a4c:	10006fec 	.word	0x10006fec

10002a50 <ph_merge_nodes>:
10002a50:	b570      	push	{r4, r5, r6, lr}
10002a52:	0006      	movs	r6, r0
10002a54:	000d      	movs	r5, r1
10002a56:	0014      	movs	r4, r2
10002a58:	2900      	cmp	r1, #0
10002a5a:	d014      	beq.n	10002a86 <ph_merge_nodes+0x36>
10002a5c:	2a00      	cmp	r2, #0
10002a5e:	d014      	beq.n	10002a8a <ph_merge_nodes+0x3a>
10002a60:	6880      	ldr	r0, [r0, #8]
10002a62:	6873      	ldr	r3, [r6, #4]
10002a64:	4798      	blx	r3
10002a66:	2800      	cmp	r0, #0
10002a68:	d006      	beq.n	10002a78 <ph_merge_nodes+0x28>
10002a6a:	0022      	movs	r2, r4
10002a6c:	0029      	movs	r1, r5
10002a6e:	0030      	movs	r0, r6
10002a70:	f7ff ff9c 	bl	100029ac <ph_add_child_node>
10002a74:	0028      	movs	r0, r5
10002a76:	e007      	b.n	10002a88 <ph_merge_nodes+0x38>
10002a78:	002a      	movs	r2, r5
10002a7a:	0021      	movs	r1, r4
10002a7c:	0030      	movs	r0, r6
10002a7e:	f7ff ff95 	bl	100029ac <ph_add_child_node>
10002a82:	0020      	movs	r0, r4
10002a84:	e000      	b.n	10002a88 <ph_merge_nodes+0x38>
10002a86:	0010      	movs	r0, r2
10002a88:	bd70      	pop	{r4, r5, r6, pc}
10002a8a:	0008      	movs	r0, r1
10002a8c:	e7fc      	b.n	10002a88 <ph_merge_nodes+0x38>
	...

10002a90 <add_alarm_under_lock>:
10002a90:	b5f0      	push	{r4, r5, r6, r7, lr}
10002a92:	b083      	sub	sp, #12
10002a94:	0005      	movs	r5, r0
10002a96:	9200      	str	r2, [sp, #0]
10002a98:	9301      	str	r3, [sp, #4]
10002a9a:	ab0a      	add	r3, sp, #40	; 0x28
10002a9c:	781c      	ldrb	r4, [r3, #0]
10002a9e:	ab0b      	add	r3, sp, #44	; 0x2c
10002aa0:	781f      	ldrb	r7, [r3, #0]
10002aa2:	2c00      	cmp	r4, #0
10002aa4:	d026      	beq.n	10002af4 <add_alarm_under_lock+0x64>
10002aa6:	6803      	ldr	r3, [r0, #0]
10002aa8:	7b5a      	ldrb	r2, [r3, #13]
10002aaa:	4294      	cmp	r4, r2
10002aac:	d107      	bne.n	10002abe <add_alarm_under_lock+0x2e>
10002aae:	2301      	movs	r3, #1
10002ab0:	2b00      	cmp	r3, #0
10002ab2:	d119      	bne.n	10002ae8 <add_alarm_under_lock+0x58>
10002ab4:	2c00      	cmp	r4, #0
10002ab6:	d13b      	bne.n	10002b30 <add_alarm_under_lock+0xa0>
10002ab8:	0020      	movs	r0, r4
10002aba:	b003      	add	sp, #12
10002abc:	bdf0      	pop	{r4, r5, r6, r7, pc}
10002abe:	2c00      	cmp	r4, #0
10002ac0:	d00c      	beq.n	10002adc <add_alarm_under_lock+0x4c>
10002ac2:	7b1a      	ldrb	r2, [r3, #12]
10002ac4:	4294      	cmp	r4, r2
10002ac6:	d809      	bhi.n	10002adc <add_alarm_under_lock+0x4c>
10002ac8:	681a      	ldr	r2, [r3, #0]
10002aca:	0063      	lsls	r3, r4, #1
10002acc:	191b      	adds	r3, r3, r4
10002ace:	3b03      	subs	r3, #3
10002ad0:	18d3      	adds	r3, r2, r3
10002ad2:	789b      	ldrb	r3, [r3, #2]
10002ad4:	2b00      	cmp	r3, #0
10002ad6:	d0eb      	beq.n	10002ab0 <add_alarm_under_lock+0x20>
10002ad8:	2301      	movs	r3, #1
10002ada:	e7e9      	b.n	10002ab0 <add_alarm_under_lock+0x20>
10002adc:	4b3e      	ldr	r3, [pc, #248]	; (10002bd8 <add_alarm_under_lock+0x148>)
10002ade:	4a3f      	ldr	r2, [pc, #252]	; (10002bdc <add_alarm_under_lock+0x14c>)
10002ae0:	2169      	movs	r1, #105	; 0x69
10002ae2:	483f      	ldr	r0, [pc, #252]	; (10002be0 <add_alarm_under_lock+0x150>)
10002ae4:	f000 fdb4 	bl	10003650 <__assert_func>
10002ae8:	4b3e      	ldr	r3, [pc, #248]	; (10002be4 <add_alarm_under_lock+0x154>)
10002aea:	4a3f      	ldr	r2, [pc, #252]	; (10002be8 <add_alarm_under_lock+0x158>)
10002aec:	2165      	movs	r1, #101	; 0x65
10002aee:	483f      	ldr	r0, [pc, #252]	; (10002bec <add_alarm_under_lock+0x15c>)
10002af0:	f000 fdae 	bl	10003650 <__assert_func>
10002af4:	6803      	ldr	r3, [r0, #0]
10002af6:	7b9c      	ldrb	r4, [r3, #14]
10002af8:	2c00      	cmp	r4, #0
10002afa:	d0db      	beq.n	10002ab4 <add_alarm_under_lock+0x24>
10002afc:	d012      	beq.n	10002b24 <add_alarm_under_lock+0x94>
10002afe:	7b1a      	ldrb	r2, [r3, #12]
10002b00:	4294      	cmp	r4, r2
10002b02:	d80f      	bhi.n	10002b24 <add_alarm_under_lock+0x94>
10002b04:	0062      	lsls	r2, r4, #1
10002b06:	1912      	adds	r2, r2, r4
10002b08:	3a03      	subs	r2, #3
10002b0a:	6819      	ldr	r1, [r3, #0]
10002b0c:	468c      	mov	ip, r1
10002b0e:	4462      	add	r2, ip
10002b10:	7851      	ldrb	r1, [r2, #1]
10002b12:	7399      	strb	r1, [r3, #14]
10002b14:	2900      	cmp	r1, #0
10002b16:	d100      	bne.n	10002b1a <add_alarm_under_lock+0x8a>
10002b18:	73d9      	strb	r1, [r3, #15]
10002b1a:	2300      	movs	r3, #0
10002b1c:	7093      	strb	r3, [r2, #2]
10002b1e:	7053      	strb	r3, [r2, #1]
10002b20:	7013      	strb	r3, [r2, #0]
10002b22:	e7c7      	b.n	10002ab4 <add_alarm_under_lock+0x24>
10002b24:	4b2c      	ldr	r3, [pc, #176]	; (10002bd8 <add_alarm_under_lock+0x148>)
10002b26:	4a2d      	ldr	r2, [pc, #180]	; (10002bdc <add_alarm_under_lock+0x14c>)
10002b28:	2169      	movs	r1, #105	; 0x69
10002b2a:	482d      	ldr	r0, [pc, #180]	; (10002be0 <add_alarm_under_lock+0x150>)
10002b2c:	f000 fd90 	bl	10003650 <__assert_func>
10002b30:	2c00      	cmp	r4, #0
10002b32:	d03a      	beq.n	10002baa <add_alarm_under_lock+0x11a>
10002b34:	682b      	ldr	r3, [r5, #0]
10002b36:	7b1b      	ldrb	r3, [r3, #12]
10002b38:	429c      	cmp	r4, r3
10002b3a:	d836      	bhi.n	10002baa <add_alarm_under_lock+0x11a>
10002b3c:	4b2c      	ldr	r3, [pc, #176]	; (10002bf0 <add_alarm_under_lock+0x160>)
10002b3e:	18e3      	adds	r3, r4, r3
10002b40:	011b      	lsls	r3, r3, #4
10002b42:	68aa      	ldr	r2, [r5, #8]
10002b44:	4694      	mov	ip, r2
10002b46:	4463      	add	r3, ip
10002b48:	9a00      	ldr	r2, [sp, #0]
10002b4a:	601a      	str	r2, [r3, #0]
10002b4c:	9a01      	ldr	r2, [sp, #4]
10002b4e:	605a      	str	r2, [r3, #4]
10002b50:	9a08      	ldr	r2, [sp, #32]
10002b52:	609a      	str	r2, [r3, #8]
10002b54:	9a09      	ldr	r2, [sp, #36]	; 0x24
10002b56:	60da      	str	r2, [r3, #12]
10002b58:	682e      	ldr	r6, [r5, #0]
10002b5a:	2c00      	cmp	r4, #0
10002b5c:	d02b      	beq.n	10002bb6 <add_alarm_under_lock+0x126>
10002b5e:	d030      	beq.n	10002bc2 <add_alarm_under_lock+0x132>
10002b60:	7b33      	ldrb	r3, [r6, #12]
10002b62:	429c      	cmp	r4, r3
10002b64:	d82d      	bhi.n	10002bc2 <add_alarm_under_lock+0x132>
10002b66:	0063      	lsls	r3, r4, #1
10002b68:	191b      	adds	r3, r3, r4
10002b6a:	3b03      	subs	r3, #3
10002b6c:	6832      	ldr	r2, [r6, #0]
10002b6e:	4694      	mov	ip, r2
10002b70:	4463      	add	r3, ip
10002b72:	2200      	movs	r2, #0
10002b74:	709a      	strb	r2, [r3, #2]
10002b76:	705a      	strb	r2, [r3, #1]
10002b78:	701a      	strb	r2, [r3, #0]
10002b7a:	7b71      	ldrb	r1, [r6, #13]
10002b7c:	0022      	movs	r2, r4
10002b7e:	0030      	movs	r0, r6
10002b80:	f7ff ff66 	bl	10002a50 <ph_merge_nodes>
10002b84:	7370      	strb	r0, [r6, #13]
10002b86:	4284      	cmp	r4, r0
10002b88:	d000      	beq.n	10002b8c <add_alarm_under_lock+0xfc>
10002b8a:	e795      	b.n	10002ab8 <add_alarm_under_lock+0x28>
10002b8c:	7d28      	ldrb	r0, [r5, #20]
10002b8e:	9a00      	ldr	r2, [sp, #0]
10002b90:	9b01      	ldr	r3, [sp, #4]
10002b92:	f000 fa8d 	bl	100030b0 <hardware_alarm_set_target>
10002b96:	1e06      	subs	r6, r0, #0
10002b98:	d001      	beq.n	10002b9e <add_alarm_under_lock+0x10e>
10002b9a:	2f00      	cmp	r7, #0
10002b9c:	d017      	beq.n	10002bce <add_alarm_under_lock+0x13e>
10002b9e:	9b0c      	ldr	r3, [sp, #48]	; 0x30
10002ba0:	2b00      	cmp	r3, #0
10002ba2:	d100      	bne.n	10002ba6 <add_alarm_under_lock+0x116>
10002ba4:	e788      	b.n	10002ab8 <add_alarm_under_lock+0x28>
10002ba6:	701e      	strb	r6, [r3, #0]
10002ba8:	e786      	b.n	10002ab8 <add_alarm_under_lock+0x28>
10002baa:	4b12      	ldr	r3, [pc, #72]	; (10002bf4 <add_alarm_under_lock+0x164>)
10002bac:	4a12      	ldr	r2, [pc, #72]	; (10002bf8 <add_alarm_under_lock+0x168>)
10002bae:	213b      	movs	r1, #59	; 0x3b
10002bb0:	480e      	ldr	r0, [pc, #56]	; (10002bec <add_alarm_under_lock+0x15c>)
10002bb2:	f000 fd4d 	bl	10003650 <__assert_func>
10002bb6:	4b11      	ldr	r3, [pc, #68]	; (10002bfc <add_alarm_under_lock+0x16c>)
10002bb8:	4a11      	ldr	r2, [pc, #68]	; (10002c00 <add_alarm_under_lock+0x170>)
10002bba:	21a6      	movs	r1, #166	; 0xa6
10002bbc:	4808      	ldr	r0, [pc, #32]	; (10002be0 <add_alarm_under_lock+0x150>)
10002bbe:	f000 fd47 	bl	10003650 <__assert_func>
10002bc2:	4b05      	ldr	r3, [pc, #20]	; (10002bd8 <add_alarm_under_lock+0x148>)
10002bc4:	4a05      	ldr	r2, [pc, #20]	; (10002bdc <add_alarm_under_lock+0x14c>)
10002bc6:	2169      	movs	r1, #105	; 0x69
10002bc8:	4805      	ldr	r0, [pc, #20]	; (10002be0 <add_alarm_under_lock+0x150>)
10002bca:	f000 fd41 	bl	10003650 <__assert_func>
10002bce:	6828      	ldr	r0, [r5, #0]
10002bd0:	0021      	movs	r1, r4
10002bd2:	f000 fcbb 	bl	1000354c <ph_remove_and_free_node>
10002bd6:	e7e2      	b.n	10002b9e <add_alarm_under_lock+0x10e>
10002bd8:	10006f60 	.word	0x10006f60
10002bdc:	100071a8 	.word	0x100071a8
10002be0:	10006f7c 	.word	0x10006f7c
10002be4:	10007004 	.word	0x10007004
10002be8:	100071b4 	.word	0x100071b4
10002bec:	10006ee8 	.word	0x10006ee8
10002bf0:	0fffffff 	.word	0x0fffffff
10002bf4:	10006f2c 	.word	0x10006f2c
10002bf8:	10007154 	.word	0x10007154
10002bfc:	10006ee4 	.word	0x10006ee4
10002c00:	10007198 	.word	0x10007198

10002c04 <alarm_pool_alarm_callback>:
10002c04:	b5f0      	push	{r4, r5, r6, r7, lr}
10002c06:	46de      	mov	lr, fp
10002c08:	4657      	mov	r7, sl
10002c0a:	464e      	mov	r6, r9
10002c0c:	4645      	mov	r5, r8
10002c0e:	b5e0      	push	{r5, r6, r7, lr}
10002c10:	b08b      	sub	sp, #44	; 0x2c
10002c12:	9009      	str	r0, [sp, #36]	; 0x24
10002c14:	2300      	movs	r3, #0
10002c16:	9308      	str	r3, [sp, #32]
10002c18:	0082      	lsls	r2, r0, #2
10002c1a:	4bb2      	ldr	r3, [pc, #712]	; (10002ee4 <alarm_pool_alarm_callback+0x2e0>)
10002c1c:	58d6      	ldr	r6, [r2, r3]
10002c1e:	0037      	movs	r7, r6
10002c20:	e032      	b.n	10002c88 <alarm_pool_alarm_callback+0x84>
10002c22:	4bb1      	ldr	r3, [pc, #708]	; (10002ee8 <alarm_pool_alarm_callback+0x2e4>)
10002c24:	4ab1      	ldr	r2, [pc, #708]	; (10002eec <alarm_pool_alarm_callback+0x2e8>)
10002c26:	213f      	movs	r1, #63	; 0x3f
10002c28:	48b1      	ldr	r0, [pc, #708]	; (10002ef0 <alarm_pool_alarm_callback+0x2ec>)
10002c2a:	f000 fd11 	bl	10003650 <__assert_func>
10002c2e:	4bb1      	ldr	r3, [pc, #708]	; (10002ef4 <alarm_pool_alarm_callback+0x2f0>)
10002c30:	4ab1      	ldr	r2, [pc, #708]	; (10002ef8 <alarm_pool_alarm_callback+0x2f4>)
10002c32:	213b      	movs	r1, #59	; 0x3b
10002c34:	48b1      	ldr	r0, [pc, #708]	; (10002efc <alarm_pool_alarm_callback+0x2f8>)
10002c36:	f000 fd0b 	bl	10003650 <__assert_func>
10002c3a:	4bb1      	ldr	r3, [pc, #708]	; (10002f00 <alarm_pool_alarm_callback+0x2fc>)
10002c3c:	4ab1      	ldr	r2, [pc, #708]	; (10002f04 <alarm_pool_alarm_callback+0x300>)
10002c3e:	218c      	movs	r1, #140	; 0x8c
10002c40:	48ae      	ldr	r0, [pc, #696]	; (10002efc <alarm_pool_alarm_callback+0x2f8>)
10002c42:	f000 fd05 	bl	10003650 <__assert_func>
10002c46:	4bb0      	ldr	r3, [pc, #704]	; (10002f08 <alarm_pool_alarm_callback+0x304>)
10002c48:	4aae      	ldr	r2, [pc, #696]	; (10002f04 <alarm_pool_alarm_callback+0x300>)
10002c4a:	2190      	movs	r1, #144	; 0x90
10002c4c:	48ab      	ldr	r0, [pc, #684]	; (10002efc <alarm_pool_alarm_callback+0x2f8>)
10002c4e:	f000 fcff 	bl	10003650 <__assert_func>
10002c52:	4ba8      	ldr	r3, [pc, #672]	; (10002ef4 <alarm_pool_alarm_callback+0x2f0>)
10002c54:	4aad      	ldr	r2, [pc, #692]	; (10002f0c <alarm_pool_alarm_callback+0x308>)
10002c56:	2140      	movs	r1, #64	; 0x40
10002c58:	48a8      	ldr	r0, [pc, #672]	; (10002efc <alarm_pool_alarm_callback+0x2f8>)
10002c5a:	f000 fcf9 	bl	10003650 <__assert_func>
10002c5e:	682a      	ldr	r2, [r5, #0]
10002c60:	686b      	ldr	r3, [r5, #4]
10002c62:	9809      	ldr	r0, [sp, #36]	; 0x24
10002c64:	f000 fa24 	bl	100030b0 <hardware_alarm_set_target>
10002c68:	2300      	movs	r3, #0
10002c6a:	469a      	mov	sl, r3
10002c6c:	4698      	mov	r8, r3
10002c6e:	687b      	ldr	r3, [r7, #4]
10002c70:	f3bf 8f5f 	dmb	sy
10002c74:	2200      	movs	r2, #0
10002c76:	601a      	str	r2, [r3, #0]
10002c78:	f386 8810 	msr	PRIMASK, r6
10002c7c:	4643      	mov	r3, r8
10002c7e:	2b00      	cmp	r3, #0
10002c80:	d151      	bne.n	10002d26 <alarm_pool_alarm_callback+0x122>
10002c82:	2800      	cmp	r0, #0
10002c84:	d100      	bne.n	10002c88 <alarm_pool_alarm_callback+0x84>
10002c86:	e126      	b.n	10002ed6 <alarm_pool_alarm_callback+0x2d2>
10002c88:	f000 f9be 	bl	10003008 <time_us_64>
10002c8c:	0002      	movs	r2, r0
10002c8e:	1e0b      	subs	r3, r1, #0
10002c90:	dbc7      	blt.n	10002c22 <alarm_pool_alarm_callback+0x1e>
10002c92:	2000      	movs	r0, #0
10002c94:	2100      	movs	r1, #0
10002c96:	9006      	str	r0, [sp, #24]
10002c98:	9107      	str	r1, [sp, #28]
10002c9a:	6878      	ldr	r0, [r7, #4]
10002c9c:	f3ef 8610 	mrs	r6, PRIMASK
10002ca0:	b672      	cpsid	i
10002ca2:	6801      	ldr	r1, [r0, #0]
10002ca4:	2900      	cmp	r1, #0
10002ca6:	d0fc      	beq.n	10002ca2 <alarm_pool_alarm_callback+0x9e>
10002ca8:	f3bf 8f5f 	dmb	sy
10002cac:	6839      	ldr	r1, [r7, #0]
10002cae:	4688      	mov	r8, r1
10002cb0:	7b4c      	ldrb	r4, [r1, #13]
10002cb2:	2c00      	cmp	r4, #0
10002cb4:	d032      	beq.n	10002d1c <alarm_pool_alarm_callback+0x118>
10002cb6:	d0ba      	beq.n	10002c2e <alarm_pool_alarm_callback+0x2a>
10002cb8:	7b09      	ldrb	r1, [r1, #12]
10002cba:	428c      	cmp	r4, r1
10002cbc:	d8b7      	bhi.n	10002c2e <alarm_pool_alarm_callback+0x2a>
10002cbe:	4994      	ldr	r1, [pc, #592]	; (10002f10 <alarm_pool_alarm_callback+0x30c>)
10002cc0:	1865      	adds	r5, r4, r1
10002cc2:	012d      	lsls	r5, r5, #4
10002cc4:	68b9      	ldr	r1, [r7, #8]
10002cc6:	468c      	mov	ip, r1
10002cc8:	4465      	add	r5, ip
10002cca:	6828      	ldr	r0, [r5, #0]
10002ccc:	6869      	ldr	r1, [r5, #4]
10002cce:	1a80      	subs	r0, r0, r2
10002cd0:	4199      	sbcs	r1, r3
10002cd2:	2900      	cmp	r1, #0
10002cd4:	dcc3      	bgt.n	10002c5e <alarm_pool_alarm_callback+0x5a>
10002cd6:	d101      	bne.n	10002cdc <alarm_pool_alarm_callback+0xd8>
10002cd8:	2800      	cmp	r0, #0
10002cda:	d1c0      	bne.n	10002c5e <alarm_pool_alarm_callback+0x5a>
10002cdc:	2100      	movs	r1, #0
10002cde:	4640      	mov	r0, r8
10002ce0:	f000 fc2a 	bl	10003538 <ph_remove_head>
10002ce4:	42a0      	cmp	r0, r4
10002ce6:	d1a8      	bne.n	10002c3a <alarm_pool_alarm_callback+0x36>
10002ce8:	682a      	ldr	r2, [r5, #0]
10002cea:	686b      	ldr	r3, [r5, #4]
10002cec:	9206      	str	r2, [sp, #24]
10002cee:	9307      	str	r3, [sp, #28]
10002cf0:	68ab      	ldr	r3, [r5, #8]
10002cf2:	4698      	mov	r8, r3
10002cf4:	68eb      	ldr	r3, [r5, #12]
10002cf6:	469a      	mov	sl, r3
10002cf8:	4643      	mov	r3, r8
10002cfa:	2b00      	cmp	r3, #0
10002cfc:	d0a3      	beq.n	10002c46 <alarm_pool_alarm_callback+0x42>
10002cfe:	2c00      	cmp	r4, #0
10002d00:	d0a7      	beq.n	10002c52 <alarm_pool_alarm_callback+0x4e>
10002d02:	683b      	ldr	r3, [r7, #0]
10002d04:	7b1b      	ldrb	r3, [r3, #12]
10002d06:	429c      	cmp	r4, r3
10002d08:	d8a3      	bhi.n	10002c52 <alarm_pool_alarm_callback+0x4e>
10002d0a:	1e63      	subs	r3, r4, #1
10002d0c:	68fa      	ldr	r2, [r7, #12]
10002d0e:	5cd3      	ldrb	r3, [r2, r3]
10002d10:	9308      	str	r3, [sp, #32]
10002d12:	021b      	lsls	r3, r3, #8
10002d14:	4318      	orrs	r0, r3
10002d16:	6138      	str	r0, [r7, #16]
10002d18:	2000      	movs	r0, #0
10002d1a:	e7a8      	b.n	10002c6e <alarm_pool_alarm_callback+0x6a>
10002d1c:	2300      	movs	r3, #0
10002d1e:	469a      	mov	sl, r3
10002d20:	4698      	mov	r8, r3
10002d22:	2000      	movs	r0, #0
10002d24:	e7a3      	b.n	10002c6e <alarm_pool_alarm_callback+0x6a>
10002d26:	9b08      	ldr	r3, [sp, #32]
10002d28:	021b      	lsls	r3, r3, #8
10002d2a:	4323      	orrs	r3, r4
10002d2c:	4699      	mov	r9, r3
10002d2e:	4651      	mov	r1, sl
10002d30:	0018      	movs	r0, r3
10002d32:	47c0      	blx	r8
10002d34:	0005      	movs	r5, r0
10002d36:	000e      	movs	r6, r1
10002d38:	687a      	ldr	r2, [r7, #4]
10002d3a:	f3ef 8b10 	mrs	fp, PRIMASK
10002d3e:	b672      	cpsid	i
10002d40:	6813      	ldr	r3, [r2, #0]
10002d42:	4259      	negs	r1, r3
10002d44:	414b      	adcs	r3, r1
10002d46:	b2d9      	uxtb	r1, r3
10002d48:	2b00      	cmp	r3, #0
10002d4a:	d1f9      	bne.n	10002d40 <alarm_pool_alarm_callback+0x13c>
10002d4c:	f3bf 8f5f 	dmb	sy
10002d50:	2e00      	cmp	r6, #0
10002d52:	db26      	blt.n	10002da2 <alarm_pool_alarm_callback+0x19e>
10002d54:	2e00      	cmp	r6, #0
10002d56:	dd52      	ble.n	10002dfe <alarm_pool_alarm_callback+0x1fa>
10002d58:	693b      	ldr	r3, [r7, #16]
10002d5a:	2b00      	cmp	r3, #0
10002d5c:	d053      	beq.n	10002e06 <alarm_pool_alarm_callback+0x202>
10002d5e:	454b      	cmp	r3, r9
10002d60:	d172      	bne.n	10002e48 <alarm_pool_alarm_callback+0x244>
10002d62:	f000 f951 	bl	10003008 <time_us_64>
10002d66:	0002      	movs	r2, r0
10002d68:	1e0b      	subs	r3, r1, #0
10002d6a:	db73      	blt.n	10002e54 <alarm_pool_alarm_callback+0x250>
10002d6c:	0001      	movs	r1, r0
10002d6e:	0018      	movs	r0, r3
10002d70:	1952      	adds	r2, r2, r5
10002d72:	4173      	adcs	r3, r6
10002d74:	4298      	cmp	r0, r3
10002d76:	d802      	bhi.n	10002d7e <alarm_pool_alarm_callback+0x17a>
10002d78:	d104      	bne.n	10002d84 <alarm_pool_alarm_callback+0x180>
10002d7a:	4291      	cmp	r1, r2
10002d7c:	d902      	bls.n	10002d84 <alarm_pool_alarm_callback+0x180>
10002d7e:	2201      	movs	r2, #1
10002d80:	4252      	negs	r2, r2
10002d82:	17d3      	asrs	r3, r2, #31
10002d84:	2b00      	cmp	r3, #0
10002d86:	db6b      	blt.n	10002e60 <alarm_pool_alarm_callback+0x25c>
10002d88:	2100      	movs	r1, #0
10002d8a:	9104      	str	r1, [sp, #16]
10002d8c:	3101      	adds	r1, #1
10002d8e:	9103      	str	r1, [sp, #12]
10002d90:	9402      	str	r4, [sp, #8]
10002d92:	4651      	mov	r1, sl
10002d94:	9101      	str	r1, [sp, #4]
10002d96:	4641      	mov	r1, r8
10002d98:	9100      	str	r1, [sp, #0]
10002d9a:	0038      	movs	r0, r7
10002d9c:	f7ff fe78 	bl	10002a90 <add_alarm_under_lock>
10002da0:	e049      	b.n	10002e36 <alarm_pool_alarm_callback+0x232>
10002da2:	693b      	ldr	r3, [r7, #16]
10002da4:	2b00      	cmp	r3, #0
10002da6:	d0d5      	beq.n	10002d54 <alarm_pool_alarm_callback+0x150>
10002da8:	454b      	cmp	r3, r9
10002daa:	d11c      	bne.n	10002de6 <alarm_pool_alarm_callback+0x1e2>
10002dac:	9a06      	ldr	r2, [sp, #24]
10002dae:	9b07      	ldr	r3, [sp, #28]
10002db0:	0010      	movs	r0, r2
10002db2:	0019      	movs	r1, r3
10002db4:	1b52      	subs	r2, r2, r5
10002db6:	41b3      	sbcs	r3, r6
10002db8:	4299      	cmp	r1, r3
10002dba:	d802      	bhi.n	10002dc2 <alarm_pool_alarm_callback+0x1be>
10002dbc:	d104      	bne.n	10002dc8 <alarm_pool_alarm_callback+0x1c4>
10002dbe:	4290      	cmp	r0, r2
10002dc0:	d902      	bls.n	10002dc8 <alarm_pool_alarm_callback+0x1c4>
10002dc2:	2201      	movs	r2, #1
10002dc4:	4252      	negs	r2, r2
10002dc6:	17d3      	asrs	r3, r2, #31
10002dc8:	2b00      	cmp	r3, #0
10002dca:	db12      	blt.n	10002df2 <alarm_pool_alarm_callback+0x1ee>
10002dcc:	2100      	movs	r1, #0
10002dce:	9104      	str	r1, [sp, #16]
10002dd0:	3101      	adds	r1, #1
10002dd2:	9103      	str	r1, [sp, #12]
10002dd4:	9402      	str	r4, [sp, #8]
10002dd6:	4651      	mov	r1, sl
10002dd8:	9101      	str	r1, [sp, #4]
10002dda:	4641      	mov	r1, r8
10002ddc:	9100      	str	r1, [sp, #0]
10002dde:	0038      	movs	r0, r7
10002de0:	f7ff fe56 	bl	10002a90 <add_alarm_under_lock>
10002de4:	e027      	b.n	10002e36 <alarm_pool_alarm_callback+0x232>
10002de6:	4b4b      	ldr	r3, [pc, #300]	; (10002f14 <alarm_pool_alarm_callback+0x310>)
10002de8:	4a46      	ldr	r2, [pc, #280]	; (10002f04 <alarm_pool_alarm_callback+0x300>)
10002dea:	219f      	movs	r1, #159	; 0x9f
10002dec:	4843      	ldr	r0, [pc, #268]	; (10002efc <alarm_pool_alarm_callback+0x2f8>)
10002dee:	f000 fc2f 	bl	10003650 <__assert_func>
10002df2:	4b3d      	ldr	r3, [pc, #244]	; (10002ee8 <alarm_pool_alarm_callback+0x2e4>)
10002df4:	4a3d      	ldr	r2, [pc, #244]	; (10002eec <alarm_pool_alarm_callback+0x2e8>)
10002df6:	213f      	movs	r1, #63	; 0x3f
10002df8:	483d      	ldr	r0, [pc, #244]	; (10002ef0 <alarm_pool_alarm_callback+0x2ec>)
10002dfa:	f000 fc29 	bl	10003650 <__assert_func>
10002dfe:	2e00      	cmp	r6, #0
10002e00:	d101      	bne.n	10002e06 <alarm_pool_alarm_callback+0x202>
10002e02:	2d00      	cmp	r5, #0
10002e04:	d1a8      	bne.n	10002d58 <alarm_pool_alarm_callback+0x154>
10002e06:	683a      	ldr	r2, [r7, #0]
10002e08:	2c00      	cmp	r4, #0
10002e0a:	d045      	beq.n	10002e98 <alarm_pool_alarm_callback+0x294>
10002e0c:	7b53      	ldrb	r3, [r2, #13]
10002e0e:	429c      	cmp	r4, r3
10002e10:	d12c      	bne.n	10002e6c <alarm_pool_alarm_callback+0x268>
10002e12:	2101      	movs	r1, #1
10002e14:	2900      	cmp	r1, #0
10002e16:	d13f      	bne.n	10002e98 <alarm_pool_alarm_callback+0x294>
10002e18:	7bd3      	ldrb	r3, [r2, #15]
10002e1a:	2b00      	cmp	r3, #0
10002e1c:	d142      	bne.n	10002ea4 <alarm_pool_alarm_callback+0x2a0>
10002e1e:	73d4      	strb	r4, [r2, #15]
10002e20:	2c00      	cmp	r4, #0
10002e22:	d052      	beq.n	10002eca <alarm_pool_alarm_callback+0x2c6>
10002e24:	683b      	ldr	r3, [r7, #0]
10002e26:	7b1b      	ldrb	r3, [r3, #12]
10002e28:	429c      	cmp	r4, r3
10002e2a:	d84e      	bhi.n	10002eca <alarm_pool_alarm_callback+0x2c6>
10002e2c:	68fa      	ldr	r2, [r7, #12]
10002e2e:	3c01      	subs	r4, #1
10002e30:	5d13      	ldrb	r3, [r2, r4]
10002e32:	3301      	adds	r3, #1
10002e34:	5513      	strb	r3, [r2, r4]
10002e36:	2300      	movs	r3, #0
10002e38:	613b      	str	r3, [r7, #16]
10002e3a:	687a      	ldr	r2, [r7, #4]
10002e3c:	f3bf 8f5f 	dmb	sy
10002e40:	6013      	str	r3, [r2, #0]
10002e42:	f38b 8810 	msr	PRIMASK, fp
10002e46:	e71f      	b.n	10002c88 <alarm_pool_alarm_callback+0x84>
10002e48:	4b32      	ldr	r3, [pc, #200]	; (10002f14 <alarm_pool_alarm_callback+0x310>)
10002e4a:	4a2e      	ldr	r2, [pc, #184]	; (10002f04 <alarm_pool_alarm_callback+0x300>)
10002e4c:	21a2      	movs	r1, #162	; 0xa2
10002e4e:	482b      	ldr	r0, [pc, #172]	; (10002efc <alarm_pool_alarm_callback+0x2f8>)
10002e50:	f000 fbfe 	bl	10003650 <__assert_func>
10002e54:	4b24      	ldr	r3, [pc, #144]	; (10002ee8 <alarm_pool_alarm_callback+0x2e4>)
10002e56:	4a25      	ldr	r2, [pc, #148]	; (10002eec <alarm_pool_alarm_callback+0x2e8>)
10002e58:	213f      	movs	r1, #63	; 0x3f
10002e5a:	4825      	ldr	r0, [pc, #148]	; (10002ef0 <alarm_pool_alarm_callback+0x2ec>)
10002e5c:	f000 fbf8 	bl	10003650 <__assert_func>
10002e60:	4b21      	ldr	r3, [pc, #132]	; (10002ee8 <alarm_pool_alarm_callback+0x2e4>)
10002e62:	4a22      	ldr	r2, [pc, #136]	; (10002eec <alarm_pool_alarm_callback+0x2e8>)
10002e64:	213f      	movs	r1, #63	; 0x3f
10002e66:	4822      	ldr	r0, [pc, #136]	; (10002ef0 <alarm_pool_alarm_callback+0x2ec>)
10002e68:	f000 fbf2 	bl	10003650 <__assert_func>
10002e6c:	2c00      	cmp	r4, #0
10002e6e:	d00d      	beq.n	10002e8c <alarm_pool_alarm_callback+0x288>
10002e70:	7b13      	ldrb	r3, [r2, #12]
10002e72:	429c      	cmp	r4, r3
10002e74:	d80a      	bhi.n	10002e8c <alarm_pool_alarm_callback+0x288>
10002e76:	0063      	lsls	r3, r4, #1
10002e78:	191b      	adds	r3, r3, r4
10002e7a:	3b03      	subs	r3, #3
10002e7c:	6810      	ldr	r0, [r2, #0]
10002e7e:	4684      	mov	ip, r0
10002e80:	4463      	add	r3, ip
10002e82:	789b      	ldrb	r3, [r3, #2]
10002e84:	2b00      	cmp	r3, #0
10002e86:	d0c5      	beq.n	10002e14 <alarm_pool_alarm_callback+0x210>
10002e88:	2101      	movs	r1, #1
10002e8a:	e7c3      	b.n	10002e14 <alarm_pool_alarm_callback+0x210>
10002e8c:	4b22      	ldr	r3, [pc, #136]	; (10002f18 <alarm_pool_alarm_callback+0x314>)
10002e8e:	4a23      	ldr	r2, [pc, #140]	; (10002f1c <alarm_pool_alarm_callback+0x318>)
10002e90:	2169      	movs	r1, #105	; 0x69
10002e92:	4823      	ldr	r0, [pc, #140]	; (10002f20 <alarm_pool_alarm_callback+0x31c>)
10002e94:	f000 fbdc 	bl	10003650 <__assert_func>
10002e98:	4b22      	ldr	r3, [pc, #136]	; (10002f24 <alarm_pool_alarm_callback+0x320>)
10002e9a:	4a23      	ldr	r2, [pc, #140]	; (10002f28 <alarm_pool_alarm_callback+0x324>)
10002e9c:	21f7      	movs	r1, #247	; 0xf7
10002e9e:	4820      	ldr	r0, [pc, #128]	; (10002f20 <alarm_pool_alarm_callback+0x31c>)
10002ea0:	f000 fbd6 	bl	10003650 <__assert_func>
10002ea4:	2b00      	cmp	r3, #0
10002ea6:	d00a      	beq.n	10002ebe <alarm_pool_alarm_callback+0x2ba>
10002ea8:	7b11      	ldrb	r1, [r2, #12]
10002eaa:	428b      	cmp	r3, r1
10002eac:	d807      	bhi.n	10002ebe <alarm_pool_alarm_callback+0x2ba>
10002eae:	0059      	lsls	r1, r3, #1
10002eb0:	18cb      	adds	r3, r1, r3
10002eb2:	3b03      	subs	r3, #3
10002eb4:	6811      	ldr	r1, [r2, #0]
10002eb6:	468c      	mov	ip, r1
10002eb8:	4463      	add	r3, ip
10002eba:	705c      	strb	r4, [r3, #1]
10002ebc:	e7af      	b.n	10002e1e <alarm_pool_alarm_callback+0x21a>
10002ebe:	4b16      	ldr	r3, [pc, #88]	; (10002f18 <alarm_pool_alarm_callback+0x314>)
10002ec0:	4a16      	ldr	r2, [pc, #88]	; (10002f1c <alarm_pool_alarm_callback+0x318>)
10002ec2:	2169      	movs	r1, #105	; 0x69
10002ec4:	4816      	ldr	r0, [pc, #88]	; (10002f20 <alarm_pool_alarm_callback+0x31c>)
10002ec6:	f000 fbc3 	bl	10003650 <__assert_func>
10002eca:	4b0a      	ldr	r3, [pc, #40]	; (10002ef4 <alarm_pool_alarm_callback+0x2f0>)
10002ecc:	4a0f      	ldr	r2, [pc, #60]	; (10002f0c <alarm_pool_alarm_callback+0x308>)
10002ece:	2140      	movs	r1, #64	; 0x40
10002ed0:	480a      	ldr	r0, [pc, #40]	; (10002efc <alarm_pool_alarm_callback+0x2f8>)
10002ed2:	f000 fbbd 	bl	10003650 <__assert_func>
10002ed6:	b00b      	add	sp, #44	; 0x2c
10002ed8:	bcf0      	pop	{r4, r5, r6, r7}
10002eda:	46bb      	mov	fp, r7
10002edc:	46b2      	mov	sl, r6
10002ede:	46a9      	mov	r9, r5
10002ee0:	46a0      	mov	r8, r4
10002ee2:	bdf0      	pop	{r4, r5, r6, r7, pc}
10002ee4:	20000434 	.word	0x20000434
10002ee8:	1000702c 	.word	0x1000702c
10002eec:	10007120 	.word	0x10007120
10002ef0:	10007048 	.word	0x10007048
10002ef4:	10006f2c 	.word	0x10006f2c
10002ef8:	10007154 	.word	0x10007154
10002efc:	10006ee8 	.word	0x10006ee8
10002f00:	1000709c 	.word	0x1000709c
10002f04:	10007138 	.word	0x10007138
10002f08:	100070b4 	.word	0x100070b4
10002f0c:	10007160 	.word	0x10007160
10002f10:	0fffffff 	.word	0x0fffffff
10002f14:	100070c0 	.word	0x100070c0
10002f18:	10006f60 	.word	0x10006f60
10002f1c:	100071a8 	.word	0x100071a8
10002f20:	10006f7c 	.word	0x10006f7c
10002f24:	100070fc 	.word	0x100070fc
10002f28:	10007174 	.word	0x10007174

10002f2c <alarm_pool_init_default>:
10002f2c:	b510      	push	{r4, lr}
10002f2e:	4b0a      	ldr	r3, [pc, #40]	; (10002f58 <alarm_pool_init_default+0x2c>)
10002f30:	685b      	ldr	r3, [r3, #4]
10002f32:	2b00      	cmp	r3, #0
10002f34:	d004      	beq.n	10002f40 <alarm_pool_init_default+0x14>
10002f36:	210a      	movs	r1, #10
10002f38:	4808      	ldr	r0, [pc, #32]	; (10002f5c <alarm_pool_init_default+0x30>)
10002f3a:	f000 f94d 	bl	100031d8 <lock_init>
10002f3e:	bd10      	pop	{r4, pc}
10002f40:	4c05      	ldr	r4, [pc, #20]	; (10002f58 <alarm_pool_init_default+0x2c>)
10002f42:	0023      	movs	r3, r4
10002f44:	4a06      	ldr	r2, [pc, #24]	; (10002f60 <alarm_pool_init_default+0x34>)
10002f46:	2110      	movs	r1, #16
10002f48:	6820      	ldr	r0, [r4, #0]
10002f4a:	f000 fa15 	bl	10003378 <ph_post_alloc_init>
10002f4e:	2103      	movs	r1, #3
10002f50:	0020      	movs	r0, r4
10002f52:	f7ff fccd 	bl	100028f0 <alarm_pool_post_alloc_init>
10002f56:	e7ee      	b.n	10002f36 <alarm_pool_init_default+0xa>
10002f58:	200001d4 	.word	0x200001d4
10002f5c:	200008e8 	.word	0x200008e8
10002f60:	10002931 	.word	0x10002931

10002f64 <hardware_alarm_irq_handler>:
10002f64:	b570      	push	{r4, r5, r6, lr}
10002f66:	f3ef 8305 	mrs	r3, IPSR
10002f6a:	203f      	movs	r0, #63	; 0x3f
10002f6c:	4018      	ands	r0, r3
10002f6e:	3810      	subs	r0, #16
10002f70:	f3ef 8c10 	mrs	ip, PRIMASK
10002f74:	b672      	cpsid	i
10002f76:	4b19      	ldr	r3, [pc, #100]	; (10002fdc <hardware_alarm_irq_handler+0x78>)
10002f78:	681b      	ldr	r3, [r3, #0]
10002f7a:	2b00      	cmp	r3, #0
10002f7c:	d0fb      	beq.n	10002f76 <hardware_alarm_irq_handler+0x12>
10002f7e:	f3bf 8f5f 	dmb	sy
10002f82:	2301      	movs	r3, #1
10002f84:	0019      	movs	r1, r3
10002f86:	4081      	lsls	r1, r0
10002f88:	4a15      	ldr	r2, [pc, #84]	; (10002fe0 <hardware_alarm_irq_handler+0x7c>)
10002f8a:	6351      	str	r1, [r2, #52]	; 0x34
10002f8c:	4a15      	ldr	r2, [pc, #84]	; (10002fe4 <hardware_alarm_irq_handler+0x80>)
10002f8e:	7812      	ldrb	r2, [r2, #0]
10002f90:	0014      	movs	r4, r2
10002f92:	40c4      	lsrs	r4, r0
10002f94:	4223      	tst	r3, r4
10002f96:	d014      	beq.n	10002fc2 <hardware_alarm_irq_handler+0x5e>
10002f98:	4b11      	ldr	r3, [pc, #68]	; (10002fe0 <hardware_alarm_irq_handler+0x7c>)
10002f9a:	6a5c      	ldr	r4, [r3, #36]	; 0x24
10002f9c:	0083      	lsls	r3, r0, #2
10002f9e:	4d12      	ldr	r5, [pc, #72]	; (10002fe8 <hardware_alarm_irq_handler+0x84>)
10002fa0:	595b      	ldr	r3, [r3, r5]
10002fa2:	429c      	cmp	r4, r3
10002fa4:	d306      	bcc.n	10002fb4 <hardware_alarm_irq_handler+0x50>
10002fa6:	0083      	lsls	r3, r0, #2
10002fa8:	4c10      	ldr	r4, [pc, #64]	; (10002fec <hardware_alarm_irq_handler+0x88>)
10002faa:	591b      	ldr	r3, [r3, r4]
10002fac:	438a      	bics	r2, r1
10002fae:	490d      	ldr	r1, [pc, #52]	; (10002fe4 <hardware_alarm_irq_handler+0x80>)
10002fb0:	700a      	strb	r2, [r1, #0]
10002fb2:	e007      	b.n	10002fc4 <hardware_alarm_irq_handler+0x60>
10002fb4:	4a0a      	ldr	r2, [pc, #40]	; (10002fe0 <hardware_alarm_irq_handler+0x7c>)
10002fb6:	1d03      	adds	r3, r0, #4
10002fb8:	009b      	lsls	r3, r3, #2
10002fba:	5899      	ldr	r1, [r3, r2]
10002fbc:	5099      	str	r1, [r3, r2]
10002fbe:	2300      	movs	r3, #0
10002fc0:	e000      	b.n	10002fc4 <hardware_alarm_irq_handler+0x60>
10002fc2:	2300      	movs	r3, #0
10002fc4:	f3bf 8f5f 	dmb	sy
10002fc8:	4a04      	ldr	r2, [pc, #16]	; (10002fdc <hardware_alarm_irq_handler+0x78>)
10002fca:	2100      	movs	r1, #0
10002fcc:	6011      	str	r1, [r2, #0]
10002fce:	f38c 8810 	msr	PRIMASK, ip
10002fd2:	2b00      	cmp	r3, #0
10002fd4:	d000      	beq.n	10002fd8 <hardware_alarm_irq_handler+0x74>
10002fd6:	4798      	blx	r3
10002fd8:	bd70      	pop	{r4, r5, r6, pc}
10002fda:	46c0      	nop			; (mov r8, r8)
10002fdc:	d0000128 	.word	0xd0000128
10002fe0:	40054000 	.word	0x40054000
10002fe4:	20020a32 	.word	0x20020a32
10002fe8:	200008ec 	.word	0x200008ec
10002fec:	200003b4 	.word	0x200003b4

10002ff0 <hardware_alarm_claim>:
10002ff0:	b510      	push	{r4, lr}
10002ff2:	0001      	movs	r1, r0
10002ff4:	4a02      	ldr	r2, [pc, #8]	; (10003000 <hardware_alarm_claim+0x10>)
10002ff6:	4803      	ldr	r0, [pc, #12]	; (10003004 <hardware_alarm_claim+0x14>)
10002ff8:	f7ff fb06 	bl	10002608 <hw_claim_or_assert>
10002ffc:	bd10      	pop	{r4, pc}
10002ffe:	46c0      	nop			; (mov r8, r8)
10003000:	100071cc 	.word	0x100071cc
10003004:	20020a30 	.word	0x20020a30

10003008 <time_us_64>:
10003008:	4b04      	ldr	r3, [pc, #16]	; (1000301c <time_us_64+0x14>)
1000300a:	6a5b      	ldr	r3, [r3, #36]	; 0x24
1000300c:	4a03      	ldr	r2, [pc, #12]	; (1000301c <time_us_64+0x14>)
1000300e:	6a90      	ldr	r0, [r2, #40]	; 0x28
10003010:	0019      	movs	r1, r3
10003012:	6a53      	ldr	r3, [r2, #36]	; 0x24
10003014:	4299      	cmp	r1, r3
10003016:	d1f9      	bne.n	1000300c <time_us_64+0x4>
10003018:	4770      	bx	lr
1000301a:	46c0      	nop			; (mov r8, r8)
1000301c:	40054000 	.word	0x40054000

10003020 <hardware_alarm_set_callback>:
10003020:	b570      	push	{r4, r5, r6, lr}
10003022:	0004      	movs	r4, r0
10003024:	000d      	movs	r5, r1
10003026:	f3ef 8610 	mrs	r6, PRIMASK
1000302a:	b672      	cpsid	i
1000302c:	4b1b      	ldr	r3, [pc, #108]	; (1000309c <hardware_alarm_set_callback+0x7c>)
1000302e:	681b      	ldr	r3, [r3, #0]
10003030:	2b00      	cmp	r3, #0
10003032:	d0fb      	beq.n	1000302c <hardware_alarm_set_callback+0xc>
10003034:	f3bf 8f5f 	dmb	sy
10003038:	2d00      	cmp	r5, #0
1000303a:	d01c      	beq.n	10003076 <hardware_alarm_set_callback+0x56>
1000303c:	0020      	movs	r0, r4
1000303e:	f000 fd39 	bl	10003ab4 <irq_get_vtable_handler>
10003042:	4b17      	ldr	r3, [pc, #92]	; (100030a0 <hardware_alarm_set_callback+0x80>)
10003044:	4283      	cmp	r3, r0
10003046:	d00b      	beq.n	10003060 <hardware_alarm_set_callback+0x40>
10003048:	0019      	movs	r1, r3
1000304a:	0020      	movs	r0, r4
1000304c:	f000 fd3a 	bl	10003ac4 <irq_set_exclusive_handler>
10003050:	2101      	movs	r1, #1
10003052:	0020      	movs	r0, r4
10003054:	f000 fd26 	bl	10003aa4 <irq_set_enabled>
10003058:	2301      	movs	r3, #1
1000305a:	40a3      	lsls	r3, r4
1000305c:	4a11      	ldr	r2, [pc, #68]	; (100030a4 <hardware_alarm_set_callback+0x84>)
1000305e:	6013      	str	r3, [r2, #0]
10003060:	00a4      	lsls	r4, r4, #2
10003062:	4b11      	ldr	r3, [pc, #68]	; (100030a8 <hardware_alarm_set_callback+0x88>)
10003064:	50e5      	str	r5, [r4, r3]
10003066:	f3bf 8f5f 	dmb	sy
1000306a:	4b0c      	ldr	r3, [pc, #48]	; (1000309c <hardware_alarm_set_callback+0x7c>)
1000306c:	2200      	movs	r2, #0
1000306e:	601a      	str	r2, [r3, #0]
10003070:	f386 8810 	msr	PRIMASK, r6
10003074:	bd70      	pop	{r4, r5, r6, pc}
10003076:	00a2      	lsls	r2, r4, #2
10003078:	4b0b      	ldr	r3, [pc, #44]	; (100030a8 <hardware_alarm_set_callback+0x88>)
1000307a:	2100      	movs	r1, #0
1000307c:	50d1      	str	r1, [r2, r3]
1000307e:	2201      	movs	r2, #1
10003080:	40a2      	lsls	r2, r4
10003082:	490a      	ldr	r1, [pc, #40]	; (100030ac <hardware_alarm_set_callback+0x8c>)
10003084:	780b      	ldrb	r3, [r1, #0]
10003086:	4393      	bics	r3, r2
10003088:	700b      	strb	r3, [r1, #0]
1000308a:	4905      	ldr	r1, [pc, #20]	; (100030a0 <hardware_alarm_set_callback+0x80>)
1000308c:	0020      	movs	r0, r4
1000308e:	f000 fd43 	bl	10003b18 <irq_remove_handler>
10003092:	2100      	movs	r1, #0
10003094:	0020      	movs	r0, r4
10003096:	f000 fd05 	bl	10003aa4 <irq_set_enabled>
1000309a:	e7e4      	b.n	10003066 <hardware_alarm_set_callback+0x46>
1000309c:	d0000128 	.word	0xd0000128
100030a0:	10002f65 	.word	0x10002f65
100030a4:	40056038 	.word	0x40056038
100030a8:	200003b4 	.word	0x200003b4
100030ac:	20020a32 	.word	0x20020a32

100030b0 <hardware_alarm_set_target>:
100030b0:	b5f0      	push	{r4, r5, r6, r7, lr}
100030b2:	46de      	mov	lr, fp
100030b4:	b500      	push	{lr}
100030b6:	b084      	sub	sp, #16
100030b8:	0004      	movs	r4, r0
100030ba:	0015      	movs	r5, r2
100030bc:	9201      	str	r2, [sp, #4]
100030be:	001e      	movs	r6, r3
100030c0:	9302      	str	r3, [sp, #8]
100030c2:	f7ff ffa1 	bl	10003008 <time_us_64>
100030c6:	9503      	str	r5, [sp, #12]
100030c8:	428e      	cmp	r6, r1
100030ca:	d802      	bhi.n	100030d2 <hardware_alarm_set_target+0x22>
100030cc:	d14e      	bne.n	1000316c <hardware_alarm_set_target+0xbc>
100030ce:	4285      	cmp	r5, r0
100030d0:	d94c      	bls.n	1000316c <hardware_alarm_set_target+0xbc>
100030d2:	f3ef 8b10 	mrs	fp, PRIMASK
100030d6:	b672      	cpsid	i
100030d8:	4b27      	ldr	r3, [pc, #156]	; (10003178 <hardware_alarm_set_target+0xc8>)
100030da:	681b      	ldr	r3, [r3, #0]
100030dc:	2b00      	cmp	r3, #0
100030de:	d0fb      	beq.n	100030d8 <hardware_alarm_set_target+0x28>
100030e0:	f3bf 8f5f 	dmb	sy
100030e4:	4a25      	ldr	r2, [pc, #148]	; (1000317c <hardware_alarm_set_target+0xcc>)
100030e6:	7817      	ldrb	r7, [r2, #0]
100030e8:	2501      	movs	r5, #1
100030ea:	40a5      	lsls	r5, r4
100030ec:	b2eb      	uxtb	r3, r5
100030ee:	433b      	orrs	r3, r7
100030f0:	7013      	strb	r3, [r2, #0]
100030f2:	4b23      	ldr	r3, [pc, #140]	; (10003180 <hardware_alarm_set_target+0xd0>)
100030f4:	635d      	str	r5, [r3, #52]	; 0x34
100030f6:	1d22      	adds	r2, r4, #4
100030f8:	0092      	lsls	r2, r2, #2
100030fa:	9901      	ldr	r1, [sp, #4]
100030fc:	50d1      	str	r1, [r2, r3]
100030fe:	00a2      	lsls	r2, r4, #2
10003100:	4920      	ldr	r1, [pc, #128]	; (10003184 <hardware_alarm_set_target+0xd4>)
10003102:	9802      	ldr	r0, [sp, #8]
10003104:	5050      	str	r0, [r2, r1]
10003106:	6a1b      	ldr	r3, [r3, #32]
10003108:	422b      	tst	r3, r5
1000310a:	d112      	bne.n	10003132 <hardware_alarm_set_target+0x82>
1000310c:	4b1c      	ldr	r3, [pc, #112]	; (10003180 <hardware_alarm_set_target+0xd0>)
1000310e:	6c1b      	ldr	r3, [r3, #64]	; 0x40
10003110:	422b      	tst	r3, r5
10003112:	d008      	beq.n	10003126 <hardware_alarm_set_target+0x76>
10003114:	2000      	movs	r0, #0
10003116:	f3bf 8f5f 	dmb	sy
1000311a:	4b17      	ldr	r3, [pc, #92]	; (10003178 <hardware_alarm_set_target+0xc8>)
1000311c:	2200      	movs	r2, #0
1000311e:	601a      	str	r2, [r3, #0]
10003120:	f38b 8810 	msr	PRIMASK, fp
10003124:	e023      	b.n	1000316e <hardware_alarm_set_target+0xbe>
10003126:	4b18      	ldr	r3, [pc, #96]	; (10003188 <hardware_alarm_set_target+0xd8>)
10003128:	4a18      	ldr	r2, [pc, #96]	; (1000318c <hardware_alarm_set_target+0xdc>)
1000312a:	21c1      	movs	r1, #193	; 0xc1
1000312c:	4818      	ldr	r0, [pc, #96]	; (10003190 <hardware_alarm_set_target+0xe0>)
1000312e:	f000 fa8f 	bl	10003650 <__assert_func>
10003132:	f7ff ff69 	bl	10003008 <time_us_64>
10003136:	428e      	cmp	r6, r1
10003138:	d814      	bhi.n	10003164 <hardware_alarm_set_target+0xb4>
1000313a:	d102      	bne.n	10003142 <hardware_alarm_set_target+0x92>
1000313c:	9b03      	ldr	r3, [sp, #12]
1000313e:	4283      	cmp	r3, r0
10003140:	d810      	bhi.n	10003164 <hardware_alarm_set_target+0xb4>
10003142:	4b0e      	ldr	r3, [pc, #56]	; (1000317c <hardware_alarm_set_target+0xcc>)
10003144:	781b      	ldrb	r3, [r3, #0]
10003146:	42bb      	cmp	r3, r7
10003148:	d00e      	beq.n	10003168 <hardware_alarm_set_target+0xb8>
1000314a:	4b0d      	ldr	r3, [pc, #52]	; (10003180 <hardware_alarm_set_target+0xd0>)
1000314c:	621d      	str	r5, [r3, #32]
1000314e:	635d      	str	r5, [r3, #52]	; 0x34
10003150:	201f      	movs	r0, #31
10003152:	4004      	ands	r4, r0
10003154:	2301      	movs	r3, #1
10003156:	40a3      	lsls	r3, r4
10003158:	4a0e      	ldr	r2, [pc, #56]	; (10003194 <hardware_alarm_set_target+0xe4>)
1000315a:	6013      	str	r3, [r2, #0]
1000315c:	4b07      	ldr	r3, [pc, #28]	; (1000317c <hardware_alarm_set_target+0xcc>)
1000315e:	701f      	strb	r7, [r3, #0]
10003160:	381e      	subs	r0, #30
10003162:	e7d8      	b.n	10003116 <hardware_alarm_set_target+0x66>
10003164:	2000      	movs	r0, #0
10003166:	e7d6      	b.n	10003116 <hardware_alarm_set_target+0x66>
10003168:	2001      	movs	r0, #1
1000316a:	e7d4      	b.n	10003116 <hardware_alarm_set_target+0x66>
1000316c:	2001      	movs	r0, #1
1000316e:	b004      	add	sp, #16
10003170:	bc80      	pop	{r7}
10003172:	46bb      	mov	fp, r7
10003174:	bdf0      	pop	{r4, r5, r6, r7, pc}
10003176:	46c0      	nop			; (mov r8, r8)
10003178:	d0000128 	.word	0xd0000128
1000317c:	20020a32 	.word	0x20020a32
10003180:	40054000 	.word	0x40054000
10003184:	200008ec 	.word	0x200008ec
10003188:	100071f0 	.word	0x100071f0
1000318c:	10007264 	.word	0x10007264
10003190:	10007214 	.word	0x10007214
10003194:	e000e280 	.word	0xe000e280

10003198 <hardware_alarm_cancel>:
10003198:	f3ef 8c10 	mrs	ip, PRIMASK
1000319c:	b672      	cpsid	i
1000319e:	4b0b      	ldr	r3, [pc, #44]	; (100031cc <hardware_alarm_cancel+0x34>)
100031a0:	681b      	ldr	r3, [r3, #0]
100031a2:	2b00      	cmp	r3, #0
100031a4:	d0fb      	beq.n	1000319e <hardware_alarm_cancel+0x6>
100031a6:	f3bf 8f5f 	dmb	sy
100031aa:	2301      	movs	r3, #1
100031ac:	4083      	lsls	r3, r0
100031ae:	4a08      	ldr	r2, [pc, #32]	; (100031d0 <hardware_alarm_cancel+0x38>)
100031b0:	6213      	str	r3, [r2, #32]
100031b2:	4908      	ldr	r1, [pc, #32]	; (100031d4 <hardware_alarm_cancel+0x3c>)
100031b4:	780a      	ldrb	r2, [r1, #0]
100031b6:	439a      	bics	r2, r3
100031b8:	700a      	strb	r2, [r1, #0]
100031ba:	f3bf 8f5f 	dmb	sy
100031be:	4b03      	ldr	r3, [pc, #12]	; (100031cc <hardware_alarm_cancel+0x34>)
100031c0:	2200      	movs	r2, #0
100031c2:	601a      	str	r2, [r3, #0]
100031c4:	f38c 8810 	msr	PRIMASK, ip
100031c8:	4770      	bx	lr
100031ca:	46c0      	nop			; (mov r8, r8)
100031cc:	d0000128 	.word	0xd0000128
100031d0:	40054000 	.word	0x40054000
100031d4:	20020a32 	.word	0x20020a32

100031d8 <lock_init>:
100031d8:	4b02      	ldr	r3, [pc, #8]	; (100031e4 <lock_init+0xc>)
100031da:	469c      	mov	ip, r3
100031dc:	4461      	add	r1, ip
100031de:	0089      	lsls	r1, r1, #2
100031e0:	6001      	str	r1, [r0, #0]
100031e2:	4770      	bx	lr
100031e4:	34000040 	.word	0x34000040

100031e8 <mutex_init>:
100031e8:	b510      	push	{r4, lr}
100031ea:	0004      	movs	r4, r0
100031ec:	f7ff fa40 	bl	10002670 <next_striped_spin_lock_num>
100031f0:	0001      	movs	r1, r0
100031f2:	0020      	movs	r0, r4
100031f4:	f7ff fff0 	bl	100031d8 <lock_init>
100031f8:	2301      	movs	r3, #1
100031fa:	425b      	negs	r3, r3
100031fc:	6063      	str	r3, [r4, #4]
100031fe:	f3bf 8f5f 	dmb	sy
10003202:	bd10      	pop	{r4, pc}

10003204 <recursive_mutex_init>:
10003204:	b510      	push	{r4, lr}
10003206:	0004      	movs	r4, r0
10003208:	f7ff fa32 	bl	10002670 <next_striped_spin_lock_num>
1000320c:	0001      	movs	r1, r0
1000320e:	0020      	movs	r0, r4
10003210:	f7ff ffe2 	bl	100031d8 <lock_init>
10003214:	2301      	movs	r3, #1
10003216:	425b      	negs	r3, r3
10003218:	6063      	str	r3, [r4, #4]
1000321a:	2300      	movs	r3, #0
1000321c:	7223      	strb	r3, [r4, #8]
1000321e:	f3bf 8f5f 	dmb	sy
10003222:	bd10      	pop	{r4, pc}

10003224 <ph_add_child_node>:
10003224:	b510      	push	{r4, lr}
10003226:	2900      	cmp	r1, #0
10003228:	d01e      	beq.n	10003268 <ph_add_child_node+0x44>
1000322a:	7b03      	ldrb	r3, [r0, #12]
1000322c:	4299      	cmp	r1, r3
1000322e:	d81b      	bhi.n	10003268 <ph_add_child_node+0x44>
10003230:	004b      	lsls	r3, r1, #1
10003232:	185b      	adds	r3, r3, r1
10003234:	3b03      	subs	r3, #3
10003236:	6804      	ldr	r4, [r0, #0]
10003238:	46a4      	mov	ip, r4
1000323a:	4463      	add	r3, ip
1000323c:	2900      	cmp	r1, #0
1000323e:	d019      	beq.n	10003274 <ph_add_child_node+0x50>
10003240:	2a00      	cmp	r2, #0
10003242:	d01d      	beq.n	10003280 <ph_add_child_node+0x5c>
10003244:	4291      	cmp	r1, r2
10003246:	d021      	beq.n	1000328c <ph_add_child_node+0x68>
10003248:	2a00      	cmp	r2, #0
1000324a:	d025      	beq.n	10003298 <ph_add_child_node+0x74>
1000324c:	7b04      	ldrb	r4, [r0, #12]
1000324e:	42a2      	cmp	r2, r4
10003250:	d822      	bhi.n	10003298 <ph_add_child_node+0x74>
10003252:	6804      	ldr	r4, [r0, #0]
10003254:	0050      	lsls	r0, r2, #1
10003256:	1880      	adds	r0, r0, r2
10003258:	3803      	subs	r0, #3
1000325a:	1820      	adds	r0, r4, r0
1000325c:	7081      	strb	r1, [r0, #2]
1000325e:	7819      	ldrb	r1, [r3, #0]
10003260:	2900      	cmp	r1, #0
10003262:	d11f      	bne.n	100032a4 <ph_add_child_node+0x80>
10003264:	701a      	strb	r2, [r3, #0]
10003266:	bd10      	pop	{r4, pc}
10003268:	4b10      	ldr	r3, [pc, #64]	; (100032ac <ph_add_child_node+0x88>)
1000326a:	4a11      	ldr	r2, [pc, #68]	; (100032b0 <ph_add_child_node+0x8c>)
1000326c:	2169      	movs	r1, #105	; 0x69
1000326e:	4811      	ldr	r0, [pc, #68]	; (100032b4 <ph_add_child_node+0x90>)
10003270:	f000 f9ee 	bl	10003650 <__assert_func>
10003274:	4b10      	ldr	r3, [pc, #64]	; (100032b8 <ph_add_child_node+0x94>)
10003276:	4a11      	ldr	r2, [pc, #68]	; (100032bc <ph_add_child_node+0x98>)
10003278:	3170      	adds	r1, #112	; 0x70
1000327a:	480e      	ldr	r0, [pc, #56]	; (100032b4 <ph_add_child_node+0x90>)
1000327c:	f000 f9e8 	bl	10003650 <__assert_func>
10003280:	4b0f      	ldr	r3, [pc, #60]	; (100032c0 <ph_add_child_node+0x9c>)
10003282:	4a0e      	ldr	r2, [pc, #56]	; (100032bc <ph_add_child_node+0x98>)
10003284:	2171      	movs	r1, #113	; 0x71
10003286:	480b      	ldr	r0, [pc, #44]	; (100032b4 <ph_add_child_node+0x90>)
10003288:	f000 f9e2 	bl	10003650 <__assert_func>
1000328c:	4b0d      	ldr	r3, [pc, #52]	; (100032c4 <ph_add_child_node+0xa0>)
1000328e:	4a0b      	ldr	r2, [pc, #44]	; (100032bc <ph_add_child_node+0x98>)
10003290:	2172      	movs	r1, #114	; 0x72
10003292:	4808      	ldr	r0, [pc, #32]	; (100032b4 <ph_add_child_node+0x90>)
10003294:	f000 f9dc 	bl	10003650 <__assert_func>
10003298:	4b04      	ldr	r3, [pc, #16]	; (100032ac <ph_add_child_node+0x88>)
1000329a:	4a05      	ldr	r2, [pc, #20]	; (100032b0 <ph_add_child_node+0x8c>)
1000329c:	2169      	movs	r1, #105	; 0x69
1000329e:	4805      	ldr	r0, [pc, #20]	; (100032b4 <ph_add_child_node+0x90>)
100032a0:	f000 f9d6 	bl	10003650 <__assert_func>
100032a4:	7041      	strb	r1, [r0, #1]
100032a6:	701a      	strb	r2, [r3, #0]
100032a8:	e7dd      	b.n	10003266 <ph_add_child_node+0x42>
100032aa:	46c0      	nop			; (mov r8, r8)
100032ac:	10006f60 	.word	0x10006f60
100032b0:	10007424 	.word	0x10007424
100032b4:	10006f7c 	.word	0x10006f7c
100032b8:	10006fd4 	.word	0x10006fd4
100032bc:	10007410 	.word	0x10007410
100032c0:	10006fe0 	.word	0x10006fe0
100032c4:	10006fec 	.word	0x10006fec

100032c8 <ph_merge_nodes>:
100032c8:	b570      	push	{r4, r5, r6, lr}
100032ca:	0006      	movs	r6, r0
100032cc:	000d      	movs	r5, r1
100032ce:	0014      	movs	r4, r2
100032d0:	2900      	cmp	r1, #0
100032d2:	d014      	beq.n	100032fe <ph_merge_nodes+0x36>
100032d4:	2a00      	cmp	r2, #0
100032d6:	d014      	beq.n	10003302 <ph_merge_nodes+0x3a>
100032d8:	6880      	ldr	r0, [r0, #8]
100032da:	6873      	ldr	r3, [r6, #4]
100032dc:	4798      	blx	r3
100032de:	2800      	cmp	r0, #0
100032e0:	d006      	beq.n	100032f0 <ph_merge_nodes+0x28>
100032e2:	0022      	movs	r2, r4
100032e4:	0029      	movs	r1, r5
100032e6:	0030      	movs	r0, r6
100032e8:	f7ff ff9c 	bl	10003224 <ph_add_child_node>
100032ec:	0028      	movs	r0, r5
100032ee:	e007      	b.n	10003300 <ph_merge_nodes+0x38>
100032f0:	002a      	movs	r2, r5
100032f2:	0021      	movs	r1, r4
100032f4:	0030      	movs	r0, r6
100032f6:	f7ff ff95 	bl	10003224 <ph_add_child_node>
100032fa:	0020      	movs	r0, r4
100032fc:	e000      	b.n	10003300 <ph_merge_nodes+0x38>
100032fe:	0010      	movs	r0, r2
10003300:	bd70      	pop	{r4, r5, r6, pc}
10003302:	0008      	movs	r0, r1
10003304:	e7fc      	b.n	10003300 <ph_merge_nodes+0x38>
	...

10003308 <ph_clear>:
10003308:	b510      	push	{r4, lr}
1000330a:	2300      	movs	r3, #0
1000330c:	7343      	strb	r3, [r0, #13]
1000330e:	3301      	adds	r3, #1
10003310:	7383      	strb	r3, [r0, #14]
10003312:	7b03      	ldrb	r3, [r0, #12]
10003314:	73c3      	strb	r3, [r0, #15]
10003316:	2301      	movs	r3, #1
10003318:	7b02      	ldrb	r2, [r0, #12]
1000331a:	429a      	cmp	r2, r3
1000331c:	d914      	bls.n	10003348 <ph_clear+0x40>
1000331e:	2b00      	cmp	r3, #0
10003320:	d00c      	beq.n	1000333c <ph_clear+0x34>
10003322:	7b02      	ldrb	r2, [r0, #12]
10003324:	4293      	cmp	r3, r2
10003326:	d809      	bhi.n	1000333c <ph_clear+0x34>
10003328:	005a      	lsls	r2, r3, #1
1000332a:	18d2      	adds	r2, r2, r3
1000332c:	3a03      	subs	r2, #3
1000332e:	6801      	ldr	r1, [r0, #0]
10003330:	468c      	mov	ip, r1
10003332:	4462      	add	r2, ip
10003334:	3301      	adds	r3, #1
10003336:	b2db      	uxtb	r3, r3
10003338:	7053      	strb	r3, [r2, #1]
1000333a:	e7ed      	b.n	10003318 <ph_clear+0x10>
1000333c:	4b0b      	ldr	r3, [pc, #44]	; (1000336c <ph_clear+0x64>)
1000333e:	4a0c      	ldr	r2, [pc, #48]	; (10003370 <ph_clear+0x68>)
10003340:	2169      	movs	r1, #105	; 0x69
10003342:	480c      	ldr	r0, [pc, #48]	; (10003374 <ph_clear+0x6c>)
10003344:	f000 f984 	bl	10003650 <__assert_func>
10003348:	2a00      	cmp	r2, #0
1000334a:	d009      	beq.n	10003360 <ph_clear+0x58>
1000334c:	4292      	cmp	r2, r2
1000334e:	d807      	bhi.n	10003360 <ph_clear+0x58>
10003350:	6801      	ldr	r1, [r0, #0]
10003352:	0053      	lsls	r3, r2, #1
10003354:	189a      	adds	r2, r3, r2
10003356:	3a03      	subs	r2, #3
10003358:	188a      	adds	r2, r1, r2
1000335a:	2300      	movs	r3, #0
1000335c:	7053      	strb	r3, [r2, #1]
1000335e:	bd10      	pop	{r4, pc}
10003360:	4b02      	ldr	r3, [pc, #8]	; (1000336c <ph_clear+0x64>)
10003362:	4a03      	ldr	r2, [pc, #12]	; (10003370 <ph_clear+0x68>)
10003364:	2169      	movs	r1, #105	; 0x69
10003366:	4803      	ldr	r0, [pc, #12]	; (10003374 <ph_clear+0x6c>)
10003368:	f000 f972 	bl	10003650 <__assert_func>
1000336c:	10006f60 	.word	0x10006f60
10003370:	10007424 	.word	0x10007424
10003374:	10006f7c 	.word	0x10006f7c

10003378 <ph_post_alloc_init>:
10003378:	b510      	push	{r4, lr}
1000337a:	7301      	strb	r1, [r0, #12]
1000337c:	6042      	str	r2, [r0, #4]
1000337e:	6083      	str	r3, [r0, #8]
10003380:	f7ff ffc2 	bl	10003308 <ph_clear>
10003384:	bd10      	pop	{r4, pc}
	...

10003388 <ph_merge_two_pass>:
10003388:	b570      	push	{r4, r5, r6, lr}
1000338a:	0004      	movs	r4, r0
1000338c:	1e08      	subs	r0, r1, #0
1000338e:	d100      	bne.n	10003392 <ph_merge_two_pass+0xa>
10003390:	bd70      	pop	{r4, r5, r6, pc}
10003392:	2900      	cmp	r1, #0
10003394:	d034      	beq.n	10003400 <ph_merge_two_pass+0x78>
10003396:	7b23      	ldrb	r3, [r4, #12]
10003398:	4299      	cmp	r1, r3
1000339a:	d831      	bhi.n	10003400 <ph_merge_two_pass+0x78>
1000339c:	004b      	lsls	r3, r1, #1
1000339e:	185b      	adds	r3, r3, r1
100033a0:	3b03      	subs	r3, #3
100033a2:	6822      	ldr	r2, [r4, #0]
100033a4:	4694      	mov	ip, r2
100033a6:	4463      	add	r3, ip
100033a8:	785a      	ldrb	r2, [r3, #1]
100033aa:	2a00      	cmp	r2, #0
100033ac:	d0f0      	beq.n	10003390 <ph_merge_two_pass+0x8>
100033ae:	d02d      	beq.n	1000340c <ph_merge_two_pass+0x84>
100033b0:	7b23      	ldrb	r3, [r4, #12]
100033b2:	429a      	cmp	r2, r3
100033b4:	d82a      	bhi.n	1000340c <ph_merge_two_pass+0x84>
100033b6:	0053      	lsls	r3, r2, #1
100033b8:	189b      	adds	r3, r3, r2
100033ba:	3b03      	subs	r3, #3
100033bc:	6821      	ldr	r1, [r4, #0]
100033be:	468c      	mov	ip, r1
100033c0:	4463      	add	r3, ip
100033c2:	785d      	ldrb	r5, [r3, #1]
100033c4:	2100      	movs	r1, #0
100033c6:	7059      	strb	r1, [r3, #1]
100033c8:	2800      	cmp	r0, #0
100033ca:	d025      	beq.n	10003418 <ph_merge_two_pass+0x90>
100033cc:	7b23      	ldrb	r3, [r4, #12]
100033ce:	4298      	cmp	r0, r3
100033d0:	d822      	bhi.n	10003418 <ph_merge_two_pass+0x90>
100033d2:	0043      	lsls	r3, r0, #1
100033d4:	181b      	adds	r3, r3, r0
100033d6:	3b03      	subs	r3, #3
100033d8:	6821      	ldr	r1, [r4, #0]
100033da:	468c      	mov	ip, r1
100033dc:	4463      	add	r3, ip
100033de:	2100      	movs	r1, #0
100033e0:	7059      	strb	r1, [r3, #1]
100033e2:	0001      	movs	r1, r0
100033e4:	0020      	movs	r0, r4
100033e6:	f7ff ff6f 	bl	100032c8 <ph_merge_nodes>
100033ea:	0006      	movs	r6, r0
100033ec:	0029      	movs	r1, r5
100033ee:	0020      	movs	r0, r4
100033f0:	f7ff ffca 	bl	10003388 <ph_merge_two_pass>
100033f4:	0002      	movs	r2, r0
100033f6:	0031      	movs	r1, r6
100033f8:	0020      	movs	r0, r4
100033fa:	f7ff ff65 	bl	100032c8 <ph_merge_nodes>
100033fe:	e7c7      	b.n	10003390 <ph_merge_two_pass+0x8>
10003400:	4b08      	ldr	r3, [pc, #32]	; (10003424 <ph_merge_two_pass+0x9c>)
10003402:	4a09      	ldr	r2, [pc, #36]	; (10003428 <ph_merge_two_pass+0xa0>)
10003404:	2169      	movs	r1, #105	; 0x69
10003406:	4809      	ldr	r0, [pc, #36]	; (1000342c <ph_merge_two_pass+0xa4>)
10003408:	f000 f922 	bl	10003650 <__assert_func>
1000340c:	4b05      	ldr	r3, [pc, #20]	; (10003424 <ph_merge_two_pass+0x9c>)
1000340e:	4a06      	ldr	r2, [pc, #24]	; (10003428 <ph_merge_two_pass+0xa0>)
10003410:	2169      	movs	r1, #105	; 0x69
10003412:	4806      	ldr	r0, [pc, #24]	; (1000342c <ph_merge_two_pass+0xa4>)
10003414:	f000 f91c 	bl	10003650 <__assert_func>
10003418:	4b02      	ldr	r3, [pc, #8]	; (10003424 <ph_merge_two_pass+0x9c>)
1000341a:	4a03      	ldr	r2, [pc, #12]	; (10003428 <ph_merge_two_pass+0xa0>)
1000341c:	2169      	movs	r1, #105	; 0x69
1000341e:	4803      	ldr	r0, [pc, #12]	; (1000342c <ph_merge_two_pass+0xa4>)
10003420:	f000 f916 	bl	10003650 <__assert_func>
10003424:	10006f60 	.word	0x10006f60
10003428:	10007424 	.word	0x10007424
1000342c:	10006f7c 	.word	0x10006f7c

10003430 <ph_remove_any_head>:
10003430:	b570      	push	{r4, r5, r6, lr}
10003432:	0005      	movs	r5, r0
10003434:	000c      	movs	r4, r1
10003436:	0016      	movs	r6, r2
10003438:	2900      	cmp	r1, #0
1000343a:	d028      	beq.n	1000348e <ph_remove_any_head+0x5e>
1000343c:	d02d      	beq.n	1000349a <ph_remove_any_head+0x6a>
1000343e:	7b03      	ldrb	r3, [r0, #12]
10003440:	4299      	cmp	r1, r3
10003442:	d82a      	bhi.n	1000349a <ph_remove_any_head+0x6a>
10003444:	004b      	lsls	r3, r1, #1
10003446:	185b      	adds	r3, r3, r1
10003448:	3b03      	subs	r3, #3
1000344a:	6802      	ldr	r2, [r0, #0]
1000344c:	4694      	mov	ip, r2
1000344e:	4463      	add	r3, ip
10003450:	785a      	ldrb	r2, [r3, #1]
10003452:	2a00      	cmp	r2, #0
10003454:	d127      	bne.n	100034a6 <ph_remove_any_head+0x76>
10003456:	789a      	ldrb	r2, [r3, #2]
10003458:	2a00      	cmp	r2, #0
1000345a:	d12a      	bne.n	100034b2 <ph_remove_any_head+0x82>
1000345c:	7819      	ldrb	r1, [r3, #0]
1000345e:	f7ff ff93 	bl	10003388 <ph_merge_two_pass>
10003462:	0003      	movs	r3, r0
10003464:	2e00      	cmp	r6, #0
10003466:	d003      	beq.n	10003470 <ph_remove_any_head+0x40>
10003468:	7bea      	ldrb	r2, [r5, #15]
1000346a:	2a00      	cmp	r2, #0
1000346c:	d127      	bne.n	100034be <ph_remove_any_head+0x8e>
1000346e:	73ec      	strb	r4, [r5, #15]
10003470:	2b00      	cmp	r3, #0
10003472:	d137      	bne.n	100034e4 <ph_remove_any_head+0xb4>
10003474:	2c00      	cmp	r4, #0
10003476:	d049      	beq.n	1000350c <ph_remove_any_head+0xdc>
10003478:	7b2b      	ldrb	r3, [r5, #12]
1000347a:	429c      	cmp	r4, r3
1000347c:	d846      	bhi.n	1000350c <ph_remove_any_head+0xdc>
1000347e:	682b      	ldr	r3, [r5, #0]
10003480:	0061      	lsls	r1, r4, #1
10003482:	190c      	adds	r4, r1, r4
10003484:	3c03      	subs	r4, #3
10003486:	191c      	adds	r4, r3, r4
10003488:	2300      	movs	r3, #0
1000348a:	7063      	strb	r3, [r4, #1]
1000348c:	bd70      	pop	{r4, r5, r6, pc}
1000348e:	4b22      	ldr	r3, [pc, #136]	; (10003518 <ph_remove_any_head+0xe8>)
10003490:	4a22      	ldr	r2, [pc, #136]	; (1000351c <ph_remove_any_head+0xec>)
10003492:	2138      	movs	r1, #56	; 0x38
10003494:	4822      	ldr	r0, [pc, #136]	; (10003520 <ph_remove_any_head+0xf0>)
10003496:	f000 f8db 	bl	10003650 <__assert_func>
1000349a:	4b22      	ldr	r3, [pc, #136]	; (10003524 <ph_remove_any_head+0xf4>)
1000349c:	4a22      	ldr	r2, [pc, #136]	; (10003528 <ph_remove_any_head+0xf8>)
1000349e:	2169      	movs	r1, #105	; 0x69
100034a0:	4822      	ldr	r0, [pc, #136]	; (1000352c <ph_remove_any_head+0xfc>)
100034a2:	f000 f8d5 	bl	10003650 <__assert_func>
100034a6:	4b22      	ldr	r3, [pc, #136]	; (10003530 <ph_remove_any_head+0x100>)
100034a8:	4a1c      	ldr	r2, [pc, #112]	; (1000351c <ph_remove_any_head+0xec>)
100034aa:	213a      	movs	r1, #58	; 0x3a
100034ac:	481c      	ldr	r0, [pc, #112]	; (10003520 <ph_remove_any_head+0xf0>)
100034ae:	f000 f8cf 	bl	10003650 <__assert_func>
100034b2:	4b20      	ldr	r3, [pc, #128]	; (10003534 <ph_remove_any_head+0x104>)
100034b4:	4a19      	ldr	r2, [pc, #100]	; (1000351c <ph_remove_any_head+0xec>)
100034b6:	213b      	movs	r1, #59	; 0x3b
100034b8:	4819      	ldr	r0, [pc, #100]	; (10003520 <ph_remove_any_head+0xf0>)
100034ba:	f000 f8c9 	bl	10003650 <__assert_func>
100034be:	2a00      	cmp	r2, #0
100034c0:	d00a      	beq.n	100034d8 <ph_remove_any_head+0xa8>
100034c2:	7b29      	ldrb	r1, [r5, #12]
100034c4:	428a      	cmp	r2, r1
100034c6:	d807      	bhi.n	100034d8 <ph_remove_any_head+0xa8>
100034c8:	0051      	lsls	r1, r2, #1
100034ca:	188a      	adds	r2, r1, r2
100034cc:	3a03      	subs	r2, #3
100034ce:	6829      	ldr	r1, [r5, #0]
100034d0:	468c      	mov	ip, r1
100034d2:	4462      	add	r2, ip
100034d4:	7054      	strb	r4, [r2, #1]
100034d6:	e7ca      	b.n	1000346e <ph_remove_any_head+0x3e>
100034d8:	4b12      	ldr	r3, [pc, #72]	; (10003524 <ph_remove_any_head+0xf4>)
100034da:	4a13      	ldr	r2, [pc, #76]	; (10003528 <ph_remove_any_head+0xf8>)
100034dc:	2169      	movs	r1, #105	; 0x69
100034de:	4813      	ldr	r0, [pc, #76]	; (1000352c <ph_remove_any_head+0xfc>)
100034e0:	f000 f8b6 	bl	10003650 <__assert_func>
100034e4:	2b00      	cmp	r3, #0
100034e6:	d00b      	beq.n	10003500 <ph_remove_any_head+0xd0>
100034e8:	7b2a      	ldrb	r2, [r5, #12]
100034ea:	4293      	cmp	r3, r2
100034ec:	d808      	bhi.n	10003500 <ph_remove_any_head+0xd0>
100034ee:	0043      	lsls	r3, r0, #1
100034f0:	181b      	adds	r3, r3, r0
100034f2:	3b03      	subs	r3, #3
100034f4:	682a      	ldr	r2, [r5, #0]
100034f6:	4694      	mov	ip, r2
100034f8:	4463      	add	r3, ip
100034fa:	2200      	movs	r2, #0
100034fc:	709a      	strb	r2, [r3, #2]
100034fe:	e7b9      	b.n	10003474 <ph_remove_any_head+0x44>
10003500:	4b08      	ldr	r3, [pc, #32]	; (10003524 <ph_remove_any_head+0xf4>)
10003502:	4a09      	ldr	r2, [pc, #36]	; (10003528 <ph_remove_any_head+0xf8>)
10003504:	2169      	movs	r1, #105	; 0x69
10003506:	4809      	ldr	r0, [pc, #36]	; (1000352c <ph_remove_any_head+0xfc>)
10003508:	f000 f8a2 	bl	10003650 <__assert_func>
1000350c:	4b05      	ldr	r3, [pc, #20]	; (10003524 <ph_remove_any_head+0xf4>)
1000350e:	4a06      	ldr	r2, [pc, #24]	; (10003528 <ph_remove_any_head+0xf8>)
10003510:	2169      	movs	r1, #105	; 0x69
10003512:	4806      	ldr	r0, [pc, #24]	; (1000352c <ph_remove_any_head+0xfc>)
10003514:	f000 f89c 	bl	10003650 <__assert_func>
10003518:	10007324 	.word	0x10007324
1000351c:	100073fc 	.word	0x100073fc
10003520:	1000732c 	.word	0x1000732c
10003524:	10006f60 	.word	0x10006f60
10003528:	10007424 	.word	0x10007424
1000352c:	10006f7c 	.word	0x10006f7c
10003530:	10007370 	.word	0x10007370
10003534:	10007398 	.word	0x10007398

10003538 <ph_remove_head>:
10003538:	b570      	push	{r4, r5, r6, lr}
1000353a:	0004      	movs	r4, r0
1000353c:	000a      	movs	r2, r1
1000353e:	7b45      	ldrb	r5, [r0, #13]
10003540:	0029      	movs	r1, r5
10003542:	f7ff ff75 	bl	10003430 <ph_remove_any_head>
10003546:	7360      	strb	r0, [r4, #13]
10003548:	0028      	movs	r0, r5
1000354a:	bd70      	pop	{r4, r5, r6, pc}

1000354c <ph_remove_and_free_node>:
1000354c:	b570      	push	{r4, r5, r6, lr}
1000354e:	0004      	movs	r4, r0
10003550:	2900      	cmp	r1, #0
10003552:	d067      	beq.n	10003624 <ph_remove_and_free_node+0xd8>
10003554:	7b43      	ldrb	r3, [r0, #13]
10003556:	428b      	cmp	r3, r1
10003558:	d00e      	beq.n	10003578 <ph_remove_and_free_node+0x2c>
1000355a:	2900      	cmp	r1, #0
1000355c:	d011      	beq.n	10003582 <ph_remove_and_free_node+0x36>
1000355e:	7b03      	ldrb	r3, [r0, #12]
10003560:	4299      	cmp	r1, r3
10003562:	d80e      	bhi.n	10003582 <ph_remove_and_free_node+0x36>
10003564:	004b      	lsls	r3, r1, #1
10003566:	185b      	adds	r3, r3, r1
10003568:	3b03      	subs	r3, #3
1000356a:	6802      	ldr	r2, [r0, #0]
1000356c:	18d0      	adds	r0, r2, r3
1000356e:	7883      	ldrb	r3, [r0, #2]
10003570:	2b00      	cmp	r3, #0
10003572:	d10c      	bne.n	1000358e <ph_remove_and_free_node+0x42>
10003574:	2000      	movs	r0, #0
10003576:	e056      	b.n	10003626 <ph_remove_and_free_node+0xda>
10003578:	2101      	movs	r1, #1
1000357a:	f7ff ffdd 	bl	10003538 <ph_remove_head>
1000357e:	2001      	movs	r0, #1
10003580:	e051      	b.n	10003626 <ph_remove_and_free_node+0xda>
10003582:	4b29      	ldr	r3, [pc, #164]	; (10003628 <ph_remove_and_free_node+0xdc>)
10003584:	4a29      	ldr	r2, [pc, #164]	; (1000362c <ph_remove_and_free_node+0xe0>)
10003586:	2169      	movs	r1, #105	; 0x69
10003588:	4829      	ldr	r0, [pc, #164]	; (10003630 <ph_remove_and_free_node+0xe4>)
1000358a:	f000 f861 	bl	10003650 <__assert_func>
1000358e:	2b00      	cmp	r3, #0
10003590:	d020      	beq.n	100035d4 <ph_remove_and_free_node+0x88>
10003592:	7b22      	ldrb	r2, [r4, #12]
10003594:	4293      	cmp	r3, r2
10003596:	d81d      	bhi.n	100035d4 <ph_remove_and_free_node+0x88>
10003598:	005a      	lsls	r2, r3, #1
1000359a:	18d3      	adds	r3, r2, r3
1000359c:	3b03      	subs	r3, #3
1000359e:	6822      	ldr	r2, [r4, #0]
100035a0:	18d2      	adds	r2, r2, r3
100035a2:	6825      	ldr	r5, [r4, #0]
100035a4:	5ceb      	ldrb	r3, [r5, r3]
100035a6:	428b      	cmp	r3, r1
100035a8:	d01a      	beq.n	100035e0 <ph_remove_and_free_node+0x94>
100035aa:	2b00      	cmp	r3, #0
100035ac:	d01b      	beq.n	100035e6 <ph_remove_and_free_node+0x9a>
100035ae:	7b22      	ldrb	r2, [r4, #12]
100035b0:	4293      	cmp	r3, r2
100035b2:	d818      	bhi.n	100035e6 <ph_remove_and_free_node+0x9a>
100035b4:	005a      	lsls	r2, r3, #1
100035b6:	18d3      	adds	r3, r2, r3
100035b8:	3b03      	subs	r3, #3
100035ba:	6822      	ldr	r2, [r4, #0]
100035bc:	18d2      	adds	r2, r2, r3
100035be:	7853      	ldrb	r3, [r2, #1]
100035c0:	428b      	cmp	r3, r1
100035c2:	d016      	beq.n	100035f2 <ph_remove_and_free_node+0xa6>
100035c4:	2b00      	cmp	r3, #0
100035c6:	d1f0      	bne.n	100035aa <ph_remove_and_free_node+0x5e>
100035c8:	4b1a      	ldr	r3, [pc, #104]	; (10003634 <ph_remove_and_free_node+0xe8>)
100035ca:	4a1b      	ldr	r2, [pc, #108]	; (10003638 <ph_remove_and_free_node+0xec>)
100035cc:	2167      	movs	r1, #103	; 0x67
100035ce:	481b      	ldr	r0, [pc, #108]	; (1000363c <ph_remove_and_free_node+0xf0>)
100035d0:	f000 f83e 	bl	10003650 <__assert_func>
100035d4:	4b14      	ldr	r3, [pc, #80]	; (10003628 <ph_remove_and_free_node+0xdc>)
100035d6:	4a15      	ldr	r2, [pc, #84]	; (1000362c <ph_remove_and_free_node+0xe0>)
100035d8:	2169      	movs	r1, #105	; 0x69
100035da:	4815      	ldr	r0, [pc, #84]	; (10003630 <ph_remove_and_free_node+0xe4>)
100035dc:	f000 f838 	bl	10003650 <__assert_func>
100035e0:	7843      	ldrb	r3, [r0, #1]
100035e2:	7013      	strb	r3, [r2, #0]
100035e4:	e007      	b.n	100035f6 <ph_remove_and_free_node+0xaa>
100035e6:	4b10      	ldr	r3, [pc, #64]	; (10003628 <ph_remove_and_free_node+0xdc>)
100035e8:	4a10      	ldr	r2, [pc, #64]	; (1000362c <ph_remove_and_free_node+0xe0>)
100035ea:	2169      	movs	r1, #105	; 0x69
100035ec:	4810      	ldr	r0, [pc, #64]	; (10003630 <ph_remove_and_free_node+0xe4>)
100035ee:	f000 f82f 	bl	10003650 <__assert_func>
100035f2:	7843      	ldrb	r3, [r0, #1]
100035f4:	7053      	strb	r3, [r2, #1]
100035f6:	2300      	movs	r3, #0
100035f8:	7083      	strb	r3, [r0, #2]
100035fa:	7043      	strb	r3, [r0, #1]
100035fc:	2201      	movs	r2, #1
100035fe:	0020      	movs	r0, r4
10003600:	f7ff ff16 	bl	10003430 <ph_remove_any_head>
10003604:	0002      	movs	r2, r0
10003606:	7b61      	ldrb	r1, [r4, #13]
10003608:	4281      	cmp	r1, r0
1000360a:	d005      	beq.n	10003618 <ph_remove_and_free_node+0xcc>
1000360c:	0020      	movs	r0, r4
1000360e:	f7ff fe5b 	bl	100032c8 <ph_merge_nodes>
10003612:	7360      	strb	r0, [r4, #13]
10003614:	2001      	movs	r0, #1
10003616:	e006      	b.n	10003626 <ph_remove_and_free_node+0xda>
10003618:	4b09      	ldr	r3, [pc, #36]	; (10003640 <ph_remove_and_free_node+0xf4>)
1000361a:	4a07      	ldr	r2, [pc, #28]	; (10003638 <ph_remove_and_free_node+0xec>)
1000361c:	216d      	movs	r1, #109	; 0x6d
1000361e:	4807      	ldr	r0, [pc, #28]	; (1000363c <ph_remove_and_free_node+0xf0>)
10003620:	f000 f816 	bl	10003650 <__assert_func>
10003624:	2000      	movs	r0, #0
10003626:	bd70      	pop	{r4, r5, r6, pc}
10003628:	10006f60 	.word	0x10006f60
1000362c:	10007424 	.word	0x10007424
10003630:	10006f7c 	.word	0x10006f7c
10003634:	100073bc 	.word	0x100073bc
10003638:	100073e4 	.word	0x100073e4
1000363c:	1000732c 	.word	0x1000732c
10003640:	100073c4 	.word	0x100073c4

10003644 <_exit>:
10003644:	be00      	bkpt	0x0000
10003646:	e7fd      	b.n	10003644 <_exit>

10003648 <exit>:
10003648:	b510      	push	{r4, lr}
1000364a:	f7ff fffb 	bl	10003644 <_exit>
	...

10003650 <__assert_func>:
10003650:	b510      	push	{r4, lr}
10003652:	b082      	sub	sp, #8
10003654:	000c      	movs	r4, r1
10003656:	0019      	movs	r1, r3
10003658:	2a00      	cmp	r2, #0
1000365a:	d00c      	beq.n	10003676 <__assert_func+0x26>
1000365c:	4b08      	ldr	r3, [pc, #32]	; (10003680 <__assert_func+0x30>)
1000365e:	2a00      	cmp	r2, #0
10003660:	d00b      	beq.n	1000367a <__assert_func+0x2a>
10003662:	9201      	str	r2, [sp, #4]
10003664:	9300      	str	r3, [sp, #0]
10003666:	0023      	movs	r3, r4
10003668:	0002      	movs	r2, r0
1000366a:	4806      	ldr	r0, [pc, #24]	; (10003684 <__assert_func+0x34>)
1000366c:	f002 fd7e 	bl	1000616c <__wrap_printf>
10003670:	2001      	movs	r0, #1
10003672:	f7ff ffe7 	bl	10003644 <_exit>
10003676:	4b04      	ldr	r3, [pc, #16]	; (10003688 <__assert_func+0x38>)
10003678:	e7f1      	b.n	1000365e <__assert_func+0xe>
1000367a:	4a03      	ldr	r2, [pc, #12]	; (10003688 <__assert_func+0x38>)
1000367c:	e7f1      	b.n	10003662 <__assert_func+0x12>
1000367e:	46c0      	nop			; (mov r8, r8)
10003680:	10007430 	.word	0x10007430
10003684:	10007440 	.word	0x10007440
10003688:	1000743c 	.word	0x1000743c

1000368c <runtime_init>:
1000368c:	b570      	push	{r4, r5, r6, lr}
1000368e:	4b2b      	ldr	r3, [pc, #172]	; (1000373c <runtime_init+0xb0>)
10003690:	4a2b      	ldr	r2, [pc, #172]	; (10003740 <runtime_init+0xb4>)
10003692:	601a      	str	r2, [r3, #0]
10003694:	4b2b      	ldr	r3, [pc, #172]	; (10003744 <runtime_init+0xb8>)
10003696:	4a2c      	ldr	r2, [pc, #176]	; (10003748 <runtime_init+0xbc>)
10003698:	601a      	str	r2, [r3, #0]
1000369a:	4b2c      	ldr	r3, [pc, #176]	; (1000374c <runtime_init+0xc0>)
1000369c:	689a      	ldr	r2, [r3, #8]
1000369e:	4b2a      	ldr	r3, [pc, #168]	; (10003748 <runtime_init+0xbc>)
100036a0:	4393      	bics	r3, r2
100036a2:	d1fa      	bne.n	1000369a <runtime_init+0xe>
100036a4:	4c2a      	ldr	r4, [pc, #168]	; (10003750 <runtime_init+0xc4>)
100036a6:	e001      	b.n	100036ac <runtime_init+0x20>
100036a8:	cc08      	ldmia	r4!, {r3}
100036aa:	4798      	blx	r3
100036ac:	4b29      	ldr	r3, [pc, #164]	; (10003754 <runtime_init+0xc8>)
100036ae:	429c      	cmp	r4, r3
100036b0:	d3fa      	bcc.n	100036a8 <runtime_init+0x1c>
100036b2:	f000 f907 	bl	100038c4 <clocks_init>
100036b6:	4b23      	ldr	r3, [pc, #140]	; (10003744 <runtime_init+0xb8>)
100036b8:	4a27      	ldr	r2, [pc, #156]	; (10003758 <runtime_init+0xcc>)
100036ba:	601a      	str	r2, [r3, #0]
100036bc:	4b23      	ldr	r3, [pc, #140]	; (1000374c <runtime_init+0xc0>)
100036be:	689b      	ldr	r3, [r3, #8]
100036c0:	43db      	mvns	r3, r3
100036c2:	01db      	lsls	r3, r3, #7
100036c4:	d1fa      	bne.n	100036bc <runtime_init+0x30>
100036c6:	4b25      	ldr	r3, [pc, #148]	; (1000375c <runtime_init+0xd0>)
100036c8:	2240      	movs	r2, #64	; 0x40
100036ca:	679a      	str	r2, [r3, #120]	; 0x78
100036cc:	675a      	str	r2, [r3, #116]	; 0x74
100036ce:	671a      	str	r2, [r3, #112]	; 0x70
100036d0:	66da      	str	r2, [r3, #108]	; 0x6c
100036d2:	4c23      	ldr	r4, [pc, #140]	; (10003760 <runtime_init+0xd4>)
100036d4:	e009      	b.n	100036ea <runtime_init+0x5e>
100036d6:	4b23      	ldr	r3, [pc, #140]	; (10003764 <runtime_init+0xd8>)
100036d8:	4a23      	ldr	r2, [pc, #140]	; (10003768 <runtime_init+0xdc>)
100036da:	2183      	movs	r1, #131	; 0x83
100036dc:	4823      	ldr	r0, [pc, #140]	; (1000376c <runtime_init+0xe0>)
100036de:	f7ff ffb7 	bl	10003650 <__assert_func>
100036e2:	0020      	movs	r0, r4
100036e4:	f7ff fd80 	bl	100031e8 <mutex_init>
100036e8:	3408      	adds	r4, #8
100036ea:	4b21      	ldr	r3, [pc, #132]	; (10003770 <runtime_init+0xe4>)
100036ec:	429c      	cmp	r4, r3
100036ee:	d209      	bcs.n	10003704 <runtime_init+0x78>
100036f0:	6823      	ldr	r3, [r4, #0]
100036f2:	2b00      	cmp	r3, #0
100036f4:	d0f5      	beq.n	100036e2 <runtime_init+0x56>
100036f6:	2b01      	cmp	r3, #1
100036f8:	d1ed      	bne.n	100036d6 <runtime_init+0x4a>
100036fa:	0020      	movs	r0, r4
100036fc:	f7ff fd82 	bl	10003204 <recursive_mutex_init>
10003700:	340c      	adds	r4, #12
10003702:	e7f2      	b.n	100036ea <runtime_init+0x5e>
10003704:	4c1b      	ldr	r4, [pc, #108]	; (10003774 <runtime_init+0xe8>)
10003706:	68a1      	ldr	r1, [r4, #8]
10003708:	4d1b      	ldr	r5, [pc, #108]	; (10003778 <runtime_init+0xec>)
1000370a:	22c0      	movs	r2, #192	; 0xc0
1000370c:	0028      	movs	r0, r5
1000370e:	f002 fc01 	bl	10005f14 <__wrap___aeabi_memcpy>
10003712:	60a5      	str	r5, [r4, #8]
10003714:	f7fc fda7 	bl	10000266 <__get_current_exception>
10003718:	2800      	cmp	r0, #0
1000371a:	d000      	beq.n	1000371e <runtime_init+0x92>
1000371c:	be00      	bkpt	0x0000
1000371e:	f7fe ff97 	bl	10002650 <spin_locks_reset>
10003722:	f000 fb5b 	bl	10003ddc <irq_init_priorities>
10003726:	f7ff fc01 	bl	10002f2c <alarm_pool_init_default>
1000372a:	4c14      	ldr	r4, [pc, #80]	; (1000377c <runtime_init+0xf0>)
1000372c:	e001      	b.n	10003732 <runtime_init+0xa6>
1000372e:	cc08      	ldmia	r4!, {r3}
10003730:	4798      	blx	r3
10003732:	4b13      	ldr	r3, [pc, #76]	; (10003780 <runtime_init+0xf4>)
10003734:	429c      	cmp	r4, r3
10003736:	d3fa      	bcc.n	1000372e <runtime_init+0xa2>
10003738:	bd70      	pop	{r4, r5, r6, pc}
1000373a:	46c0      	nop			; (mov r8, r8)
1000373c:	4000e000 	.word	0x4000e000
10003740:	fefbcdbf 	.word	0xfefbcdbf
10003744:	4000f000 	.word	0x4000f000
10003748:	003c7ffe 	.word	0x003c7ffe
1000374c:	4000c000 	.word	0x4000c000
10003750:	20000280 	.word	0x20000280
10003754:	20000290 	.word	0x20000290
10003758:	01ffffff 	.word	0x01ffffff
1000375c:	4001f000 	.word	0x4001f000
10003760:	20000270 	.word	0x20000270
10003764:	10007470 	.word	0x10007470
10003768:	10007500 	.word	0x10007500
1000376c:	10007490 	.word	0x10007490
10003770:	20000280 	.word	0x20000280
10003774:	e000ed00 	.word	0xe000ed00
10003778:	20000000 	.word	0x20000000
1000377c:	20000290 	.word	0x20000290
10003780:	20000298 	.word	0x20000298

10003784 <panic>:
10003784:	b40f      	push	{r0, r1, r2, r3}
10003786:	b500      	push	{lr}
10003788:	b083      	sub	sp, #12
1000378a:	4808      	ldr	r0, [pc, #32]	; (100037ac <panic+0x28>)
1000378c:	f002 fcbc 	bl	10006108 <__wrap_puts>
10003790:	9b04      	ldr	r3, [sp, #16]
10003792:	2b00      	cmp	r3, #0
10003794:	d007      	beq.n	100037a6 <panic+0x22>
10003796:	a905      	add	r1, sp, #20
10003798:	9101      	str	r1, [sp, #4]
1000379a:	0018      	movs	r0, r3
1000379c:	f002 fcc4 	bl	10006128 <__wrap_vprintf>
100037a0:	4803      	ldr	r0, [pc, #12]	; (100037b0 <panic+0x2c>)
100037a2:	f002 fcb1 	bl	10006108 <__wrap_puts>
100037a6:	2001      	movs	r0, #1
100037a8:	f7ff ff4c 	bl	10003644 <_exit>
100037ac:	100074e0 	.word	0x100074e0
100037b0:	10006370 	.word	0x10006370

100037b4 <panic_unsupported>:
100037b4:	b510      	push	{r4, lr}
100037b6:	4801      	ldr	r0, [pc, #4]	; (100037bc <panic_unsupported+0x8>)
100037b8:	f7ff ffe4 	bl	10003784 <panic>
100037bc:	100074f0 	.word	0x100074f0

100037c0 <clock_configure>:
100037c0:	b5f8      	push	{r3, r4, r5, r6, r7, lr}
100037c2:	46de      	mov	lr, fp
100037c4:	4657      	mov	r7, sl
100037c6:	464e      	mov	r6, r9
100037c8:	4645      	mov	r5, r8
100037ca:	b5e0      	push	{r5, r6, r7, lr}
100037cc:	0005      	movs	r5, r0
100037ce:	000f      	movs	r7, r1
100037d0:	4692      	mov	sl, r2
100037d2:	9a0a      	ldr	r2, [sp, #40]	; 0x28
100037d4:	4293      	cmp	r3, r2
100037d6:	d34e      	bcc.n	10003876 <clock_configure+0xb6>
100037d8:	0e1a      	lsrs	r2, r3, #24
100037da:	4691      	mov	r9, r2
100037dc:	021e      	lsls	r6, r3, #8
100037de:	9a0a      	ldr	r2, [sp, #40]	; 0x28
100037e0:	2300      	movs	r3, #0
100037e2:	0030      	movs	r0, r6
100037e4:	4649      	mov	r1, r9
100037e6:	f001 fced 	bl	100051c4 <__wrap___aeabi_uldivmod>
100037ea:	4680      	mov	r8, r0
100037ec:	006c      	lsls	r4, r5, #1
100037ee:	1964      	adds	r4, r4, r5
100037f0:	00a4      	lsls	r4, r4, #2
100037f2:	4b2f      	ldr	r3, [pc, #188]	; (100038b0 <clock_configure+0xf0>)
100037f4:	469c      	mov	ip, r3
100037f6:	4464      	add	r4, ip
100037f8:	6863      	ldr	r3, [r4, #4]
100037fa:	4283      	cmp	r3, r0
100037fc:	d200      	bcs.n	10003800 <clock_configure+0x40>
100037fe:	6060      	str	r0, [r4, #4]
10003800:	1f2b      	subs	r3, r5, #4
10003802:	b2db      	uxtb	r3, r3
10003804:	469b      	mov	fp, r3
10003806:	2b01      	cmp	r3, #1
10003808:	d93b      	bls.n	10003882 <clock_configure+0xc2>
1000380a:	23c0      	movs	r3, #192	; 0xc0
1000380c:	019b      	lsls	r3, r3, #6
1000380e:	4323      	orrs	r3, r4
10003810:	2280      	movs	r2, #128	; 0x80
10003812:	0112      	lsls	r2, r2, #4
10003814:	601a      	str	r2, [r3, #0]
10003816:	00ab      	lsls	r3, r5, #2
10003818:	4a26      	ldr	r2, [pc, #152]	; (100038b4 <clock_configure+0xf4>)
1000381a:	5899      	ldr	r1, [r3, r2]
1000381c:	2900      	cmp	r1, #0
1000381e:	d005      	beq.n	1000382c <clock_configure+0x6c>
10003820:	6950      	ldr	r0, [r2, #20]
10003822:	f001 fc8d 	bl	10005140 <__wrap___aeabi_uidiv>
10003826:	3001      	adds	r0, #1
10003828:	3801      	subs	r0, #1
1000382a:	d1fd      	bne.n	10003828 <clock_configure+0x68>
1000382c:	4653      	mov	r3, sl
1000382e:	015a      	lsls	r2, r3, #5
10003830:	6823      	ldr	r3, [r4, #0]
10003832:	405a      	eors	r2, r3
10003834:	23e0      	movs	r3, #224	; 0xe0
10003836:	401a      	ands	r2, r3
10003838:	2380      	movs	r3, #128	; 0x80
1000383a:	015b      	lsls	r3, r3, #5
1000383c:	4323      	orrs	r3, r4
1000383e:	601a      	str	r2, [r3, #0]
10003840:	465a      	mov	r2, fp
10003842:	2a01      	cmp	r2, #1
10003844:	d928      	bls.n	10003898 <clock_configure+0xd8>
10003846:	2380      	movs	r3, #128	; 0x80
10003848:	019b      	lsls	r3, r3, #6
1000384a:	4323      	orrs	r3, r4
1000384c:	2280      	movs	r2, #128	; 0x80
1000384e:	0112      	lsls	r2, r2, #4
10003850:	601a      	str	r2, [r3, #0]
10003852:	4643      	mov	r3, r8
10003854:	6063      	str	r3, [r4, #4]
10003856:	4642      	mov	r2, r8
10003858:	2300      	movs	r3, #0
1000385a:	0030      	movs	r0, r6
1000385c:	4649      	mov	r1, r9
1000385e:	f001 fcb1 	bl	100051c4 <__wrap___aeabi_uldivmod>
10003862:	00ad      	lsls	r5, r5, #2
10003864:	4b13      	ldr	r3, [pc, #76]	; (100038b4 <clock_configure+0xf4>)
10003866:	5158      	str	r0, [r3, r5]
10003868:	2001      	movs	r0, #1
1000386a:	bcf0      	pop	{r4, r5, r6, r7}
1000386c:	46bb      	mov	fp, r7
1000386e:	46b2      	mov	sl, r6
10003870:	46a9      	mov	r9, r5
10003872:	46a0      	mov	r8, r4
10003874:	bdf8      	pop	{r3, r4, r5, r6, r7, pc}
10003876:	4b10      	ldr	r3, [pc, #64]	; (100038b8 <clock_configure+0xf8>)
10003878:	4a10      	ldr	r2, [pc, #64]	; (100038bc <clock_configure+0xfc>)
1000387a:	212d      	movs	r1, #45	; 0x2d
1000387c:	4810      	ldr	r0, [pc, #64]	; (100038c0 <clock_configure+0x100>)
1000387e:	f7ff fee7 	bl	10003650 <__assert_func>
10003882:	2f01      	cmp	r7, #1
10003884:	d1c1      	bne.n	1000380a <clock_configure+0x4a>
10003886:	23c0      	movs	r3, #192	; 0xc0
10003888:	019b      	lsls	r3, r3, #6
1000388a:	4323      	orrs	r3, r4
1000388c:	2203      	movs	r2, #3
1000388e:	601a      	str	r2, [r3, #0]
10003890:	68a3      	ldr	r3, [r4, #8]
10003892:	07db      	lsls	r3, r3, #31
10003894:	d5fc      	bpl.n	10003890 <clock_configure+0xd0>
10003896:	e7c9      	b.n	1000382c <clock_configure+0x6c>
10003898:	6821      	ldr	r1, [r4, #0]
1000389a:	4079      	eors	r1, r7
1000389c:	2203      	movs	r2, #3
1000389e:	400a      	ands	r2, r1
100038a0:	601a      	str	r2, [r3, #0]
100038a2:	68a2      	ldr	r2, [r4, #8]
100038a4:	2301      	movs	r3, #1
100038a6:	40bb      	lsls	r3, r7
100038a8:	4213      	tst	r3, r2
100038aa:	d0fa      	beq.n	100038a2 <clock_configure+0xe2>
100038ac:	e7cb      	b.n	10003846 <clock_configure+0x86>
100038ae:	46c0      	nop			; (mov r8, r8)
100038b0:	40008000 	.word	0x40008000
100038b4:	200003c4 	.word	0x200003c4
100038b8:	10007510 	.word	0x10007510
100038bc:	10007574 	.word	0x10007574
100038c0:	10007524 	.word	0x10007524

100038c4 <clocks_init>:
100038c4:	b530      	push	{r4, r5, lr}
100038c6:	b083      	sub	sp, #12
100038c8:	200c      	movs	r0, #12
100038ca:	f000 fb21 	bl	10003f10 <watchdog_start_tick>
100038ce:	f7fe feb5 	bl	1000263c <running_on_fpga>
100038d2:	2800      	cmp	r0, #0
100038d4:	d00d      	beq.n	100038f2 <clocks_init+0x2e>
100038d6:	2300      	movs	r3, #0
100038d8:	e004      	b.n	100038e4 <clocks_init+0x20>
100038da:	0099      	lsls	r1, r3, #2
100038dc:	4a2d      	ldr	r2, [pc, #180]	; (10003994 <clocks_init+0xd0>)
100038de:	482e      	ldr	r0, [pc, #184]	; (10003998 <clocks_init+0xd4>)
100038e0:	5088      	str	r0, [r1, r2]
100038e2:	3301      	adds	r3, #1
100038e4:	2b09      	cmp	r3, #9
100038e6:	d9f8      	bls.n	100038da <clocks_init+0x16>
100038e8:	4b2a      	ldr	r3, [pc, #168]	; (10003994 <clocks_init+0xd0>)
100038ea:	4a2c      	ldr	r2, [pc, #176]	; (1000399c <clocks_init+0xd8>)
100038ec:	625a      	str	r2, [r3, #36]	; 0x24
100038ee:	b003      	add	sp, #12
100038f0:	bd30      	pop	{r4, r5, pc}
100038f2:	4b2b      	ldr	r3, [pc, #172]	; (100039a0 <clocks_init+0xdc>)
100038f4:	2200      	movs	r2, #0
100038f6:	679a      	str	r2, [r3, #120]	; 0x78
100038f8:	f000 fb12 	bl	10003f20 <xosc_init>
100038fc:	4b29      	ldr	r3, [pc, #164]	; (100039a4 <clocks_init+0xe0>)
100038fe:	2201      	movs	r2, #1
10003900:	601a      	str	r2, [r3, #0]
10003902:	4b27      	ldr	r3, [pc, #156]	; (100039a0 <clocks_init+0xdc>)
10003904:	6c5b      	ldr	r3, [r3, #68]	; 0x44
10003906:	2b01      	cmp	r3, #1
10003908:	d1fb      	bne.n	10003902 <clocks_init+0x3e>
1000390a:	4b27      	ldr	r3, [pc, #156]	; (100039a8 <clocks_init+0xe4>)
1000390c:	2203      	movs	r2, #3
1000390e:	601a      	str	r2, [r3, #0]
10003910:	4b23      	ldr	r3, [pc, #140]	; (100039a0 <clocks_init+0xdc>)
10003912:	6b9b      	ldr	r3, [r3, #56]	; 0x38
10003914:	2b01      	cmp	r3, #1
10003916:	d1fb      	bne.n	10003910 <clocks_init+0x4c>
10003918:	2402      	movs	r4, #2
1000391a:	9400      	str	r4, [sp, #0]
1000391c:	3305      	adds	r3, #5
1000391e:	4a23      	ldr	r2, [pc, #140]	; (100039ac <clocks_init+0xe8>)
10003920:	2101      	movs	r1, #1
10003922:	4823      	ldr	r0, [pc, #140]	; (100039b0 <clocks_init+0xec>)
10003924:	f000 fa68 	bl	10003df8 <pll_init>
10003928:	9400      	str	r4, [sp, #0]
1000392a:	2305      	movs	r3, #5
1000392c:	4a21      	ldr	r2, [pc, #132]	; (100039b4 <clocks_init+0xf0>)
1000392e:	2101      	movs	r1, #1
10003930:	4821      	ldr	r0, [pc, #132]	; (100039b8 <clocks_init+0xf4>)
10003932:	f000 fa61 	bl	10003df8 <pll_init>
10003936:	4b21      	ldr	r3, [pc, #132]	; (100039bc <clocks_init+0xf8>)
10003938:	9300      	str	r3, [sp, #0]
1000393a:	2200      	movs	r2, #0
1000393c:	2102      	movs	r1, #2
1000393e:	2004      	movs	r0, #4
10003940:	f7ff ff3e 	bl	100037c0 <clock_configure>
10003944:	4d1e      	ldr	r5, [pc, #120]	; (100039c0 <clocks_init+0xfc>)
10003946:	9500      	str	r5, [sp, #0]
10003948:	002b      	movs	r3, r5
1000394a:	2200      	movs	r2, #0
1000394c:	2101      	movs	r1, #1
1000394e:	2005      	movs	r0, #5
10003950:	f7ff ff36 	bl	100037c0 <clock_configure>
10003954:	4c10      	ldr	r4, [pc, #64]	; (10003998 <clocks_init+0xd4>)
10003956:	9400      	str	r4, [sp, #0]
10003958:	0023      	movs	r3, r4
1000395a:	2200      	movs	r2, #0
1000395c:	2100      	movs	r1, #0
1000395e:	2007      	movs	r0, #7
10003960:	f7ff ff2e 	bl	100037c0 <clock_configure>
10003964:	9400      	str	r4, [sp, #0]
10003966:	0023      	movs	r3, r4
10003968:	2200      	movs	r2, #0
1000396a:	2100      	movs	r1, #0
1000396c:	2008      	movs	r0, #8
1000396e:	f7ff ff27 	bl	100037c0 <clock_configure>
10003972:	4b0a      	ldr	r3, [pc, #40]	; (1000399c <clocks_init+0xd8>)
10003974:	9300      	str	r3, [sp, #0]
10003976:	0023      	movs	r3, r4
10003978:	2200      	movs	r2, #0
1000397a:	2100      	movs	r1, #0
1000397c:	2009      	movs	r0, #9
1000397e:	f7ff ff1f 	bl	100037c0 <clock_configure>
10003982:	9500      	str	r5, [sp, #0]
10003984:	002b      	movs	r3, r5
10003986:	2200      	movs	r2, #0
10003988:	2100      	movs	r1, #0
1000398a:	2006      	movs	r0, #6
1000398c:	f7ff ff18 	bl	100037c0 <clock_configure>
10003990:	e7ad      	b.n	100038ee <clocks_init+0x2a>
10003992:	46c0      	nop			; (mov r8, r8)
10003994:	200003c4 	.word	0x200003c4
10003998:	02dc6c00 	.word	0x02dc6c00
1000399c:	0000b71b 	.word	0x0000b71b
100039a0:	40008000 	.word	0x40008000
100039a4:	4000b03c 	.word	0x4000b03c
100039a8:	4000b030 	.word	0x4000b030
100039ac:	59682f00 	.word	0x59682f00
100039b0:	40028000 	.word	0x40028000
100039b4:	1c9c3800 	.word	0x1c9c3800
100039b8:	4002c000 	.word	0x4002c000
100039bc:	00b71b00 	.word	0x00b71b00
100039c0:	07735940 	.word	0x07735940

100039c4 <clock_get_hz>:
100039c4:	0080      	lsls	r0, r0, #2
100039c6:	4b01      	ldr	r3, [pc, #4]	; (100039cc <clock_get_hz+0x8>)
100039c8:	58c0      	ldr	r0, [r0, r3]
100039ca:	4770      	bx	lr
100039cc:	200003c4 	.word	0x200003c4

100039d0 <set_raw_irq_handler_and_unlock>:
100039d0:	4b07      	ldr	r3, [pc, #28]	; (100039f0 <set_raw_irq_handler_and_unlock+0x20>)
100039d2:	689b      	ldr	r3, [r3, #8]
100039d4:	3010      	adds	r0, #16
100039d6:	0080      	lsls	r0, r0, #2
100039d8:	5019      	str	r1, [r3, r0]
100039da:	f3bf 8f5f 	dmb	sy
100039de:	f3bf 8f5f 	dmb	sy
100039e2:	4b04      	ldr	r3, [pc, #16]	; (100039f4 <set_raw_irq_handler_and_unlock+0x24>)
100039e4:	2100      	movs	r1, #0
100039e6:	6019      	str	r1, [r3, #0]
100039e8:	f382 8810 	msr	PRIMASK, r2
100039ec:	4770      	bx	lr
100039ee:	46c0      	nop			; (mov r8, r8)
100039f0:	e000ed00 	.word	0xe000ed00
100039f4:	d0000124 	.word	0xd0000124

100039f8 <make_branch>:
100039f8:	b510      	push	{r4, lr}
100039fa:	1a09      	subs	r1, r1, r0
100039fc:	3904      	subs	r1, #4
100039fe:	0848      	lsrs	r0, r1, #1
10003a00:	0b09      	lsrs	r1, r1, #12
10003a02:	d105      	bne.n	10003a10 <make_branch+0x18>
10003a04:	0540      	lsls	r0, r0, #21
10003a06:	0d40      	lsrs	r0, r0, #21
10003a08:	4b04      	ldr	r3, [pc, #16]	; (10003a1c <make_branch+0x24>)
10003a0a:	4318      	orrs	r0, r3
10003a0c:	b280      	uxth	r0, r0
10003a0e:	bd10      	pop	{r4, pc}
10003a10:	4b03      	ldr	r3, [pc, #12]	; (10003a20 <make_branch+0x28>)
10003a12:	4a04      	ldr	r2, [pc, #16]	; (10003a24 <make_branch+0x2c>)
10003a14:	218b      	movs	r1, #139	; 0x8b
10003a16:	4804      	ldr	r0, [pc, #16]	; (10003a28 <make_branch+0x30>)
10003a18:	f7ff fe1a 	bl	10003650 <__assert_func>
10003a1c:	ffffe000 	.word	0xffffe000
10003a20:	10007584 	.word	0x10007584
10003a24:	1000779c 	.word	0x1000779c
10003a28:	10007594 	.word	0x10007594

10003a2c <insert_branch_and_link>:
10003a2c:	b510      	push	{r4, lr}
10003a2e:	1a09      	subs	r1, r1, r0
10003a30:	3904      	subs	r1, #4
10003a32:	084c      	lsrs	r4, r1, #1
10003a34:	0b09      	lsrs	r1, r1, #12
10003a36:	d108      	bne.n	10003a4a <insert_branch_and_link+0x1e>
10003a38:	0549      	lsls	r1, r1, #21
10003a3a:	0d49      	lsrs	r1, r1, #21
10003a3c:	4a06      	ldr	r2, [pc, #24]	; (10003a58 <insert_branch_and_link+0x2c>)
10003a3e:	4311      	orrs	r1, r2
10003a40:	8001      	strh	r1, [r0, #0]
10003a42:	4b06      	ldr	r3, [pc, #24]	; (10003a5c <insert_branch_and_link+0x30>)
10003a44:	4323      	orrs	r3, r4
10003a46:	8043      	strh	r3, [r0, #2]
10003a48:	bd10      	pop	{r4, pc}
10003a4a:	4b05      	ldr	r3, [pc, #20]	; (10003a60 <insert_branch_and_link+0x34>)
10003a4c:	4a05      	ldr	r2, [pc, #20]	; (10003a64 <insert_branch_and_link+0x38>)
10003a4e:	2193      	movs	r1, #147	; 0x93
10003a50:	4805      	ldr	r0, [pc, #20]	; (10003a68 <insert_branch_and_link+0x3c>)
10003a52:	f7ff fdfd 	bl	10003650 <__assert_func>
10003a56:	46c0      	nop			; (mov r8, r8)
10003a58:	fffff000 	.word	0xfffff000
10003a5c:	fffff800 	.word	0xfffff800
10003a60:	10007584 	.word	0x10007584
10003a64:	10007770 	.word	0x10007770
10003a68:	10007594 	.word	0x10007594

10003a6c <irq_is_enabled>:
10003a6c:	2301      	movs	r3, #1
10003a6e:	4083      	lsls	r3, r0
10003a70:	4a03      	ldr	r2, [pc, #12]	; (10003a80 <irq_is_enabled+0x14>)
10003a72:	6810      	ldr	r0, [r2, #0]
10003a74:	4018      	ands	r0, r3
10003a76:	1e43      	subs	r3, r0, #1
10003a78:	4198      	sbcs	r0, r3
10003a7a:	b2c0      	uxtb	r0, r0
10003a7c:	4770      	bx	lr
10003a7e:	46c0      	nop			; (mov r8, r8)
10003a80:	e000e100 	.word	0xe000e100

10003a84 <irq_set_mask_enabled>:
10003a84:	2900      	cmp	r1, #0
10003a86:	d004      	beq.n	10003a92 <irq_set_mask_enabled+0xe>
10003a88:	4b03      	ldr	r3, [pc, #12]	; (10003a98 <irq_set_mask_enabled+0x14>)
10003a8a:	6018      	str	r0, [r3, #0]
10003a8c:	4b03      	ldr	r3, [pc, #12]	; (10003a9c <irq_set_mask_enabled+0x18>)
10003a8e:	6018      	str	r0, [r3, #0]
10003a90:	4770      	bx	lr
10003a92:	4b03      	ldr	r3, [pc, #12]	; (10003aa0 <irq_set_mask_enabled+0x1c>)
10003a94:	6018      	str	r0, [r3, #0]
10003a96:	e7fb      	b.n	10003a90 <irq_set_mask_enabled+0xc>
10003a98:	e000e280 	.word	0xe000e280
10003a9c:	e000e100 	.word	0xe000e100
10003aa0:	e000e180 	.word	0xe000e180

10003aa4 <irq_set_enabled>:
10003aa4:	b510      	push	{r4, lr}
10003aa6:	2301      	movs	r3, #1
10003aa8:	4083      	lsls	r3, r0
10003aaa:	0018      	movs	r0, r3
10003aac:	f7ff ffea 	bl	10003a84 <irq_set_mask_enabled>
10003ab0:	bd10      	pop	{r4, pc}
	...

10003ab4 <irq_get_vtable_handler>:
10003ab4:	4b02      	ldr	r3, [pc, #8]	; (10003ac0 <irq_get_vtable_handler+0xc>)
10003ab6:	689b      	ldr	r3, [r3, #8]
10003ab8:	3010      	adds	r0, #16
10003aba:	0080      	lsls	r0, r0, #2
10003abc:	58c0      	ldr	r0, [r0, r3]
10003abe:	4770      	bx	lr
10003ac0:	e000ed00 	.word	0xe000ed00

10003ac4 <irq_set_exclusive_handler>:
10003ac4:	b570      	push	{r4, r5, r6, lr}
10003ac6:	0004      	movs	r4, r0
10003ac8:	000d      	movs	r5, r1
10003aca:	f3ef 8610 	mrs	r6, PRIMASK
10003ace:	b672      	cpsid	i
10003ad0:	4b0c      	ldr	r3, [pc, #48]	; (10003b04 <irq_set_exclusive_handler+0x40>)
10003ad2:	681b      	ldr	r3, [r3, #0]
10003ad4:	2b00      	cmp	r3, #0
10003ad6:	d0fb      	beq.n	10003ad0 <irq_set_exclusive_handler+0xc>
10003ad8:	f3bf 8f5f 	dmb	sy
10003adc:	0020      	movs	r0, r4
10003ade:	f7ff ffe9 	bl	10003ab4 <irq_get_vtable_handler>
10003ae2:	4b09      	ldr	r3, [pc, #36]	; (10003b08 <irq_set_exclusive_handler+0x44>)
10003ae4:	4298      	cmp	r0, r3
10003ae6:	d001      	beq.n	10003aec <irq_set_exclusive_handler+0x28>
10003ae8:	42a8      	cmp	r0, r5
10003aea:	d105      	bne.n	10003af8 <irq_set_exclusive_handler+0x34>
10003aec:	0032      	movs	r2, r6
10003aee:	0029      	movs	r1, r5
10003af0:	0020      	movs	r0, r4
10003af2:	f7ff ff6d 	bl	100039d0 <set_raw_irq_handler_and_unlock>
10003af6:	bd70      	pop	{r4, r5, r6, pc}
10003af8:	4b04      	ldr	r3, [pc, #16]	; (10003b0c <irq_set_exclusive_handler+0x48>)
10003afa:	4a05      	ldr	r2, [pc, #20]	; (10003b10 <irq_set_exclusive_handler+0x4c>)
10003afc:	216e      	movs	r1, #110	; 0x6e
10003afe:	4805      	ldr	r0, [pc, #20]	; (10003b14 <irq_set_exclusive_handler+0x50>)
10003b00:	f7ff fda6 	bl	10003650 <__assert_func>
10003b04:	d0000124 	.word	0xd0000124
10003b08:	100001cd 	.word	0x100001cd
10003b0c:	100075e0 	.word	0x100075e0
10003b10:	100077b8 	.word	0x100077b8
10003b14:	10007594 	.word	0x10007594

10003b18 <irq_remove_handler>:
10003b18:	b5f0      	push	{r4, r5, r6, r7, lr}
10003b1a:	46ce      	mov	lr, r9
10003b1c:	4647      	mov	r7, r8
10003b1e:	b580      	push	{r7, lr}
10003b20:	b083      	sub	sp, #12
10003b22:	0006      	movs	r6, r0
10003b24:	000d      	movs	r5, r1
10003b26:	f3ef 8810 	mrs	r8, PRIMASK
10003b2a:	b672      	cpsid	i
10003b2c:	4b57      	ldr	r3, [pc, #348]	; (10003c8c <irq_remove_handler+0x174>)
10003b2e:	681b      	ldr	r3, [r3, #0]
10003b30:	2b00      	cmp	r3, #0
10003b32:	d0fb      	beq.n	10003b2c <irq_remove_handler+0x14>
10003b34:	f3bf 8f5f 	dmb	sy
10003b38:	4b55      	ldr	r3, [pc, #340]	; (10003c90 <irq_remove_handler+0x178>)
10003b3a:	689a      	ldr	r2, [r3, #8]
10003b3c:	0034      	movs	r4, r6
10003b3e:	3410      	adds	r4, #16
10003b40:	00a3      	lsls	r3, r4, #2
10003b42:	58d7      	ldr	r7, [r2, r3]
10003b44:	4b53      	ldr	r3, [pc, #332]	; (10003c94 <irq_remove_handler+0x17c>)
10003b46:	429f      	cmp	r7, r3
10003b48:	d007      	beq.n	10003b5a <irq_remove_handler+0x42>
10003b4a:	42af      	cmp	r7, r5
10003b4c:	d100      	bne.n	10003b50 <irq_remove_handler+0x38>
10003b4e:	e09b      	b.n	10003c88 <irq_remove_handler+0x170>
10003b50:	9701      	str	r7, [sp, #4]
10003b52:	4b51      	ldr	r3, [pc, #324]	; (10003c98 <irq_remove_handler+0x180>)
10003b54:	1afb      	subs	r3, r7, r3
10003b56:	2b2f      	cmp	r3, #47	; 0x2f
10003b58:	d909      	bls.n	10003b6e <irq_remove_handler+0x56>
10003b5a:	4642      	mov	r2, r8
10003b5c:	0039      	movs	r1, r7
10003b5e:	0030      	movs	r0, r6
10003b60:	f7ff ff36 	bl	100039d0 <set_raw_irq_handler_and_unlock>
10003b64:	b003      	add	sp, #12
10003b66:	bcc0      	pop	{r6, r7}
10003b68:	46b9      	mov	r9, r7
10003b6a:	46b0      	mov	r8, r6
10003b6c:	bdf0      	pop	{r4, r5, r6, r7, pc}
10003b6e:	0030      	movs	r0, r6
10003b70:	f7ff ff7c 	bl	10003a6c <irq_is_enabled>
10003b74:	4681      	mov	r9, r0
10003b76:	2100      	movs	r1, #0
10003b78:	0030      	movs	r0, r6
10003b7a:	f7ff ff93 	bl	10003aa4 <irq_set_enabled>
10003b7e:	f3bf 8f5f 	dmb	sy
10003b82:	f7fc fb70 	bl	10000266 <__get_current_exception>
10003b86:	2800      	cmp	r0, #0
10003b88:	d001      	beq.n	10003b8e <irq_remove_handler+0x76>
10003b8a:	4284      	cmp	r4, r0
10003b8c:	d119      	bne.n	10003bc2 <irq_remove_handler+0xaa>
10003b8e:	2301      	movs	r3, #1
10003b90:	9c01      	ldr	r4, [sp, #4]
10003b92:	439c      	bics	r4, r3
10003b94:	4941      	ldr	r1, [pc, #260]	; (10003c9c <irq_remove_handler+0x184>)
10003b96:	0023      	movs	r3, r4
10003b98:	4a3f      	ldr	r2, [pc, #252]	; (10003c98 <irq_remove_handler+0x180>)
10003b9a:	1a9b      	subs	r3, r3, r2
10003b9c:	415b      	adcs	r3, r3
10003b9e:	4359      	muls	r1, r3
10003ba0:	0d09      	lsrs	r1, r1, #20
10003ba2:	b249      	sxtb	r1, r1
10003ba4:	2200      	movs	r2, #0
10003ba6:	68a3      	ldr	r3, [r4, #8]
10003ba8:	42ab      	cmp	r3, r5
10003baa:	d012      	beq.n	10003bd2 <irq_remove_handler+0xba>
10003bac:	2206      	movs	r2, #6
10003bae:	56a2      	ldrsb	r2, [r4, r2]
10003bb0:	2a00      	cmp	r2, #0
10003bb2:	db0d      	blt.n	10003bd0 <irq_remove_handler+0xb8>
10003bb4:	0053      	lsls	r3, r2, #1
10003bb6:	189b      	adds	r3, r3, r2
10003bb8:	009b      	lsls	r3, r3, #2
10003bba:	0022      	movs	r2, r4
10003bbc:	4c36      	ldr	r4, [pc, #216]	; (10003c98 <irq_remove_handler+0x180>)
10003bbe:	18e4      	adds	r4, r4, r3
10003bc0:	e7f1      	b.n	10003ba6 <irq_remove_handler+0x8e>
10003bc2:	211e      	movs	r1, #30
10003bc4:	4b36      	ldr	r3, [pc, #216]	; (10003ca0 <irq_remove_handler+0x188>)
10003bc6:	4a37      	ldr	r2, [pc, #220]	; (10003ca4 <irq_remove_handler+0x18c>)
10003bc8:	31ff      	adds	r1, #255	; 0xff
10003bca:	4837      	ldr	r0, [pc, #220]	; (10003ca8 <irq_remove_handler+0x190>)
10003bcc:	f7ff fd40 	bl	10003650 <__assert_func>
10003bd0:	0022      	movs	r2, r4
10003bd2:	42ab      	cmp	r3, r5
10003bd4:	d151      	bne.n	10003c7a <irq_remove_handler+0x162>
10003bd6:	2506      	movs	r5, #6
10003bd8:	5765      	ldrsb	r5, [r4, r5]
10003bda:	2d00      	cmp	r5, #0
10003bdc:	db39      	blt.n	10003c52 <irq_remove_handler+0x13a>
10003bde:	006b      	lsls	r3, r5, #1
10003be0:	195b      	adds	r3, r3, r5
10003be2:	009a      	lsls	r2, r3, #2
10003be4:	4b2c      	ldr	r3, [pc, #176]	; (10003c98 <irq_remove_handler+0x180>)
10003be6:	189b      	adds	r3, r3, r2
10003be8:	689a      	ldr	r2, [r3, #8]
10003bea:	60a2      	str	r2, [r4, #8]
10003bec:	79da      	ldrb	r2, [r3, #7]
10003bee:	71e2      	strb	r2, [r4, #7]
10003bf0:	2206      	movs	r2, #6
10003bf2:	569a      	ldrsb	r2, [r3, r2]
10003bf4:	71a2      	strb	r2, [r4, #6]
10003bf6:	799b      	ldrb	r3, [r3, #6]
10003bf8:	b25b      	sxtb	r3, r3
10003bfa:	2b00      	cmp	r3, #0
10003bfc:	da10      	bge.n	10003c20 <irq_remove_handler+0x108>
10003bfe:	20bd      	movs	r0, #189	; 0xbd
10003c00:	0200      	lsls	r0, r0, #8
10003c02:	80a0      	strh	r0, [r4, #4]
10003c04:	006b      	lsls	r3, r5, #1
10003c06:	195b      	adds	r3, r3, r5
10003c08:	009b      	lsls	r3, r3, #2
10003c0a:	4a23      	ldr	r2, [pc, #140]	; (10003c98 <irq_remove_handler+0x180>)
10003c0c:	18d3      	adds	r3, r2, r3
10003c0e:	4a27      	ldr	r2, [pc, #156]	; (10003cac <irq_remove_handler+0x194>)
10003c10:	7811      	ldrb	r1, [r2, #0]
10003c12:	7199      	strb	r1, [r3, #6]
10003c14:	7015      	strb	r5, [r2, #0]
10003c16:	4649      	mov	r1, r9
10003c18:	0030      	movs	r0, r6
10003c1a:	f7ff ff43 	bl	10003aa4 <irq_set_enabled>
10003c1e:	e79c      	b.n	10003b5a <irq_remove_handler+0x42>
10003c20:	1d20      	adds	r0, r4, #4
10003c22:	006b      	lsls	r3, r5, #1
10003c24:	195b      	adds	r3, r3, r5
10003c26:	009b      	lsls	r3, r3, #2
10003c28:	4a1b      	ldr	r2, [pc, #108]	; (10003c98 <irq_remove_handler+0x180>)
10003c2a:	189b      	adds	r3, r3, r2
10003c2c:	1d1a      	adds	r2, r3, #4
10003c2e:	889b      	ldrh	r3, [r3, #4]
10003c30:	0ad9      	lsrs	r1, r3, #11
10003c32:	291c      	cmp	r1, #28
10003c34:	d107      	bne.n	10003c46 <irq_remove_handler+0x12e>
10003c36:	055b      	lsls	r3, r3, #21
10003c38:	155b      	asrs	r3, r3, #21
10003c3a:	3302      	adds	r3, #2
10003c3c:	0059      	lsls	r1, r3, #1
10003c3e:	1851      	adds	r1, r2, r1
10003c40:	f7ff feda 	bl	100039f8 <make_branch>
10003c44:	e7dd      	b.n	10003c02 <irq_remove_handler+0xea>
10003c46:	4b1a      	ldr	r3, [pc, #104]	; (10003cb0 <irq_remove_handler+0x198>)
10003c48:	4a1a      	ldr	r2, [pc, #104]	; (10003cb4 <irq_remove_handler+0x19c>)
10003c4a:	2199      	movs	r1, #153	; 0x99
10003c4c:	4816      	ldr	r0, [pc, #88]	; (10003ca8 <irq_remove_handler+0x190>)
10003c4e:	f7ff fcff 	bl	10003650 <__assert_func>
10003c52:	2800      	cmp	r0, #0
10003c54:	d10c      	bne.n	10003c70 <irq_remove_handler+0x158>
10003c56:	2a00      	cmp	r2, #0
10003c58:	d008      	beq.n	10003c6c <irq_remove_handler+0x154>
10003c5a:	23ff      	movs	r3, #255	; 0xff
10003c5c:	7193      	strb	r3, [r2, #6]
10003c5e:	4b16      	ldr	r3, [pc, #88]	; (10003cb8 <irq_remove_handler+0x1a0>)
10003c60:	8093      	strh	r3, [r2, #4]
10003c62:	4b12      	ldr	r3, [pc, #72]	; (10003cac <irq_remove_handler+0x194>)
10003c64:	781a      	ldrb	r2, [r3, #0]
10003c66:	71a2      	strb	r2, [r4, #6]
10003c68:	7019      	strb	r1, [r3, #0]
10003c6a:	e7d4      	b.n	10003c16 <irq_remove_handler+0xfe>
10003c6c:	4f09      	ldr	r7, [pc, #36]	; (10003c94 <irq_remove_handler+0x17c>)
10003c6e:	e7f8      	b.n	10003c62 <irq_remove_handler+0x14a>
10003c70:	1d20      	adds	r0, r4, #4
10003c72:	4912      	ldr	r1, [pc, #72]	; (10003cbc <irq_remove_handler+0x1a4>)
10003c74:	f7ff feda 	bl	10003a2c <insert_branch_and_link>
10003c78:	e7cd      	b.n	10003c16 <irq_remove_handler+0xfe>
10003c7a:	21a9      	movs	r1, #169	; 0xa9
10003c7c:	4b10      	ldr	r3, [pc, #64]	; (10003cc0 <irq_remove_handler+0x1a8>)
10003c7e:	4a09      	ldr	r2, [pc, #36]	; (10003ca4 <irq_remove_handler+0x18c>)
10003c80:	0049      	lsls	r1, r1, #1
10003c82:	4809      	ldr	r0, [pc, #36]	; (10003ca8 <irq_remove_handler+0x190>)
10003c84:	f7ff fce4 	bl	10003650 <__assert_func>
10003c88:	4f02      	ldr	r7, [pc, #8]	; (10003c94 <irq_remove_handler+0x17c>)
10003c8a:	e766      	b.n	10003b5a <irq_remove_handler+0x42>
10003c8c:	d0000124 	.word	0xd0000124
10003c90:	e000ed00 	.word	0xe000ed00
10003c94:	100001cd 	.word	0x100001cd
10003c98:	200001fc 	.word	0x200001fc
10003c9c:	0000aaaa 	.word	0x0000aaaa
10003ca0:	100076f4 	.word	0x100076f4
10003ca4:	10007788 	.word	0x10007788
10003ca8:	10007594 	.word	0x10007594
10003cac:	20020a31 	.word	0x20020a31
10003cb0:	100076dc 	.word	0x100076dc
10003cb4:	100077a8 	.word	0x100077a8
10003cb8:	ffffbd00 	.word	0xffffbd00
10003cbc:	20000236 	.word	0x20000236
10003cc0:	10007718 	.word	0x10007718

10003cc4 <irq_set_priority>:
10003cc4:	b510      	push	{r4, lr}
10003cc6:	2303      	movs	r3, #3
10003cc8:	0004      	movs	r4, r0
10003cca:	439c      	bics	r4, r3
10003ccc:	4a06      	ldr	r2, [pc, #24]	; (10003ce8 <irq_set_priority+0x24>)
10003cce:	4694      	mov	ip, r2
10003cd0:	4464      	add	r4, ip
10003cd2:	6822      	ldr	r2, [r4, #0]
10003cd4:	4018      	ands	r0, r3
10003cd6:	00c0      	lsls	r0, r0, #3
10003cd8:	33fc      	adds	r3, #252	; 0xfc
10003cda:	4083      	lsls	r3, r0
10003cdc:	439a      	bics	r2, r3
10003cde:	0013      	movs	r3, r2
10003ce0:	4081      	lsls	r1, r0
10003ce2:	430b      	orrs	r3, r1
10003ce4:	6023      	str	r3, [r4, #0]
10003ce6:	bd10      	pop	{r4, pc}
10003ce8:	e000e400 	.word	0xe000e400

10003cec <irq_add_tail_to_free_list>:
10003cec:	b570      	push	{r4, r5, r6, lr}
10003cee:	0004      	movs	r4, r0
10003cf0:	2601      	movs	r6, #1
10003cf2:	4306      	orrs	r6, r0
10003cf4:	4b2d      	ldr	r3, [pc, #180]	; (10003dac <irq_add_tail_to_free_list+0xc0>)
10003cf6:	1af3      	subs	r3, r6, r3
10003cf8:	2b2f      	cmp	r3, #47	; 0x2f
10003cfa:	d828      	bhi.n	10003d4e <irq_add_tail_to_free_list+0x62>
10003cfc:	f7fc fab3 	bl	10000266 <__get_current_exception>
10003d00:	2800      	cmp	r0, #0
10003d02:	d02b      	beq.n	10003d5c <irq_add_tail_to_free_list+0x70>
10003d04:	f3ef 8c10 	mrs	ip, PRIMASK
10003d08:	b672      	cpsid	i
10003d0a:	4b29      	ldr	r3, [pc, #164]	; (10003db0 <irq_add_tail_to_free_list+0xc4>)
10003d0c:	681b      	ldr	r3, [r3, #0]
10003d0e:	2b00      	cmp	r3, #0
10003d10:	d0fb      	beq.n	10003d0a <irq_add_tail_to_free_list+0x1e>
10003d12:	f3bf 8f5f 	dmb	sy
10003d16:	4d27      	ldr	r5, [pc, #156]	; (10003db4 <irq_add_tail_to_free_list+0xc8>)
10003d18:	0022      	movs	r2, r4
10003d1a:	4924      	ldr	r1, [pc, #144]	; (10003dac <irq_add_tail_to_free_list+0xc0>)
10003d1c:	1a52      	subs	r2, r2, r1
10003d1e:	4152      	adcs	r2, r2
10003d20:	4355      	muls	r5, r2
10003d22:	0d2d      	lsrs	r5, r5, #20
10003d24:	b26d      	sxtb	r5, r5
10003d26:	4b24      	ldr	r3, [pc, #144]	; (10003db8 <irq_add_tail_to_free_list+0xcc>)
10003d28:	689b      	ldr	r3, [r3, #8]
10003d2a:	0080      	lsls	r0, r0, #2
10003d2c:	581b      	ldr	r3, [r3, r0]
10003d2e:	42b3      	cmp	r3, r6
10003d30:	d01b      	beq.n	10003d6a <irq_add_tail_to_free_list+0x7e>
10003d32:	2200      	movs	r2, #0
10003d34:	2a03      	cmp	r2, #3
10003d36:	d832      	bhi.n	10003d9e <irq_add_tail_to_free_list+0xb2>
10003d38:	0053      	lsls	r3, r2, #1
10003d3a:	189b      	adds	r3, r3, r2
10003d3c:	009b      	lsls	r3, r3, #2
10003d3e:	491b      	ldr	r1, [pc, #108]	; (10003dac <irq_add_tail_to_free_list+0xc0>)
10003d40:	18cb      	adds	r3, r1, r3
10003d42:	799b      	ldrb	r3, [r3, #6]
10003d44:	b25b      	sxtb	r3, r3
10003d46:	42ab      	cmp	r3, r5
10003d48:	d01f      	beq.n	10003d8a <irq_add_tail_to_free_list+0x9e>
10003d4a:	3201      	adds	r2, #1
10003d4c:	e7f2      	b.n	10003d34 <irq_add_tail_to_free_list+0x48>
10003d4e:	2178      	movs	r1, #120	; 0x78
10003d50:	4b1a      	ldr	r3, [pc, #104]	; (10003dbc <irq_add_tail_to_free_list+0xd0>)
10003d52:	4a1b      	ldr	r2, [pc, #108]	; (10003dc0 <irq_add_tail_to_free_list+0xd4>)
10003d54:	31ff      	adds	r1, #255	; 0xff
10003d56:	481b      	ldr	r0, [pc, #108]	; (10003dc4 <irq_add_tail_to_free_list+0xd8>)
10003d58:	f7ff fc7a 	bl	10003650 <__assert_func>
10003d5c:	21bd      	movs	r1, #189	; 0xbd
10003d5e:	4b1a      	ldr	r3, [pc, #104]	; (10003dc8 <irq_add_tail_to_free_list+0xdc>)
10003d60:	4a17      	ldr	r2, [pc, #92]	; (10003dc0 <irq_add_tail_to_free_list+0xd4>)
10003d62:	0049      	lsls	r1, r1, #1
10003d64:	4817      	ldr	r0, [pc, #92]	; (10003dc4 <irq_add_tail_to_free_list+0xd8>)
10003d66:	f7ff fc73 	bl	10003650 <__assert_func>
10003d6a:	4b13      	ldr	r3, [pc, #76]	; (10003db8 <irq_add_tail_to_free_list+0xcc>)
10003d6c:	689b      	ldr	r3, [r3, #8]
10003d6e:	4a17      	ldr	r2, [pc, #92]	; (10003dcc <irq_add_tail_to_free_list+0xe0>)
10003d70:	501a      	str	r2, [r3, r0]
10003d72:	4b17      	ldr	r3, [pc, #92]	; (10003dd0 <irq_add_tail_to_free_list+0xe4>)
10003d74:	781a      	ldrb	r2, [r3, #0]
10003d76:	71a2      	strb	r2, [r4, #6]
10003d78:	701d      	strb	r5, [r3, #0]
10003d7a:	f3bf 8f5f 	dmb	sy
10003d7e:	4b0c      	ldr	r3, [pc, #48]	; (10003db0 <irq_add_tail_to_free_list+0xc4>)
10003d80:	2200      	movs	r2, #0
10003d82:	601a      	str	r2, [r3, #0]
10003d84:	f38c 8810 	msr	PRIMASK, ip
10003d88:	bd70      	pop	{r4, r5, r6, pc}
10003d8a:	0008      	movs	r0, r1
10003d8c:	0053      	lsls	r3, r2, #1
10003d8e:	1899      	adds	r1, r3, r2
10003d90:	0089      	lsls	r1, r1, #2
10003d92:	1841      	adds	r1, r0, r1
10003d94:	26ff      	movs	r6, #255	; 0xff
10003d96:	718e      	strb	r6, [r1, #6]
10003d98:	4a0e      	ldr	r2, [pc, #56]	; (10003dd4 <irq_add_tail_to_free_list+0xe8>)
10003d9a:	808a      	strh	r2, [r1, #4]
10003d9c:	e7e9      	b.n	10003d72 <irq_add_tail_to_free_list+0x86>
10003d9e:	218c      	movs	r1, #140	; 0x8c
10003da0:	4b0d      	ldr	r3, [pc, #52]	; (10003dd8 <irq_add_tail_to_free_list+0xec>)
10003da2:	4a07      	ldr	r2, [pc, #28]	; (10003dc0 <irq_add_tail_to_free_list+0xd4>)
10003da4:	31ff      	adds	r1, #255	; 0xff
10003da6:	4807      	ldr	r0, [pc, #28]	; (10003dc4 <irq_add_tail_to_free_list+0xd8>)
10003da8:	f7ff fc52 	bl	10003650 <__assert_func>
10003dac:	200001fc 	.word	0x200001fc
10003db0:	d0000124 	.word	0xd0000124
10003db4:	0000aaaa 	.word	0x0000aaaa
10003db8:	e000ed00 	.word	0xe000ed00
10003dbc:	10007720 	.word	0x10007720
10003dc0:	10007754 	.word	0x10007754
10003dc4:	10007594 	.word	0x10007594
10003dc8:	10007748 	.word	0x10007748
10003dcc:	100001cd 	.word	0x100001cd
10003dd0:	20020a31 	.word	0x20020a31
10003dd4:	ffffbd00 	.word	0xffffbd00
10003dd8:	100073bc 	.word	0x100073bc

10003ddc <irq_init_priorities>:
10003ddc:	2200      	movs	r2, #0
10003dde:	4b04      	ldr	r3, [pc, #16]	; (10003df0 <irq_init_priorities+0x14>)
10003de0:	e002      	b.n	10003de8 <irq_init_priorities+0xc>
10003de2:	4904      	ldr	r1, [pc, #16]	; (10003df4 <irq_init_priorities+0x18>)
10003de4:	c302      	stmia	r3!, {r1}
10003de6:	3201      	adds	r2, #1
10003de8:	2a07      	cmp	r2, #7
10003dea:	d9fa      	bls.n	10003de2 <irq_init_priorities+0x6>
10003dec:	4770      	bx	lr
10003dee:	46c0      	nop			; (mov r8, r8)
10003df0:	e000e400 	.word	0xe000e400
10003df4:	80808080 	.word	0x80808080

10003df8 <pll_init>:
10003df8:	b5f0      	push	{r4, r5, r6, r7, lr}
10003dfa:	46ce      	mov	lr, r9
10003dfc:	b500      	push	{lr}
10003dfe:	0004      	movs	r4, r0
10003e00:	000e      	movs	r6, r1
10003e02:	4691      	mov	r9, r2
10003e04:	001f      	movs	r7, r3
10003e06:	200c      	movs	r0, #12
10003e08:	f001 f99a 	bl	10005140 <__wrap___aeabi_uidiv>
10003e0c:	0005      	movs	r5, r0
10003e0e:	0143      	lsls	r3, r0, #5
10003e10:	1a1b      	subs	r3, r3, r0
10003e12:	0199      	lsls	r1, r3, #6
10003e14:	1ac9      	subs	r1, r1, r3
10003e16:	00c9      	lsls	r1, r1, #3
10003e18:	1809      	adds	r1, r1, r0
10003e1a:	0189      	lsls	r1, r1, #6
10003e1c:	4648      	mov	r0, r9
10003e1e:	f001 f98f 	bl	10005140 <__wrap___aeabi_uidiv>
10003e22:	0002      	movs	r2, r0
10003e24:	3a10      	subs	r2, #16
10003e26:	2398      	movs	r3, #152	; 0x98
10003e28:	005b      	lsls	r3, r3, #1
10003e2a:	429a      	cmp	r2, r3
10003e2c:	d833      	bhi.n	10003e96 <pll_init+0x9e>
10003e2e:	1e7b      	subs	r3, r7, #1
10003e30:	2b06      	cmp	r3, #6
10003e32:	d836      	bhi.n	10003ea2 <pll_init+0xaa>
10003e34:	9b06      	ldr	r3, [sp, #24]
10003e36:	3b01      	subs	r3, #1
10003e38:	2b06      	cmp	r3, #6
10003e3a:	d832      	bhi.n	10003ea2 <pll_init+0xaa>
10003e3c:	9b06      	ldr	r3, [sp, #24]
10003e3e:	429f      	cmp	r7, r3
10003e40:	d335      	bcc.n	10003eae <pll_init+0xb6>
10003e42:	464b      	mov	r3, r9
10003e44:	091a      	lsrs	r2, r3, #4
10003e46:	42aa      	cmp	r2, r5
10003e48:	d337      	bcc.n	10003eba <pll_init+0xc2>
10003e4a:	043f      	lsls	r7, r7, #16
10003e4c:	9b06      	ldr	r3, [sp, #24]
10003e4e:	031d      	lsls	r5, r3, #12
10003e50:	432f      	orrs	r7, r5
10003e52:	6823      	ldr	r3, [r4, #0]
10003e54:	2b00      	cmp	r3, #0
10003e56:	db36      	blt.n	10003ec6 <pll_init+0xce>
10003e58:	4b23      	ldr	r3, [pc, #140]	; (10003ee8 <pll_init+0xf0>)
10003e5a:	429c      	cmp	r4, r3
10003e5c:	d041      	beq.n	10003ee2 <pll_init+0xea>
10003e5e:	2280      	movs	r2, #128	; 0x80
10003e60:	0152      	lsls	r2, r2, #5
10003e62:	4b22      	ldr	r3, [pc, #136]	; (10003eec <pll_init+0xf4>)
10003e64:	601a      	str	r2, [r3, #0]
10003e66:	4b22      	ldr	r3, [pc, #136]	; (10003ef0 <pll_init+0xf8>)
10003e68:	601a      	str	r2, [r3, #0]
10003e6a:	4b22      	ldr	r3, [pc, #136]	; (10003ef4 <pll_init+0xfc>)
10003e6c:	689b      	ldr	r3, [r3, #8]
10003e6e:	0011      	movs	r1, r2
10003e70:	4399      	bics	r1, r3
10003e72:	d1fa      	bne.n	10003e6a <pll_init+0x72>
10003e74:	6026      	str	r6, [r4, #0]
10003e76:	60a0      	str	r0, [r4, #8]
10003e78:	1d23      	adds	r3, r4, #4
10003e7a:	22c0      	movs	r2, #192	; 0xc0
10003e7c:	0192      	lsls	r2, r2, #6
10003e7e:	431a      	orrs	r2, r3
10003e80:	2321      	movs	r3, #33	; 0x21
10003e82:	6013      	str	r3, [r2, #0]
10003e84:	6823      	ldr	r3, [r4, #0]
10003e86:	2b00      	cmp	r3, #0
10003e88:	dafc      	bge.n	10003e84 <pll_init+0x8c>
10003e8a:	60e7      	str	r7, [r4, #12]
10003e8c:	2308      	movs	r3, #8
10003e8e:	6013      	str	r3, [r2, #0]
10003e90:	bc80      	pop	{r7}
10003e92:	46b9      	mov	r9, r7
10003e94:	bdf0      	pop	{r4, r5, r6, r7, pc}
10003e96:	4b18      	ldr	r3, [pc, #96]	; (10003ef8 <pll_init+0x100>)
10003e98:	4a18      	ldr	r2, [pc, #96]	; (10003efc <pll_init+0x104>)
10003e9a:	2116      	movs	r1, #22
10003e9c:	4818      	ldr	r0, [pc, #96]	; (10003f00 <pll_init+0x108>)
10003e9e:	f7ff fbd7 	bl	10003650 <__assert_func>
10003ea2:	4b18      	ldr	r3, [pc, #96]	; (10003f04 <pll_init+0x10c>)
10003ea4:	4a15      	ldr	r2, [pc, #84]	; (10003efc <pll_init+0x104>)
10003ea6:	2119      	movs	r1, #25
10003ea8:	4815      	ldr	r0, [pc, #84]	; (10003f00 <pll_init+0x108>)
10003eaa:	f7ff fbd1 	bl	10003650 <__assert_func>
10003eae:	4b16      	ldr	r3, [pc, #88]	; (10003f08 <pll_init+0x110>)
10003eb0:	4a12      	ldr	r2, [pc, #72]	; (10003efc <pll_init+0x104>)
10003eb2:	211f      	movs	r1, #31
10003eb4:	4812      	ldr	r0, [pc, #72]	; (10003f00 <pll_init+0x108>)
10003eb6:	f7ff fbcb 	bl	10003650 <__assert_func>
10003eba:	4b14      	ldr	r3, [pc, #80]	; (10003f0c <pll_init+0x114>)
10003ebc:	4a0f      	ldr	r2, [pc, #60]	; (10003efc <pll_init+0x104>)
10003ebe:	2122      	movs	r1, #34	; 0x22
10003ec0:	480f      	ldr	r0, [pc, #60]	; (10003f00 <pll_init+0x108>)
10003ec2:	f7ff fbc5 	bl	10003650 <__assert_func>
10003ec6:	6822      	ldr	r2, [r4, #0]
10003ec8:	233f      	movs	r3, #63	; 0x3f
10003eca:	4013      	ands	r3, r2
10003ecc:	42b3      	cmp	r3, r6
10003ece:	d1c3      	bne.n	10003e58 <pll_init+0x60>
10003ed0:	68a3      	ldr	r3, [r4, #8]
10003ed2:	051b      	lsls	r3, r3, #20
10003ed4:	0d1b      	lsrs	r3, r3, #20
10003ed6:	4283      	cmp	r3, r0
10003ed8:	d1be      	bne.n	10003e58 <pll_init+0x60>
10003eda:	68e3      	ldr	r3, [r4, #12]
10003edc:	2f00      	cmp	r7, #0
10003ede:	d1bb      	bne.n	10003e58 <pll_init+0x60>
10003ee0:	e7d6      	b.n	10003e90 <pll_init+0x98>
10003ee2:	2280      	movs	r2, #128	; 0x80
10003ee4:	0192      	lsls	r2, r2, #6
10003ee6:	e7bc      	b.n	10003e62 <pll_init+0x6a>
10003ee8:	4002c000 	.word	0x4002c000
10003eec:	4000e000 	.word	0x4000e000
10003ef0:	4000f000 	.word	0x4000f000
10003ef4:	4000c000 	.word	0x4000c000
10003ef8:	100077d4 	.word	0x100077d4
10003efc:	100078bc 	.word	0x100078bc
10003f00:	100077f0 	.word	0x100077f0
10003f04:	1000783c 	.word	0x1000783c
10003f08:	10007888 	.word	0x10007888
10003f0c:	100078a0 	.word	0x100078a0

10003f10 <watchdog_start_tick>:
10003f10:	2380      	movs	r3, #128	; 0x80
10003f12:	009b      	lsls	r3, r3, #2
10003f14:	4303      	orrs	r3, r0
10003f16:	4a01      	ldr	r2, [pc, #4]	; (10003f1c <watchdog_start_tick+0xc>)
10003f18:	62d3      	str	r3, [r2, #44]	; 0x2c
10003f1a:	4770      	bx	lr
10003f1c:	40058000 	.word	0x40058000

10003f20 <xosc_init>:
10003f20:	4b06      	ldr	r3, [pc, #24]	; (10003f3c <xosc_init+0x1c>)
10003f22:	22aa      	movs	r2, #170	; 0xaa
10003f24:	0112      	lsls	r2, r2, #4
10003f26:	601a      	str	r2, [r3, #0]
10003f28:	222f      	movs	r2, #47	; 0x2f
10003f2a:	60da      	str	r2, [r3, #12]
10003f2c:	4b04      	ldr	r3, [pc, #16]	; (10003f40 <xosc_init+0x20>)
10003f2e:	4a05      	ldr	r2, [pc, #20]	; (10003f44 <xosc_init+0x24>)
10003f30:	601a      	str	r2, [r3, #0]
10003f32:	4b02      	ldr	r3, [pc, #8]	; (10003f3c <xosc_init+0x1c>)
10003f34:	685b      	ldr	r3, [r3, #4]
10003f36:	2b00      	cmp	r3, #0
10003f38:	dafb      	bge.n	10003f32 <xosc_init+0x12>
10003f3a:	4770      	bx	lr
10003f3c:	40024000 	.word	0x40024000
10003f40:	40026000 	.word	0x40026000
10003f44:	00fab000 	.word	0x00fab000

10003f48 <_out_null>:
10003f48:	4770      	bx	lr

10003f4a <_out_fct>:
10003f4a:	b510      	push	{r4, lr}
10003f4c:	2800      	cmp	r0, #0
10003f4e:	d002      	beq.n	10003f56 <_out_fct+0xc>
10003f50:	680b      	ldr	r3, [r1, #0]
10003f52:	6849      	ldr	r1, [r1, #4]
10003f54:	4798      	blx	r3
10003f56:	bd10      	pop	{r4, pc}

10003f58 <_atoi>:
10003f58:	0001      	movs	r1, r0
10003f5a:	2000      	movs	r0, #0
10003f5c:	e007      	b.n	10003f6e <_atoi+0x16>
10003f5e:	0083      	lsls	r3, r0, #2
10003f60:	181b      	adds	r3, r3, r0
10003f62:	005b      	lsls	r3, r3, #1
10003f64:	1c50      	adds	r0, r2, #1
10003f66:	6008      	str	r0, [r1, #0]
10003f68:	7810      	ldrb	r0, [r2, #0]
10003f6a:	18c0      	adds	r0, r0, r3
10003f6c:	3830      	subs	r0, #48	; 0x30
10003f6e:	680a      	ldr	r2, [r1, #0]
10003f70:	7813      	ldrb	r3, [r2, #0]
10003f72:	3b30      	subs	r3, #48	; 0x30
10003f74:	b2db      	uxtb	r3, r3
10003f76:	2b09      	cmp	r3, #9
10003f78:	d9f1      	bls.n	10003f5e <_atoi+0x6>
10003f7a:	4770      	bx	lr

10003f7c <_out_rev>:
10003f7c:	b5f0      	push	{r4, r5, r6, r7, lr}
10003f7e:	46de      	mov	lr, fp
10003f80:	4657      	mov	r7, sl
10003f82:	464e      	mov	r6, r9
10003f84:	4645      	mov	r5, r8
10003f86:	b5e0      	push	{r5, r6, r7, lr}
10003f88:	b083      	sub	sp, #12
10003f8a:	4693      	mov	fp, r2
10003f8c:	001f      	movs	r7, r3
10003f8e:	9b0c      	ldr	r3, [sp, #48]	; 0x30
10003f90:	469a      	mov	sl, r3
10003f92:	9c0d      	ldr	r4, [sp, #52]	; 0x34
10003f94:	9b0e      	ldr	r3, [sp, #56]	; 0x38
10003f96:	4699      	mov	r9, r3
10003f98:	9b0f      	ldr	r3, [sp, #60]	; 0x3c
10003f9a:	079b      	lsls	r3, r3, #30
10003f9c:	d003      	beq.n	10003fa6 <_out_rev+0x2a>
10003f9e:	46b8      	mov	r8, r7
10003fa0:	000f      	movs	r7, r1
10003fa2:	0006      	movs	r6, r0
10003fa4:	e022      	b.n	10003fec <_out_rev+0x70>
10003fa6:	9201      	str	r2, [sp, #4]
10003fa8:	46a3      	mov	fp, r4
10003faa:	4688      	mov	r8, r1
10003fac:	464e      	mov	r6, r9
10003fae:	46b9      	mov	r9, r7
10003fb0:	0007      	movs	r7, r0
10003fb2:	42b4      	cmp	r4, r6
10003fb4:	d207      	bcs.n	10003fc6 <_out_rev+0x4a>
10003fb6:	1c55      	adds	r5, r2, #1
10003fb8:	464b      	mov	r3, r9
10003fba:	4641      	mov	r1, r8
10003fbc:	2020      	movs	r0, #32
10003fbe:	47b8      	blx	r7
10003fc0:	3401      	adds	r4, #1
10003fc2:	002a      	movs	r2, r5
10003fc4:	e7f5      	b.n	10003fb2 <_out_rev+0x36>
10003fc6:	003d      	movs	r5, r7
10003fc8:	464f      	mov	r7, r9
10003fca:	465c      	mov	r4, fp
10003fcc:	9b01      	ldr	r3, [sp, #4]
10003fce:	469b      	mov	fp, r3
10003fd0:	46b1      	mov	r9, r6
10003fd2:	4646      	mov	r6, r8
10003fd4:	46b8      	mov	r8, r7
10003fd6:	0037      	movs	r7, r6
10003fd8:	002e      	movs	r6, r5
10003fda:	e007      	b.n	10003fec <_out_rev+0x70>
10003fdc:	3c01      	subs	r4, #1
10003fde:	1c55      	adds	r5, r2, #1
10003fe0:	4653      	mov	r3, sl
10003fe2:	5d18      	ldrb	r0, [r3, r4]
10003fe4:	4643      	mov	r3, r8
10003fe6:	0039      	movs	r1, r7
10003fe8:	47b0      	blx	r6
10003fea:	002a      	movs	r2, r5
10003fec:	2c00      	cmp	r4, #0
10003fee:	d1f5      	bne.n	10003fdc <_out_rev+0x60>
10003ff0:	0035      	movs	r5, r6
10003ff2:	003e      	movs	r6, r7
10003ff4:	4647      	mov	r7, r8
10003ff6:	9b0f      	ldr	r3, [sp, #60]	; 0x3c
10003ff8:	079b      	lsls	r3, r3, #30
10003ffa:	d407      	bmi.n	1000400c <_out_rev+0x90>
10003ffc:	0010      	movs	r0, r2
10003ffe:	b003      	add	sp, #12
10004000:	bcf0      	pop	{r4, r5, r6, r7}
10004002:	46bb      	mov	fp, r7
10004004:	46b2      	mov	sl, r6
10004006:	46a9      	mov	r9, r5
10004008:	46a0      	mov	r8, r4
1000400a:	bdf0      	pop	{r4, r5, r6, r7, pc}
1000400c:	46b0      	mov	r8, r6
1000400e:	464e      	mov	r6, r9
10004010:	46b9      	mov	r9, r7
10004012:	002f      	movs	r7, r5
10004014:	465d      	mov	r5, fp
10004016:	1b53      	subs	r3, r2, r5
10004018:	42b3      	cmp	r3, r6
1000401a:	d2ef      	bcs.n	10003ffc <_out_rev+0x80>
1000401c:	1c54      	adds	r4, r2, #1
1000401e:	464b      	mov	r3, r9
10004020:	4641      	mov	r1, r8
10004022:	2020      	movs	r0, #32
10004024:	47b8      	blx	r7
10004026:	0022      	movs	r2, r4
10004028:	e7f5      	b.n	10004016 <_out_rev+0x9a>

1000402a <_ntoa_format>:
1000402a:	b5f0      	push	{r4, r5, r6, r7, lr}
1000402c:	46ce      	mov	lr, r9
1000402e:	4647      	mov	r7, r8
10004030:	b580      	push	{r7, lr}
10004032:	b085      	sub	sp, #20
10004034:	4694      	mov	ip, r2
10004036:	4698      	mov	r8, r3
10004038:	9d0c      	ldr	r5, [sp, #48]	; 0x30
1000403a:	9c0d      	ldr	r4, [sp, #52]	; 0x34
1000403c:	ab0e      	add	r3, sp, #56	; 0x38
1000403e:	781b      	ldrb	r3, [r3, #0]
10004040:	4699      	mov	r9, r3
10004042:	9a10      	ldr	r2, [sp, #64]	; 0x40
10004044:	9b11      	ldr	r3, [sp, #68]	; 0x44
10004046:	9e12      	ldr	r6, [sp, #72]	; 0x48
10004048:	07b7      	lsls	r7, r6, #30
1000404a:	d41c      	bmi.n	10004086 <_ntoa_format+0x5c>
1000404c:	2b00      	cmp	r3, #0
1000404e:	d00c      	beq.n	1000406a <_ntoa_format+0x40>
10004050:	07f7      	lsls	r7, r6, #31
10004052:	d50a      	bpl.n	1000406a <_ntoa_format+0x40>
10004054:	464f      	mov	r7, r9
10004056:	2f00      	cmp	r7, #0
10004058:	d102      	bne.n	10004060 <_ntoa_format+0x36>
1000405a:	370c      	adds	r7, #12
1000405c:	4237      	tst	r7, r6
1000405e:	d004      	beq.n	1000406a <_ntoa_format+0x40>
10004060:	3b01      	subs	r3, #1
10004062:	e002      	b.n	1000406a <_ntoa_format+0x40>
10004064:	2730      	movs	r7, #48	; 0x30
10004066:	552f      	strb	r7, [r5, r4]
10004068:	3401      	adds	r4, #1
1000406a:	4294      	cmp	r4, r2
1000406c:	d201      	bcs.n	10004072 <_ntoa_format+0x48>
1000406e:	2c1f      	cmp	r4, #31
10004070:	d9f8      	bls.n	10004064 <_ntoa_format+0x3a>
10004072:	07f7      	lsls	r7, r6, #31
10004074:	d507      	bpl.n	10004086 <_ntoa_format+0x5c>
10004076:	429c      	cmp	r4, r3
10004078:	d205      	bcs.n	10004086 <_ntoa_format+0x5c>
1000407a:	2c1f      	cmp	r4, #31
1000407c:	d803      	bhi.n	10004086 <_ntoa_format+0x5c>
1000407e:	2730      	movs	r7, #48	; 0x30
10004080:	552f      	strb	r7, [r5, r4]
10004082:	3401      	adds	r4, #1
10004084:	e7f5      	b.n	10004072 <_ntoa_format+0x48>
10004086:	06f7      	lsls	r7, r6, #27
10004088:	d515      	bpl.n	100040b6 <_ntoa_format+0x8c>
1000408a:	0577      	lsls	r7, r6, #21
1000408c:	d405      	bmi.n	1000409a <_ntoa_format+0x70>
1000408e:	2c00      	cmp	r4, #0
10004090:	d003      	beq.n	1000409a <_ntoa_format+0x70>
10004092:	4294      	cmp	r4, r2
10004094:	d024      	beq.n	100040e0 <_ntoa_format+0xb6>
10004096:	429c      	cmp	r4, r3
10004098:	d022      	beq.n	100040e0 <_ntoa_format+0xb6>
1000409a:	9a0f      	ldr	r2, [sp, #60]	; 0x3c
1000409c:	2a10      	cmp	r2, #16
1000409e:	d02b      	beq.n	100040f8 <_ntoa_format+0xce>
100040a0:	9a0f      	ldr	r2, [sp, #60]	; 0x3c
100040a2:	2a10      	cmp	r2, #16
100040a4:	d030      	beq.n	10004108 <_ntoa_format+0xde>
100040a6:	9a0f      	ldr	r2, [sp, #60]	; 0x3c
100040a8:	2a02      	cmp	r2, #2
100040aa:	d035      	beq.n	10004118 <_ntoa_format+0xee>
100040ac:	2c1f      	cmp	r4, #31
100040ae:	d802      	bhi.n	100040b6 <_ntoa_format+0x8c>
100040b0:	2230      	movs	r2, #48	; 0x30
100040b2:	552a      	strb	r2, [r5, r4]
100040b4:	3401      	adds	r4, #1
100040b6:	2c1f      	cmp	r4, #31
100040b8:	d805      	bhi.n	100040c6 <_ntoa_format+0x9c>
100040ba:	464a      	mov	r2, r9
100040bc:	2a00      	cmp	r2, #0
100040be:	d031      	beq.n	10004124 <_ntoa_format+0xfa>
100040c0:	222d      	movs	r2, #45	; 0x2d
100040c2:	552a      	strb	r2, [r5, r4]
100040c4:	3401      	adds	r4, #1
100040c6:	9603      	str	r6, [sp, #12]
100040c8:	9302      	str	r3, [sp, #8]
100040ca:	9401      	str	r4, [sp, #4]
100040cc:	9500      	str	r5, [sp, #0]
100040ce:	4643      	mov	r3, r8
100040d0:	4662      	mov	r2, ip
100040d2:	f7ff ff53 	bl	10003f7c <_out_rev>
100040d6:	b005      	add	sp, #20
100040d8:	bcc0      	pop	{r6, r7}
100040da:	46b9      	mov	r9, r7
100040dc:	46b0      	mov	r8, r6
100040de:	bdf0      	pop	{r4, r5, r6, r7, pc}
100040e0:	1e62      	subs	r2, r4, #1
100040e2:	2c01      	cmp	r4, #1
100040e4:	d006      	beq.n	100040f4 <_ntoa_format+0xca>
100040e6:	9f0f      	ldr	r7, [sp, #60]	; 0x3c
100040e8:	2f10      	cmp	r7, #16
100040ea:	d001      	beq.n	100040f0 <_ntoa_format+0xc6>
100040ec:	0014      	movs	r4, r2
100040ee:	e7d4      	b.n	1000409a <_ntoa_format+0x70>
100040f0:	3c02      	subs	r4, #2
100040f2:	e7d2      	b.n	1000409a <_ntoa_format+0x70>
100040f4:	0014      	movs	r4, r2
100040f6:	e7d0      	b.n	1000409a <_ntoa_format+0x70>
100040f8:	06b2      	lsls	r2, r6, #26
100040fa:	d4d1      	bmi.n	100040a0 <_ntoa_format+0x76>
100040fc:	2c1f      	cmp	r4, #31
100040fe:	d8cf      	bhi.n	100040a0 <_ntoa_format+0x76>
10004100:	2278      	movs	r2, #120	; 0x78
10004102:	552a      	strb	r2, [r5, r4]
10004104:	3401      	adds	r4, #1
10004106:	e7d1      	b.n	100040ac <_ntoa_format+0x82>
10004108:	06b2      	lsls	r2, r6, #26
1000410a:	d5cc      	bpl.n	100040a6 <_ntoa_format+0x7c>
1000410c:	2c1f      	cmp	r4, #31
1000410e:	d8ca      	bhi.n	100040a6 <_ntoa_format+0x7c>
10004110:	2258      	movs	r2, #88	; 0x58
10004112:	552a      	strb	r2, [r5, r4]
10004114:	3401      	adds	r4, #1
10004116:	e7c9      	b.n	100040ac <_ntoa_format+0x82>
10004118:	2c1f      	cmp	r4, #31
1000411a:	d8c7      	bhi.n	100040ac <_ntoa_format+0x82>
1000411c:	3260      	adds	r2, #96	; 0x60
1000411e:	552a      	strb	r2, [r5, r4]
10004120:	3401      	adds	r4, #1
10004122:	e7c3      	b.n	100040ac <_ntoa_format+0x82>
10004124:	0772      	lsls	r2, r6, #29
10004126:	d503      	bpl.n	10004130 <_ntoa_format+0x106>
10004128:	222b      	movs	r2, #43	; 0x2b
1000412a:	552a      	strb	r2, [r5, r4]
1000412c:	3401      	adds	r4, #1
1000412e:	e7ca      	b.n	100040c6 <_ntoa_format+0x9c>
10004130:	0732      	lsls	r2, r6, #28
10004132:	d5c8      	bpl.n	100040c6 <_ntoa_format+0x9c>
10004134:	2220      	movs	r2, #32
10004136:	552a      	strb	r2, [r5, r4]
10004138:	3401      	adds	r4, #1
1000413a:	e7c4      	b.n	100040c6 <_ntoa_format+0x9c>

1000413c <_ntoa_long>:
1000413c:	b5f0      	push	{r4, r5, r6, r7, lr}
1000413e:	46de      	mov	lr, fp
10004140:	4657      	mov	r7, sl
10004142:	464e      	mov	r6, r9
10004144:	4645      	mov	r5, r8
10004146:	b5e0      	push	{r5, r6, r7, lr}
10004148:	b093      	sub	sp, #76	; 0x4c
1000414a:	4681      	mov	r9, r0
1000414c:	468a      	mov	sl, r1
1000414e:	9208      	str	r2, [sp, #32]
10004150:	9309      	str	r3, [sp, #36]	; 0x24
10004152:	ab1c      	add	r3, sp, #112	; 0x70
10004154:	cb10      	ldmia	r3!, {r4}
10004156:	781b      	ldrb	r3, [r3, #0]
10004158:	469b      	mov	fp, r3
1000415a:	9d1e      	ldr	r5, [sp, #120]	; 0x78
1000415c:	9b21      	ldr	r3, [sp, #132]	; 0x84
1000415e:	4698      	mov	r8, r3
10004160:	2c00      	cmp	r4, #0
10004162:	d103      	bne.n	1000416c <_ntoa_long+0x30>
10004164:	2310      	movs	r3, #16
10004166:	4642      	mov	r2, r8
10004168:	439a      	bics	r2, r3
1000416a:	4690      	mov	r8, r2
1000416c:	2380      	movs	r3, #128	; 0x80
1000416e:	00db      	lsls	r3, r3, #3
10004170:	4646      	mov	r6, r8
10004172:	401e      	ands	r6, r3
10004174:	4642      	mov	r2, r8
10004176:	421a      	tst	r2, r3
10004178:	d012      	beq.n	100041a0 <_ntoa_long+0x64>
1000417a:	2c00      	cmp	r4, #0
1000417c:	d022      	beq.n	100041c4 <_ntoa_long+0x88>
1000417e:	2600      	movs	r6, #0
10004180:	e00e      	b.n	100041a0 <_ntoa_long+0x64>
10004182:	3330      	adds	r3, #48	; 0x30
10004184:	b2d9      	uxtb	r1, r3
10004186:	1c77      	adds	r7, r6, #1
10004188:	ab0a      	add	r3, sp, #40	; 0x28
1000418a:	5599      	strb	r1, [r3, r6]
1000418c:	0029      	movs	r1, r5
1000418e:	0020      	movs	r0, r4
10004190:	f000 ffd6 	bl	10005140 <__wrap___aeabi_uidiv>
10004194:	42ac      	cmp	r4, r5
10004196:	d316      	bcc.n	100041c6 <_ntoa_long+0x8a>
10004198:	2f1f      	cmp	r7, #31
1000419a:	d814      	bhi.n	100041c6 <_ntoa_long+0x8a>
1000419c:	003e      	movs	r6, r7
1000419e:	0004      	movs	r4, r0
100041a0:	0029      	movs	r1, r5
100041a2:	0020      	movs	r0, r4
100041a4:	f000 ffcc 	bl	10005140 <__wrap___aeabi_uidiv>
100041a8:	b2cb      	uxtb	r3, r1
100041aa:	2b09      	cmp	r3, #9
100041ac:	d9e9      	bls.n	10004182 <_ntoa_long+0x46>
100041ae:	4642      	mov	r2, r8
100041b0:	0692      	lsls	r2, r2, #26
100041b2:	d505      	bpl.n	100041c0 <_ntoa_long+0x84>
100041b4:	2141      	movs	r1, #65	; 0x41
100041b6:	18c9      	adds	r1, r1, r3
100041b8:	b2c9      	uxtb	r1, r1
100041ba:	390a      	subs	r1, #10
100041bc:	b2c9      	uxtb	r1, r1
100041be:	e7e2      	b.n	10004186 <_ntoa_long+0x4a>
100041c0:	2161      	movs	r1, #97	; 0x61
100041c2:	e7f8      	b.n	100041b6 <_ntoa_long+0x7a>
100041c4:	0027      	movs	r7, r4
100041c6:	4643      	mov	r3, r8
100041c8:	9306      	str	r3, [sp, #24]
100041ca:	9b20      	ldr	r3, [sp, #128]	; 0x80
100041cc:	9305      	str	r3, [sp, #20]
100041ce:	9b1f      	ldr	r3, [sp, #124]	; 0x7c
100041d0:	9304      	str	r3, [sp, #16]
100041d2:	9503      	str	r5, [sp, #12]
100041d4:	465b      	mov	r3, fp
100041d6:	9302      	str	r3, [sp, #8]
100041d8:	9701      	str	r7, [sp, #4]
100041da:	ab0a      	add	r3, sp, #40	; 0x28
100041dc:	9300      	str	r3, [sp, #0]
100041de:	9b09      	ldr	r3, [sp, #36]	; 0x24
100041e0:	9a08      	ldr	r2, [sp, #32]
100041e2:	4651      	mov	r1, sl
100041e4:	4648      	mov	r0, r9
100041e6:	f7ff ff20 	bl	1000402a <_ntoa_format>
100041ea:	b013      	add	sp, #76	; 0x4c
100041ec:	bcf0      	pop	{r4, r5, r6, r7}
100041ee:	46bb      	mov	fp, r7
100041f0:	46b2      	mov	sl, r6
100041f2:	46a9      	mov	r9, r5
100041f4:	46a0      	mov	r8, r4
100041f6:	bdf0      	pop	{r4, r5, r6, r7, pc}

100041f8 <_ntoa_long_long>:
100041f8:	b5f0      	push	{r4, r5, r6, r7, lr}
100041fa:	46de      	mov	lr, fp
100041fc:	4657      	mov	r7, sl
100041fe:	464e      	mov	r6, r9
10004200:	4645      	mov	r5, r8
10004202:	b5e0      	push	{r5, r6, r7, lr}
10004204:	b095      	sub	sp, #84	; 0x54
10004206:	9008      	str	r0, [sp, #32]
10004208:	9109      	str	r1, [sp, #36]	; 0x24
1000420a:	920a      	str	r2, [sp, #40]	; 0x28
1000420c:	930b      	str	r3, [sp, #44]	; 0x2c
1000420e:	9e1e      	ldr	r6, [sp, #120]	; 0x78
10004210:	9c1f      	ldr	r4, [sp, #124]	; 0x7c
10004212:	ab20      	add	r3, sp, #128	; 0x80
10004214:	781b      	ldrb	r3, [r3, #0]
10004216:	469b      	mov	fp, r3
10004218:	9b22      	ldr	r3, [sp, #136]	; 0x88
1000421a:	4699      	mov	r9, r3
1000421c:	9d23      	ldr	r5, [sp, #140]	; 0x8c
1000421e:	9b26      	ldr	r3, [sp, #152]	; 0x98
10004220:	469a      	mov	sl, r3
10004222:	0033      	movs	r3, r6
10004224:	4323      	orrs	r3, r4
10004226:	d103      	bne.n	10004230 <_ntoa_long_long+0x38>
10004228:	3310      	adds	r3, #16
1000422a:	4652      	mov	r2, sl
1000422c:	439a      	bics	r2, r3
1000422e:	4692      	mov	sl, r2
10004230:	2380      	movs	r3, #128	; 0x80
10004232:	00db      	lsls	r3, r3, #3
10004234:	4657      	mov	r7, sl
10004236:	401f      	ands	r7, r3
10004238:	4652      	mov	r2, sl
1000423a:	421a      	tst	r2, r3
1000423c:	d019      	beq.n	10004272 <_ntoa_long_long+0x7a>
1000423e:	0033      	movs	r3, r6
10004240:	4323      	orrs	r3, r4
10004242:	d02d      	beq.n	100042a0 <_ntoa_long_long+0xa8>
10004244:	2700      	movs	r7, #0
10004246:	e014      	b.n	10004272 <_ntoa_long_long+0x7a>
10004248:	3330      	adds	r3, #48	; 0x30
1000424a:	b2da      	uxtb	r2, r3
1000424c:	1c7b      	adds	r3, r7, #1
1000424e:	4698      	mov	r8, r3
10004250:	ab0c      	add	r3, sp, #48	; 0x30
10004252:	55da      	strb	r2, [r3, r7]
10004254:	464a      	mov	r2, r9
10004256:	002b      	movs	r3, r5
10004258:	0030      	movs	r0, r6
1000425a:	0021      	movs	r1, r4
1000425c:	f000 ffb2 	bl	100051c4 <__wrap___aeabi_uldivmod>
10004260:	42a5      	cmp	r5, r4
10004262:	d81f      	bhi.n	100042a4 <_ntoa_long_long+0xac>
10004264:	d019      	beq.n	1000429a <_ntoa_long_long+0xa2>
10004266:	4643      	mov	r3, r8
10004268:	2b1f      	cmp	r3, #31
1000426a:	d81b      	bhi.n	100042a4 <_ntoa_long_long+0xac>
1000426c:	4647      	mov	r7, r8
1000426e:	0006      	movs	r6, r0
10004270:	000c      	movs	r4, r1
10004272:	464a      	mov	r2, r9
10004274:	002b      	movs	r3, r5
10004276:	0030      	movs	r0, r6
10004278:	0021      	movs	r1, r4
1000427a:	f000 ffa3 	bl	100051c4 <__wrap___aeabi_uldivmod>
1000427e:	b2d3      	uxtb	r3, r2
10004280:	2b09      	cmp	r3, #9
10004282:	d9e1      	bls.n	10004248 <_ntoa_long_long+0x50>
10004284:	4652      	mov	r2, sl
10004286:	0692      	lsls	r2, r2, #26
10004288:	d505      	bpl.n	10004296 <_ntoa_long_long+0x9e>
1000428a:	2241      	movs	r2, #65	; 0x41
1000428c:	18d2      	adds	r2, r2, r3
1000428e:	b2d2      	uxtb	r2, r2
10004290:	3a0a      	subs	r2, #10
10004292:	b2d2      	uxtb	r2, r2
10004294:	e7da      	b.n	1000424c <_ntoa_long_long+0x54>
10004296:	2261      	movs	r2, #97	; 0x61
10004298:	e7f8      	b.n	1000428c <_ntoa_long_long+0x94>
1000429a:	45b1      	cmp	r9, r6
1000429c:	d9e3      	bls.n	10004266 <_ntoa_long_long+0x6e>
1000429e:	e001      	b.n	100042a4 <_ntoa_long_long+0xac>
100042a0:	2300      	movs	r3, #0
100042a2:	4698      	mov	r8, r3
100042a4:	4653      	mov	r3, sl
100042a6:	9306      	str	r3, [sp, #24]
100042a8:	9b25      	ldr	r3, [sp, #148]	; 0x94
100042aa:	9305      	str	r3, [sp, #20]
100042ac:	9b24      	ldr	r3, [sp, #144]	; 0x90
100042ae:	9304      	str	r3, [sp, #16]
100042b0:	464b      	mov	r3, r9
100042b2:	9303      	str	r3, [sp, #12]
100042b4:	465b      	mov	r3, fp
100042b6:	9302      	str	r3, [sp, #8]
100042b8:	4643      	mov	r3, r8
100042ba:	9301      	str	r3, [sp, #4]
100042bc:	ab0c      	add	r3, sp, #48	; 0x30
100042be:	9300      	str	r3, [sp, #0]
100042c0:	9b0b      	ldr	r3, [sp, #44]	; 0x2c
100042c2:	9a0a      	ldr	r2, [sp, #40]	; 0x28
100042c4:	9909      	ldr	r1, [sp, #36]	; 0x24
100042c6:	9808      	ldr	r0, [sp, #32]
100042c8:	f7ff feaf 	bl	1000402a <_ntoa_format>
100042cc:	b015      	add	sp, #84	; 0x54
100042ce:	bcf0      	pop	{r4, r5, r6, r7}
100042d0:	46bb      	mov	fp, r7
100042d2:	46b2      	mov	sl, r6
100042d4:	46a9      	mov	r9, r5
100042d6:	46a0      	mov	r8, r4
100042d8:	bdf0      	pop	{r4, r5, r6, r7, pc}
	...

100042dc <_etoa>:
100042dc:	b5f0      	push	{r4, r5, r6, r7, lr}
100042de:	46de      	mov	lr, fp
100042e0:	4657      	mov	r7, sl
100042e2:	464e      	mov	r6, r9
100042e4:	4645      	mov	r5, r8
100042e6:	b5e0      	push	{r5, r6, r7, lr}
100042e8:	b091      	sub	sp, #68	; 0x44
100042ea:	4683      	mov	fp, r0
100042ec:	468a      	mov	sl, r1
100042ee:	920c      	str	r2, [sp, #48]	; 0x30
100042f0:	4698      	mov	r8, r3
100042f2:	9c1a      	ldr	r4, [sp, #104]	; 0x68
100042f4:	9408      	str	r4, [sp, #32]
100042f6:	9d1b      	ldr	r5, [sp, #108]	; 0x6c
100042f8:	9509      	str	r5, [sp, #36]	; 0x24
100042fa:	0022      	movs	r2, r4
100042fc:	002b      	movs	r3, r5
100042fe:	0020      	movs	r0, r4
10004300:	0029      	movs	r1, r5
10004302:	f001 f9ee 	bl	100056e2 <__wrap___aeabi_dcmpun>
10004306:	2800      	cmp	r0, #0
10004308:	d000      	beq.n	1000430c <_etoa+0x30>
1000430a:	e0e5      	b.n	100044d8 <_etoa+0x1fc>
1000430c:	2201      	movs	r2, #1
1000430e:	4252      	negs	r2, r2
10004310:	4bd7      	ldr	r3, [pc, #860]	; (10004670 <_etoa+0x394>)
10004312:	0020      	movs	r0, r4
10004314:	0029      	movs	r1, r5
10004316:	f001 f9df 	bl	100056d8 <__wrap___aeabi_dcmpgt>
1000431a:	2800      	cmp	r0, #0
1000431c:	d000      	beq.n	10004320 <_etoa+0x44>
1000431e:	e0db      	b.n	100044d8 <_etoa+0x1fc>
10004320:	2201      	movs	r2, #1
10004322:	4252      	negs	r2, r2
10004324:	4bd3      	ldr	r3, [pc, #844]	; (10004674 <_etoa+0x398>)
10004326:	0020      	movs	r0, r4
10004328:	0029      	movs	r1, r5
1000432a:	f001 f9bf 	bl	100056ac <__wrap___aeabi_dcmplt>
1000432e:	2800      	cmp	r0, #0
10004330:	d000      	beq.n	10004334 <_etoa+0x58>
10004332:	e0d1      	b.n	100044d8 <_etoa+0x1fc>
10004334:	2200      	movs	r2, #0
10004336:	2300      	movs	r3, #0
10004338:	9d08      	ldr	r5, [sp, #32]
1000433a:	0028      	movs	r0, r5
1000433c:	9e09      	ldr	r6, [sp, #36]	; 0x24
1000433e:	0031      	movs	r1, r6
10004340:	f001 f9b4 	bl	100056ac <__wrap___aeabi_dcmplt>
10004344:	2800      	cmp	r0, #0
10004346:	d000      	beq.n	1000434a <_etoa+0x6e>
10004348:	e0dd      	b.n	10004506 <_etoa+0x22a>
1000434a:	9808      	ldr	r0, [sp, #32]
1000434c:	9909      	ldr	r1, [sp, #36]	; 0x24
1000434e:	9006      	str	r0, [sp, #24]
10004350:	9107      	str	r1, [sp, #28]
10004352:	2380      	movs	r3, #128	; 0x80
10004354:	00db      	lsls	r3, r3, #3
10004356:	9a1e      	ldr	r2, [sp, #120]	; 0x78
10004358:	401a      	ands	r2, r3
1000435a:	920d      	str	r2, [sp, #52]	; 0x34
1000435c:	9a1e      	ldr	r2, [sp, #120]	; 0x78
1000435e:	421a      	tst	r2, r3
10004360:	d101      	bne.n	10004366 <_etoa+0x8a>
10004362:	2306      	movs	r3, #6
10004364:	931c      	str	r3, [sp, #112]	; 0x70
10004366:	9806      	ldr	r0, [sp, #24]
10004368:	9907      	ldr	r1, [sp, #28]
1000436a:	0004      	movs	r4, r0
1000436c:	000d      	movs	r5, r1
1000436e:	000a      	movs	r2, r1
10004370:	0006      	movs	r6, r0
10004372:	4302      	orrs	r2, r0
10004374:	d100      	bne.n	10004378 <_etoa+0x9c>
10004376:	e0d1      	b.n	1000451c <_etoa+0x240>
10004378:	0d08      	lsrs	r0, r1, #20
1000437a:	0540      	lsls	r0, r0, #21
1000437c:	0d40      	lsrs	r0, r0, #21
1000437e:	4cbe      	ldr	r4, [pc, #760]	; (10004678 <_etoa+0x39c>)
10004380:	46a4      	mov	ip, r4
10004382:	4460      	add	r0, ip
10004384:	030a      	lsls	r2, r1, #12
10004386:	0b12      	lsrs	r2, r2, #12
10004388:	4bbc      	ldr	r3, [pc, #752]	; (1000467c <_etoa+0x3a0>)
1000438a:	4313      	orrs	r3, r2
1000438c:	001f      	movs	r7, r3
1000438e:	f001 f9bb 	bl	10005708 <__wrap___aeabi_i2d>
10004392:	4abb      	ldr	r2, [pc, #748]	; (10004680 <_etoa+0x3a4>)
10004394:	4bbb      	ldr	r3, [pc, #748]	; (10004684 <_etoa+0x3a8>)
10004396:	f001 f946 	bl	10005626 <__wrap___aeabi_dmul>
1000439a:	4abb      	ldr	r2, [pc, #748]	; (10004688 <_etoa+0x3ac>)
1000439c:	4bbb      	ldr	r3, [pc, #748]	; (1000468c <_etoa+0x3b0>)
1000439e:	f001 f91b 	bl	100055d8 <__wrap___aeabi_dadd>
100043a2:	0004      	movs	r4, r0
100043a4:	000d      	movs	r5, r1
100043a6:	2200      	movs	r2, #0
100043a8:	4bb9      	ldr	r3, [pc, #740]	; (10004690 <_etoa+0x3b4>)
100043aa:	0030      	movs	r0, r6
100043ac:	0039      	movs	r1, r7
100043ae:	f001 f90a 	bl	100055c6 <__wrap___aeabi_dsub>
100043b2:	4ab8      	ldr	r2, [pc, #736]	; (10004694 <_etoa+0x3b8>)
100043b4:	4bb8      	ldr	r3, [pc, #736]	; (10004698 <_etoa+0x3bc>)
100043b6:	f001 f936 	bl	10005626 <__wrap___aeabi_dmul>
100043ba:	0002      	movs	r2, r0
100043bc:	000b      	movs	r3, r1
100043be:	0020      	movs	r0, r4
100043c0:	0029      	movs	r1, r5
100043c2:	f001 f909 	bl	100055d8 <__wrap___aeabi_dadd>
100043c6:	f001 f9b7 	bl	10005738 <__wrap___aeabi_d2iz>
100043ca:	4681      	mov	r9, r0
100043cc:	f001 f99c 	bl	10005708 <__wrap___aeabi_i2d>
100043d0:	0004      	movs	r4, r0
100043d2:	000d      	movs	r5, r1
100043d4:	4ab1      	ldr	r2, [pc, #708]	; (1000469c <_etoa+0x3c0>)
100043d6:	4bb2      	ldr	r3, [pc, #712]	; (100046a0 <_etoa+0x3c4>)
100043d8:	f001 f925 	bl	10005626 <__wrap___aeabi_dmul>
100043dc:	2200      	movs	r2, #0
100043de:	4bb1      	ldr	r3, [pc, #708]	; (100046a4 <_etoa+0x3c8>)
100043e0:	f001 f8fa 	bl	100055d8 <__wrap___aeabi_dadd>
100043e4:	f001 f9a8 	bl	10005738 <__wrap___aeabi_d2iz>
100043e8:	0006      	movs	r6, r0
100043ea:	4aaf      	ldr	r2, [pc, #700]	; (100046a8 <_etoa+0x3cc>)
100043ec:	4baf      	ldr	r3, [pc, #700]	; (100046ac <_etoa+0x3d0>)
100043ee:	0020      	movs	r0, r4
100043f0:	0029      	movs	r1, r5
100043f2:	f001 f918 	bl	10005626 <__wrap___aeabi_dmul>
100043f6:	0004      	movs	r4, r0
100043f8:	000d      	movs	r5, r1
100043fa:	0030      	movs	r0, r6
100043fc:	f001 f984 	bl	10005708 <__wrap___aeabi_i2d>
10004400:	4aab      	ldr	r2, [pc, #684]	; (100046b0 <_etoa+0x3d4>)
10004402:	4bac      	ldr	r3, [pc, #688]	; (100046b4 <_etoa+0x3d8>)
10004404:	f001 f90f 	bl	10005626 <__wrap___aeabi_dmul>
10004408:	0002      	movs	r2, r0
1000440a:	000b      	movs	r3, r1
1000440c:	0020      	movs	r0, r4
1000440e:	0029      	movs	r1, r5
10004410:	f001 f8d9 	bl	100055c6 <__wrap___aeabi_dsub>
10004414:	0004      	movs	r4, r0
10004416:	000d      	movs	r5, r1
10004418:	0002      	movs	r2, r0
1000441a:	000b      	movs	r3, r1
1000441c:	f001 f903 	bl	10005626 <__wrap___aeabi_dmul>
10004420:	900a      	str	r0, [sp, #40]	; 0x28
10004422:	910b      	str	r1, [sp, #44]	; 0x2c
10004424:	4ba4      	ldr	r3, [pc, #656]	; (100046b8 <_etoa+0x3dc>)
10004426:	18f3      	adds	r3, r6, r3
10004428:	2600      	movs	r6, #0
1000442a:	051f      	lsls	r7, r3, #20
1000442c:	0022      	movs	r2, r4
1000442e:	002b      	movs	r3, r5
10004430:	0020      	movs	r0, r4
10004432:	0029      	movs	r1, r5
10004434:	f001 f8d0 	bl	100055d8 <__wrap___aeabi_dadd>
10004438:	900e      	str	r0, [sp, #56]	; 0x38
1000443a:	910f      	str	r1, [sp, #60]	; 0x3c
1000443c:	0022      	movs	r2, r4
1000443e:	002b      	movs	r3, r5
10004440:	2000      	movs	r0, #0
10004442:	2180      	movs	r1, #128	; 0x80
10004444:	05c9      	lsls	r1, r1, #23
10004446:	f001 f8be 	bl	100055c6 <__wrap___aeabi_dsub>
1000444a:	0004      	movs	r4, r0
1000444c:	000d      	movs	r5, r1
1000444e:	2200      	movs	r2, #0
10004450:	4b9a      	ldr	r3, [pc, #616]	; (100046bc <_etoa+0x3e0>)
10004452:	980a      	ldr	r0, [sp, #40]	; 0x28
10004454:	990b      	ldr	r1, [sp, #44]	; 0x2c
10004456:	f001 f8c8 	bl	100055ea <__wrap___aeabi_ddiv>
1000445a:	2200      	movs	r2, #0
1000445c:	4b98      	ldr	r3, [pc, #608]	; (100046c0 <_etoa+0x3e4>)
1000445e:	f001 f8bb 	bl	100055d8 <__wrap___aeabi_dadd>
10004462:	0002      	movs	r2, r0
10004464:	000b      	movs	r3, r1
10004466:	980a      	ldr	r0, [sp, #40]	; 0x28
10004468:	990b      	ldr	r1, [sp, #44]	; 0x2c
1000446a:	f001 f8be 	bl	100055ea <__wrap___aeabi_ddiv>
1000446e:	2200      	movs	r2, #0
10004470:	4b94      	ldr	r3, [pc, #592]	; (100046c4 <_etoa+0x3e8>)
10004472:	f001 f8b1 	bl	100055d8 <__wrap___aeabi_dadd>
10004476:	0002      	movs	r2, r0
10004478:	000b      	movs	r3, r1
1000447a:	980a      	ldr	r0, [sp, #40]	; 0x28
1000447c:	990b      	ldr	r1, [sp, #44]	; 0x2c
1000447e:	f001 f8b4 	bl	100055ea <__wrap___aeabi_ddiv>
10004482:	0002      	movs	r2, r0
10004484:	000b      	movs	r3, r1
10004486:	0020      	movs	r0, r4
10004488:	0029      	movs	r1, r5
1000448a:	f001 f8a5 	bl	100055d8 <__wrap___aeabi_dadd>
1000448e:	0002      	movs	r2, r0
10004490:	000b      	movs	r3, r1
10004492:	980e      	ldr	r0, [sp, #56]	; 0x38
10004494:	990f      	ldr	r1, [sp, #60]	; 0x3c
10004496:	f001 f8a8 	bl	100055ea <__wrap___aeabi_ddiv>
1000449a:	2200      	movs	r2, #0
1000449c:	4b77      	ldr	r3, [pc, #476]	; (1000467c <_etoa+0x3a0>)
1000449e:	f001 f89b 	bl	100055d8 <__wrap___aeabi_dadd>
100044a2:	0032      	movs	r2, r6
100044a4:	003b      	movs	r3, r7
100044a6:	f001 f8be 	bl	10005626 <__wrap___aeabi_dmul>
100044aa:	0006      	movs	r6, r0
100044ac:	000f      	movs	r7, r1
100044ae:	0004      	movs	r4, r0
100044b0:	000d      	movs	r5, r1
100044b2:	9a06      	ldr	r2, [sp, #24]
100044b4:	9b07      	ldr	r3, [sp, #28]
100044b6:	f001 f90f 	bl	100056d8 <__wrap___aeabi_dcmpgt>
100044ba:	2800      	cmp	r0, #0
100044bc:	d030      	beq.n	10004520 <_etoa+0x244>
100044be:	2301      	movs	r3, #1
100044c0:	425b      	negs	r3, r3
100044c2:	469c      	mov	ip, r3
100044c4:	44e1      	add	r9, ip
100044c6:	2200      	movs	r2, #0
100044c8:	4b7d      	ldr	r3, [pc, #500]	; (100046c0 <_etoa+0x3e4>)
100044ca:	0030      	movs	r0, r6
100044cc:	0039      	movs	r1, r7
100044ce:	f001 f88c 	bl	100055ea <__wrap___aeabi_ddiv>
100044d2:	0004      	movs	r4, r0
100044d4:	000d      	movs	r5, r1
100044d6:	e023      	b.n	10004520 <_etoa+0x244>
100044d8:	9b1e      	ldr	r3, [sp, #120]	; 0x78
100044da:	9304      	str	r3, [sp, #16]
100044dc:	9b1d      	ldr	r3, [sp, #116]	; 0x74
100044de:	9303      	str	r3, [sp, #12]
100044e0:	9b1c      	ldr	r3, [sp, #112]	; 0x70
100044e2:	9302      	str	r3, [sp, #8]
100044e4:	9a08      	ldr	r2, [sp, #32]
100044e6:	9b09      	ldr	r3, [sp, #36]	; 0x24
100044e8:	9200      	str	r2, [sp, #0]
100044ea:	9301      	str	r3, [sp, #4]
100044ec:	4643      	mov	r3, r8
100044ee:	9a0c      	ldr	r2, [sp, #48]	; 0x30
100044f0:	4651      	mov	r1, sl
100044f2:	4658      	mov	r0, fp
100044f4:	f000 f8fc 	bl	100046f0 <_ftoa>
100044f8:	b011      	add	sp, #68	; 0x44
100044fa:	bcf0      	pop	{r4, r5, r6, r7}
100044fc:	46bb      	mov	fp, r7
100044fe:	46b2      	mov	sl, r6
10004500:	46a9      	mov	r9, r5
10004502:	46a0      	mov	r8, r4
10004504:	bdf0      	pop	{r4, r5, r6, r7, pc}
10004506:	2300      	movs	r3, #0
10004508:	2400      	movs	r4, #0
1000450a:	9306      	str	r3, [sp, #24]
1000450c:	9407      	str	r4, [sp, #28]
1000450e:	9506      	str	r5, [sp, #24]
10004510:	2380      	movs	r3, #128	; 0x80
10004512:	061b      	lsls	r3, r3, #24
10004514:	469c      	mov	ip, r3
10004516:	4466      	add	r6, ip
10004518:	9607      	str	r6, [sp, #28]
1000451a:	e71a      	b.n	10004352 <_etoa+0x76>
1000451c:	2300      	movs	r3, #0
1000451e:	4699      	mov	r9, r3
10004520:	464b      	mov	r3, r9
10004522:	3363      	adds	r3, #99	; 0x63
10004524:	2bc6      	cmp	r3, #198	; 0xc6
10004526:	d81e      	bhi.n	10004566 <_etoa+0x28a>
10004528:	2604      	movs	r6, #4
1000452a:	9b1e      	ldr	r3, [sp, #120]	; 0x78
1000452c:	051b      	lsls	r3, r3, #20
1000452e:	d526      	bpl.n	1000457e <_etoa+0x2a2>
10004530:	002b      	movs	r3, r5
10004532:	4323      	orrs	r3, r4
10004534:	d00f      	beq.n	10004556 <_etoa+0x27a>
10004536:	4a64      	ldr	r2, [pc, #400]	; (100046c8 <_etoa+0x3ec>)
10004538:	4b64      	ldr	r3, [pc, #400]	; (100046cc <_etoa+0x3f0>)
1000453a:	9806      	ldr	r0, [sp, #24]
1000453c:	9907      	ldr	r1, [sp, #28]
1000453e:	f001 f8c3 	bl	100056c8 <__wrap___aeabi_dcmpge>
10004542:	2800      	cmp	r0, #0
10004544:	d079      	beq.n	1000463a <_etoa+0x35e>
10004546:	2200      	movs	r2, #0
10004548:	4b61      	ldr	r3, [pc, #388]	; (100046d0 <_etoa+0x3f4>)
1000454a:	9806      	ldr	r0, [sp, #24]
1000454c:	9907      	ldr	r1, [sp, #28]
1000454e:	f001 f8ad 	bl	100056ac <__wrap___aeabi_dcmplt>
10004552:	2800      	cmp	r0, #0
10004554:	d071      	beq.n	1000463a <_etoa+0x35e>
10004556:	9b1c      	ldr	r3, [sp, #112]	; 0x70
10004558:	454b      	cmp	r3, r9
1000455a:	dd06      	ble.n	1000456a <_etoa+0x28e>
1000455c:	464a      	mov	r2, r9
1000455e:	1a98      	subs	r0, r3, r2
10004560:	1e43      	subs	r3, r0, #1
10004562:	931c      	str	r3, [sp, #112]	; 0x70
10004564:	e003      	b.n	1000456e <_etoa+0x292>
10004566:	2605      	movs	r6, #5
10004568:	e7df      	b.n	1000452a <_etoa+0x24e>
1000456a:	2300      	movs	r3, #0
1000456c:	931c      	str	r3, [sp, #112]	; 0x70
1000456e:	2380      	movs	r3, #128	; 0x80
10004570:	00db      	lsls	r3, r3, #3
10004572:	9a1e      	ldr	r2, [sp, #120]	; 0x78
10004574:	431a      	orrs	r2, r3
10004576:	921e      	str	r2, [sp, #120]	; 0x78
10004578:	2600      	movs	r6, #0
1000457a:	2300      	movs	r3, #0
1000457c:	4699      	mov	r9, r3
1000457e:	9b1d      	ldr	r3, [sp, #116]	; 0x74
10004580:	429e      	cmp	r6, r3
10004582:	d264      	bcs.n	1000464e <_etoa+0x372>
10004584:	1b9f      	subs	r7, r3, r6
10004586:	2302      	movs	r3, #2
10004588:	9a1e      	ldr	r2, [sp, #120]	; 0x78
1000458a:	401a      	ands	r2, r3
1000458c:	920a      	str	r2, [sp, #40]	; 0x28
1000458e:	9a1e      	ldr	r2, [sp, #120]	; 0x78
10004590:	4213      	tst	r3, r2
10004592:	d002      	beq.n	1000459a <_etoa+0x2be>
10004594:	2e00      	cmp	r6, #0
10004596:	d000      	beq.n	1000459a <_etoa+0x2be>
10004598:	2700      	movs	r7, #0
1000459a:	464b      	mov	r3, r9
1000459c:	2b00      	cmp	r3, #0
1000459e:	d007      	beq.n	100045b0 <_etoa+0x2d4>
100045a0:	0022      	movs	r2, r4
100045a2:	002b      	movs	r3, r5
100045a4:	9806      	ldr	r0, [sp, #24]
100045a6:	9907      	ldr	r1, [sp, #28]
100045a8:	f001 f81f 	bl	100055ea <__wrap___aeabi_ddiv>
100045ac:	9006      	str	r0, [sp, #24]
100045ae:	9107      	str	r1, [sp, #28]
100045b0:	2200      	movs	r2, #0
100045b2:	2300      	movs	r3, #0
100045b4:	9808      	ldr	r0, [sp, #32]
100045b6:	9909      	ldr	r1, [sp, #36]	; 0x24
100045b8:	f001 f878 	bl	100056ac <__wrap___aeabi_dcmplt>
100045bc:	2800      	cmp	r0, #0
100045be:	d148      	bne.n	10004652 <_etoa+0x376>
100045c0:	4b44      	ldr	r3, [pc, #272]	; (100046d4 <_etoa+0x3f8>)
100045c2:	9a1e      	ldr	r2, [sp, #120]	; 0x78
100045c4:	4013      	ands	r3, r2
100045c6:	9304      	str	r3, [sp, #16]
100045c8:	9703      	str	r7, [sp, #12]
100045ca:	9b1c      	ldr	r3, [sp, #112]	; 0x70
100045cc:	9302      	str	r3, [sp, #8]
100045ce:	9b06      	ldr	r3, [sp, #24]
100045d0:	9c07      	ldr	r4, [sp, #28]
100045d2:	9300      	str	r3, [sp, #0]
100045d4:	9401      	str	r4, [sp, #4]
100045d6:	4643      	mov	r3, r8
100045d8:	9a0c      	ldr	r2, [sp, #48]	; 0x30
100045da:	4651      	mov	r1, sl
100045dc:	4658      	mov	r0, fp
100045de:	f000 f887 	bl	100046f0 <_ftoa>
100045e2:	2e00      	cmp	r6, #0
100045e4:	d100      	bne.n	100045e8 <_etoa+0x30c>
100045e6:	e787      	b.n	100044f8 <_etoa+0x21c>
100045e8:	9b1e      	ldr	r3, [sp, #120]	; 0x78
100045ea:	069b      	lsls	r3, r3, #26
100045ec:	d53d      	bpl.n	1000466a <_etoa+0x38e>
100045ee:	2545      	movs	r5, #69	; 0x45
100045f0:	1c44      	adds	r4, r0, #1
100045f2:	4643      	mov	r3, r8
100045f4:	0002      	movs	r2, r0
100045f6:	4651      	mov	r1, sl
100045f8:	0028      	movs	r0, r5
100045fa:	47d8      	blx	fp
100045fc:	464b      	mov	r3, r9
100045fe:	17da      	asrs	r2, r3, #31
10004600:	189b      	adds	r3, r3, r2
10004602:	4053      	eors	r3, r2
10004604:	2205      	movs	r2, #5
10004606:	9205      	str	r2, [sp, #20]
10004608:	3e01      	subs	r6, #1
1000460a:	9604      	str	r6, [sp, #16]
1000460c:	2200      	movs	r2, #0
1000460e:	9203      	str	r2, [sp, #12]
10004610:	320a      	adds	r2, #10
10004612:	9202      	str	r2, [sp, #8]
10004614:	464a      	mov	r2, r9
10004616:	0fd0      	lsrs	r0, r2, #31
10004618:	9001      	str	r0, [sp, #4]
1000461a:	9300      	str	r3, [sp, #0]
1000461c:	4643      	mov	r3, r8
1000461e:	0022      	movs	r2, r4
10004620:	4651      	mov	r1, sl
10004622:	4658      	mov	r0, fp
10004624:	f7ff fd8a 	bl	1000413c <_ntoa_long>
10004628:	9b0a      	ldr	r3, [sp, #40]	; 0x28
1000462a:	2b00      	cmp	r3, #0
1000462c:	d100      	bne.n	10004630 <_etoa+0x354>
1000462e:	e763      	b.n	100044f8 <_etoa+0x21c>
10004630:	0002      	movs	r2, r0
10004632:	465f      	mov	r7, fp
10004634:	9e0c      	ldr	r6, [sp, #48]	; 0x30
10004636:	9d1d      	ldr	r5, [sp, #116]	; 0x74
10004638:	e054      	b.n	100046e4 <_etoa+0x408>
1000463a:	9b1c      	ldr	r3, [sp, #112]	; 0x70
1000463c:	2b00      	cmp	r3, #0
1000463e:	d09e      	beq.n	1000457e <_etoa+0x2a2>
10004640:	9b0d      	ldr	r3, [sp, #52]	; 0x34
10004642:	2b00      	cmp	r3, #0
10004644:	d09b      	beq.n	1000457e <_etoa+0x2a2>
10004646:	9b1c      	ldr	r3, [sp, #112]	; 0x70
10004648:	3b01      	subs	r3, #1
1000464a:	931c      	str	r3, [sp, #112]	; 0x70
1000464c:	e797      	b.n	1000457e <_etoa+0x2a2>
1000464e:	2700      	movs	r7, #0
10004650:	e799      	b.n	10004586 <_etoa+0x2aa>
10004652:	9c06      	ldr	r4, [sp, #24]
10004654:	9d07      	ldr	r5, [sp, #28]
10004656:	0022      	movs	r2, r4
10004658:	0029      	movs	r1, r5
1000465a:	2080      	movs	r0, #128	; 0x80
1000465c:	0600      	lsls	r0, r0, #24
1000465e:	4684      	mov	ip, r0
10004660:	4461      	add	r1, ip
10004662:	000b      	movs	r3, r1
10004664:	9206      	str	r2, [sp, #24]
10004666:	9307      	str	r3, [sp, #28]
10004668:	e7aa      	b.n	100045c0 <_etoa+0x2e4>
1000466a:	2565      	movs	r5, #101	; 0x65
1000466c:	e7c0      	b.n	100045f0 <_etoa+0x314>
1000466e:	46c0      	nop			; (mov r8, r8)
10004670:	7fefffff 	.word	0x7fefffff
10004674:	ffefffff 	.word	0xffefffff
10004678:	fffffc01 	.word	0xfffffc01
1000467c:	3ff00000 	.word	0x3ff00000
10004680:	509f79fb 	.word	0x509f79fb
10004684:	3fd34413 	.word	0x3fd34413
10004688:	8b60c8b3 	.word	0x8b60c8b3
1000468c:	3fc68a28 	.word	0x3fc68a28
10004690:	3ff80000 	.word	0x3ff80000
10004694:	636f4361 	.word	0x636f4361
10004698:	3fd287a7 	.word	0x3fd287a7
1000469c:	0979a371 	.word	0x0979a371
100046a0:	400a934f 	.word	0x400a934f
100046a4:	3fe00000 	.word	0x3fe00000
100046a8:	bbb55516 	.word	0xbbb55516
100046ac:	40026bb1 	.word	0x40026bb1
100046b0:	fefa39ef 	.word	0xfefa39ef
100046b4:	3fe62e42 	.word	0x3fe62e42
100046b8:	000003ff 	.word	0x000003ff
100046bc:	402c0000 	.word	0x402c0000
100046c0:	40240000 	.word	0x40240000
100046c4:	40180000 	.word	0x40180000
100046c8:	eb1c432d 	.word	0xeb1c432d
100046cc:	3f1a36e2 	.word	0x3f1a36e2
100046d0:	412e8480 	.word	0x412e8480
100046d4:	fffff7ff 	.word	0xfffff7ff
100046d8:	1c54      	adds	r4, r2, #1
100046da:	4643      	mov	r3, r8
100046dc:	4651      	mov	r1, sl
100046de:	2020      	movs	r0, #32
100046e0:	47b8      	blx	r7
100046e2:	0022      	movs	r2, r4
100046e4:	1b93      	subs	r3, r2, r6
100046e6:	42ab      	cmp	r3, r5
100046e8:	d3f6      	bcc.n	100046d8 <_etoa+0x3fc>
100046ea:	0010      	movs	r0, r2
100046ec:	e704      	b.n	100044f8 <_etoa+0x21c>
100046ee:	46c0      	nop			; (mov r8, r8)

100046f0 <_ftoa>:
100046f0:	b5f0      	push	{r4, r5, r6, r7, lr}
100046f2:	46de      	mov	lr, fp
100046f4:	4657      	mov	r7, sl
100046f6:	464e      	mov	r6, r9
100046f8:	4645      	mov	r5, r8
100046fa:	b5e0      	push	{r5, r6, r7, lr}
100046fc:	b095      	sub	sp, #84	; 0x54
100046fe:	9006      	str	r0, [sp, #24]
10004700:	9107      	str	r1, [sp, #28]
10004702:	4693      	mov	fp, r2
10004704:	4699      	mov	r9, r3
10004706:	9f20      	ldr	r7, [sp, #128]	; 0x80
10004708:	9a1e      	ldr	r2, [sp, #120]	; 0x78
1000470a:	9b1f      	ldr	r3, [sp, #124]	; 0x7c
1000470c:	0010      	movs	r0, r2
1000470e:	0019      	movs	r1, r3
10004710:	f000 ffe7 	bl	100056e2 <__wrap___aeabi_dcmpun>
10004714:	2800      	cmp	r0, #0
10004716:	d131      	bne.n	1000477c <_ftoa+0x8c>
10004718:	2201      	movs	r2, #1
1000471a:	4252      	negs	r2, r2
1000471c:	4bbf      	ldr	r3, [pc, #764]	; (10004a1c <_ftoa+0x32c>)
1000471e:	981e      	ldr	r0, [sp, #120]	; 0x78
10004720:	991f      	ldr	r1, [sp, #124]	; 0x7c
10004722:	f000 ffc3 	bl	100056ac <__wrap___aeabi_dcmplt>
10004726:	2800      	cmp	r0, #0
10004728:	d137      	bne.n	1000479a <_ftoa+0xaa>
1000472a:	2201      	movs	r2, #1
1000472c:	4252      	negs	r2, r2
1000472e:	4bbc      	ldr	r3, [pc, #752]	; (10004a20 <_ftoa+0x330>)
10004730:	981e      	ldr	r0, [sp, #120]	; 0x78
10004732:	991f      	ldr	r1, [sp, #124]	; 0x7c
10004734:	f000 ffd0 	bl	100056d8 <__wrap___aeabi_dcmpgt>
10004738:	2800      	cmp	r0, #0
1000473a:	d13d      	bne.n	100047b8 <_ftoa+0xc8>
1000473c:	2200      	movs	r2, #0
1000473e:	4bb9      	ldr	r3, [pc, #740]	; (10004a24 <_ftoa+0x334>)
10004740:	981e      	ldr	r0, [sp, #120]	; 0x78
10004742:	991f      	ldr	r1, [sp, #124]	; 0x7c
10004744:	f000 ffc8 	bl	100056d8 <__wrap___aeabi_dcmpgt>
10004748:	2800      	cmp	r0, #0
1000474a:	d150      	bne.n	100047ee <_ftoa+0xfe>
1000474c:	2200      	movs	r2, #0
1000474e:	4bb6      	ldr	r3, [pc, #728]	; (10004a28 <_ftoa+0x338>)
10004750:	981e      	ldr	r0, [sp, #120]	; 0x78
10004752:	991f      	ldr	r1, [sp, #124]	; 0x7c
10004754:	f000 ffaa 	bl	100056ac <__wrap___aeabi_dcmplt>
10004758:	2800      	cmp	r0, #0
1000475a:	d148      	bne.n	100047ee <_ftoa+0xfe>
1000475c:	2200      	movs	r2, #0
1000475e:	2300      	movs	r3, #0
10004760:	981e      	ldr	r0, [sp, #120]	; 0x78
10004762:	991f      	ldr	r1, [sp, #124]	; 0x7c
10004764:	f000 ffa2 	bl	100056ac <__wrap___aeabi_dcmplt>
10004768:	2800      	cmp	r0, #0
1000476a:	d150      	bne.n	1000480e <_ftoa+0x11e>
1000476c:	2300      	movs	r3, #0
1000476e:	4698      	mov	r8, r3
10004770:	9b22      	ldr	r3, [sp, #136]	; 0x88
10004772:	055b      	lsls	r3, r3, #21
10004774:	d400      	bmi.n	10004778 <_ftoa+0x88>
10004776:	e0b6      	b.n	100048e6 <_ftoa+0x1f6>
10004778:	2400      	movs	r4, #0
1000477a:	e058      	b.n	1000482e <_ftoa+0x13e>
1000477c:	9b22      	ldr	r3, [sp, #136]	; 0x88
1000477e:	9303      	str	r3, [sp, #12]
10004780:	9b21      	ldr	r3, [sp, #132]	; 0x84
10004782:	9302      	str	r3, [sp, #8]
10004784:	2303      	movs	r3, #3
10004786:	9301      	str	r3, [sp, #4]
10004788:	4ba8      	ldr	r3, [pc, #672]	; (10004a2c <_ftoa+0x33c>)
1000478a:	9300      	str	r3, [sp, #0]
1000478c:	464b      	mov	r3, r9
1000478e:	465a      	mov	r2, fp
10004790:	9907      	ldr	r1, [sp, #28]
10004792:	9806      	ldr	r0, [sp, #24]
10004794:	f7ff fbf2 	bl	10003f7c <_out_rev>
10004798:	e10e      	b.n	100049b8 <_ftoa+0x2c8>
1000479a:	9b22      	ldr	r3, [sp, #136]	; 0x88
1000479c:	9303      	str	r3, [sp, #12]
1000479e:	9b21      	ldr	r3, [sp, #132]	; 0x84
100047a0:	9302      	str	r3, [sp, #8]
100047a2:	2304      	movs	r3, #4
100047a4:	9301      	str	r3, [sp, #4]
100047a6:	4ba2      	ldr	r3, [pc, #648]	; (10004a30 <_ftoa+0x340>)
100047a8:	9300      	str	r3, [sp, #0]
100047aa:	464b      	mov	r3, r9
100047ac:	465a      	mov	r2, fp
100047ae:	9907      	ldr	r1, [sp, #28]
100047b0:	9806      	ldr	r0, [sp, #24]
100047b2:	f7ff fbe3 	bl	10003f7c <_out_rev>
100047b6:	e0ff      	b.n	100049b8 <_ftoa+0x2c8>
100047b8:	2304      	movs	r3, #4
100047ba:	9a22      	ldr	r2, [sp, #136]	; 0x88
100047bc:	401a      	ands	r2, r3
100047be:	9922      	ldr	r1, [sp, #136]	; 0x88
100047c0:	420b      	tst	r3, r1
100047c2:	d010      	beq.n	100047e6 <_ftoa+0xf6>
100047c4:	4b9b      	ldr	r3, [pc, #620]	; (10004a34 <_ftoa+0x344>)
100047c6:	2a00      	cmp	r2, #0
100047c8:	d00f      	beq.n	100047ea <_ftoa+0xfa>
100047ca:	2204      	movs	r2, #4
100047cc:	9922      	ldr	r1, [sp, #136]	; 0x88
100047ce:	9103      	str	r1, [sp, #12]
100047d0:	9921      	ldr	r1, [sp, #132]	; 0x84
100047d2:	9102      	str	r1, [sp, #8]
100047d4:	9201      	str	r2, [sp, #4]
100047d6:	9300      	str	r3, [sp, #0]
100047d8:	464b      	mov	r3, r9
100047da:	465a      	mov	r2, fp
100047dc:	9907      	ldr	r1, [sp, #28]
100047de:	9806      	ldr	r0, [sp, #24]
100047e0:	f7ff fbcc 	bl	10003f7c <_out_rev>
100047e4:	e0e8      	b.n	100049b8 <_ftoa+0x2c8>
100047e6:	4b94      	ldr	r3, [pc, #592]	; (10004a38 <_ftoa+0x348>)
100047e8:	e7ed      	b.n	100047c6 <_ftoa+0xd6>
100047ea:	2203      	movs	r2, #3
100047ec:	e7ee      	b.n	100047cc <_ftoa+0xdc>
100047ee:	9b22      	ldr	r3, [sp, #136]	; 0x88
100047f0:	9304      	str	r3, [sp, #16]
100047f2:	9b21      	ldr	r3, [sp, #132]	; 0x84
100047f4:	9303      	str	r3, [sp, #12]
100047f6:	9702      	str	r7, [sp, #8]
100047f8:	9b1e      	ldr	r3, [sp, #120]	; 0x78
100047fa:	9c1f      	ldr	r4, [sp, #124]	; 0x7c
100047fc:	9300      	str	r3, [sp, #0]
100047fe:	9401      	str	r4, [sp, #4]
10004800:	464b      	mov	r3, r9
10004802:	465a      	mov	r2, fp
10004804:	9907      	ldr	r1, [sp, #28]
10004806:	9806      	ldr	r0, [sp, #24]
10004808:	f7ff fd68 	bl	100042dc <_etoa>
1000480c:	e0d4      	b.n	100049b8 <_ftoa+0x2c8>
1000480e:	9a1e      	ldr	r2, [sp, #120]	; 0x78
10004810:	9b1f      	ldr	r3, [sp, #124]	; 0x7c
10004812:	2000      	movs	r0, #0
10004814:	2100      	movs	r1, #0
10004816:	f000 fed6 	bl	100055c6 <__wrap___aeabi_dsub>
1000481a:	901e      	str	r0, [sp, #120]	; 0x78
1000481c:	911f      	str	r1, [sp, #124]	; 0x7c
1000481e:	2301      	movs	r3, #1
10004820:	4698      	mov	r8, r3
10004822:	e7a5      	b.n	10004770 <_ftoa+0x80>
10004824:	ab0c      	add	r3, sp, #48	; 0x30
10004826:	2230      	movs	r2, #48	; 0x30
10004828:	551a      	strb	r2, [r3, r4]
1000482a:	3f01      	subs	r7, #1
1000482c:	3401      	adds	r4, #1
1000482e:	2c1f      	cmp	r4, #31
10004830:	d801      	bhi.n	10004836 <_ftoa+0x146>
10004832:	2f09      	cmp	r7, #9
10004834:	d8f6      	bhi.n	10004824 <_ftoa+0x134>
10004836:	981e      	ldr	r0, [sp, #120]	; 0x78
10004838:	991f      	ldr	r1, [sp, #124]	; 0x7c
1000483a:	f000 ff7d 	bl	10005738 <__wrap___aeabi_d2iz>
1000483e:	0005      	movs	r5, r0
10004840:	f000 ff62 	bl	10005708 <__wrap___aeabi_i2d>
10004844:	0002      	movs	r2, r0
10004846:	000b      	movs	r3, r1
10004848:	981e      	ldr	r0, [sp, #120]	; 0x78
1000484a:	991f      	ldr	r1, [sp, #124]	; 0x7c
1000484c:	f000 febb 	bl	100055c6 <__wrap___aeabi_dsub>
10004850:	00fa      	lsls	r2, r7, #3
10004852:	4b7a      	ldr	r3, [pc, #488]	; (10004a3c <_ftoa+0x34c>)
10004854:	189b      	adds	r3, r3, r2
10004856:	681a      	ldr	r2, [r3, #0]
10004858:	685b      	ldr	r3, [r3, #4]
1000485a:	920a      	str	r2, [sp, #40]	; 0x28
1000485c:	930b      	str	r3, [sp, #44]	; 0x2c
1000485e:	f000 fee2 	bl	10005626 <__wrap___aeabi_dmul>
10004862:	9008      	str	r0, [sp, #32]
10004864:	9109      	str	r1, [sp, #36]	; 0x24
10004866:	f000 ff8b 	bl	10005780 <__wrap___aeabi_d2uiz>
1000486a:	0006      	movs	r6, r0
1000486c:	f000 ff48 	bl	10005700 <__wrap___aeabi_ui2d>
10004870:	0002      	movs	r2, r0
10004872:	000b      	movs	r3, r1
10004874:	9808      	ldr	r0, [sp, #32]
10004876:	9909      	ldr	r1, [sp, #36]	; 0x24
10004878:	f000 fea5 	bl	100055c6 <__wrap___aeabi_dsub>
1000487c:	9008      	str	r0, [sp, #32]
1000487e:	9109      	str	r1, [sp, #36]	; 0x24
10004880:	2200      	movs	r2, #0
10004882:	4b6f      	ldr	r3, [pc, #444]	; (10004a40 <_ftoa+0x350>)
10004884:	f000 ff28 	bl	100056d8 <__wrap___aeabi_dcmpgt>
10004888:	2800      	cmp	r0, #0
1000488a:	d02e      	beq.n	100048ea <_ftoa+0x1fa>
1000488c:	3601      	adds	r6, #1
1000488e:	0030      	movs	r0, r6
10004890:	f000 ff36 	bl	10005700 <__wrap___aeabi_ui2d>
10004894:	0002      	movs	r2, r0
10004896:	000b      	movs	r3, r1
10004898:	980a      	ldr	r0, [sp, #40]	; 0x28
1000489a:	990b      	ldr	r1, [sp, #44]	; 0x2c
1000489c:	f000 ff0c 	bl	100056b8 <__wrap___aeabi_dcmple>
100048a0:	2800      	cmp	r0, #0
100048a2:	d001      	beq.n	100048a8 <_ftoa+0x1b8>
100048a4:	3501      	adds	r5, #1
100048a6:	2600      	movs	r6, #0
100048a8:	2f00      	cmp	r7, #0
100048aa:	d12c      	bne.n	10004906 <_ftoa+0x216>
100048ac:	0028      	movs	r0, r5
100048ae:	f000 ff2b 	bl	10005708 <__wrap___aeabi_i2d>
100048b2:	0002      	movs	r2, r0
100048b4:	000b      	movs	r3, r1
100048b6:	981e      	ldr	r0, [sp, #120]	; 0x78
100048b8:	991f      	ldr	r1, [sp, #124]	; 0x7c
100048ba:	f000 fe84 	bl	100055c6 <__wrap___aeabi_dsub>
100048be:	0006      	movs	r6, r0
100048c0:	000f      	movs	r7, r1
100048c2:	2200      	movs	r2, #0
100048c4:	4b5e      	ldr	r3, [pc, #376]	; (10004a40 <_ftoa+0x350>)
100048c6:	f000 fef1 	bl	100056ac <__wrap___aeabi_dcmplt>
100048ca:	2800      	cmp	r0, #0
100048cc:	d146      	bne.n	1000495c <_ftoa+0x26c>
100048ce:	2200      	movs	r2, #0
100048d0:	4b5b      	ldr	r3, [pc, #364]	; (10004a40 <_ftoa+0x350>)
100048d2:	0030      	movs	r0, r6
100048d4:	0039      	movs	r1, r7
100048d6:	f000 feff 	bl	100056d8 <__wrap___aeabi_dcmpgt>
100048da:	2800      	cmp	r0, #0
100048dc:	d13e      	bne.n	1000495c <_ftoa+0x26c>
100048de:	07eb      	lsls	r3, r5, #31
100048e0:	d53c      	bpl.n	1000495c <_ftoa+0x26c>
100048e2:	3501      	adds	r5, #1
100048e4:	e03a      	b.n	1000495c <_ftoa+0x26c>
100048e6:	2706      	movs	r7, #6
100048e8:	e746      	b.n	10004778 <_ftoa+0x88>
100048ea:	2200      	movs	r2, #0
100048ec:	4b54      	ldr	r3, [pc, #336]	; (10004a40 <_ftoa+0x350>)
100048ee:	9808      	ldr	r0, [sp, #32]
100048f0:	9909      	ldr	r1, [sp, #36]	; 0x24
100048f2:	f000 fedb 	bl	100056ac <__wrap___aeabi_dcmplt>
100048f6:	2800      	cmp	r0, #0
100048f8:	d1d6      	bne.n	100048a8 <_ftoa+0x1b8>
100048fa:	2e00      	cmp	r6, #0
100048fc:	d001      	beq.n	10004902 <_ftoa+0x212>
100048fe:	07f3      	lsls	r3, r6, #31
10004900:	d5d2      	bpl.n	100048a8 <_ftoa+0x1b8>
10004902:	3601      	adds	r6, #1
10004904:	e7d0      	b.n	100048a8 <_ftoa+0x1b8>
10004906:	46aa      	mov	sl, r5
10004908:	2c1f      	cmp	r4, #31
1000490a:	d811      	bhi.n	10004930 <_ftoa+0x240>
1000490c:	3f01      	subs	r7, #1
1000490e:	210a      	movs	r1, #10
10004910:	0030      	movs	r0, r6
10004912:	f000 fc15 	bl	10005140 <__wrap___aeabi_uidiv>
10004916:	1c65      	adds	r5, r4, #1
10004918:	3130      	adds	r1, #48	; 0x30
1000491a:	ab0c      	add	r3, sp, #48	; 0x30
1000491c:	5519      	strb	r1, [r3, r4]
1000491e:	210a      	movs	r1, #10
10004920:	0030      	movs	r0, r6
10004922:	f000 fc0d 	bl	10005140 <__wrap___aeabi_uidiv>
10004926:	2e09      	cmp	r6, #9
10004928:	d90e      	bls.n	10004948 <_ftoa+0x258>
1000492a:	0006      	movs	r6, r0
1000492c:	002c      	movs	r4, r5
1000492e:	e7eb      	b.n	10004908 <_ftoa+0x218>
10004930:	4655      	mov	r5, sl
10004932:	2c1f      	cmp	r4, #31
10004934:	d80c      	bhi.n	10004950 <_ftoa+0x260>
10004936:	1e7b      	subs	r3, r7, #1
10004938:	2f00      	cmp	r7, #0
1000493a:	d009      	beq.n	10004950 <_ftoa+0x260>
1000493c:	aa0c      	add	r2, sp, #48	; 0x30
1000493e:	2130      	movs	r1, #48	; 0x30
10004940:	5511      	strb	r1, [r2, r4]
10004942:	001f      	movs	r7, r3
10004944:	3401      	adds	r4, #1
10004946:	e7f4      	b.n	10004932 <_ftoa+0x242>
10004948:	002b      	movs	r3, r5
1000494a:	4655      	mov	r5, sl
1000494c:	001c      	movs	r4, r3
1000494e:	e7f0      	b.n	10004932 <_ftoa+0x242>
10004950:	2c1f      	cmp	r4, #31
10004952:	d803      	bhi.n	1000495c <_ftoa+0x26c>
10004954:	ab0c      	add	r3, sp, #48	; 0x30
10004956:	222e      	movs	r2, #46	; 0x2e
10004958:	551a      	strb	r2, [r3, r4]
1000495a:	3401      	adds	r4, #1
1000495c:	2c1f      	cmp	r4, #31
1000495e:	d810      	bhi.n	10004982 <_ftoa+0x292>
10004960:	210a      	movs	r1, #10
10004962:	0028      	movs	r0, r5
10004964:	f000 fbc4 	bl	100050f0 <__wrap___aeabi_idiv>
10004968:	1c66      	adds	r6, r4, #1
1000496a:	3130      	adds	r1, #48	; 0x30
1000496c:	ab0c      	add	r3, sp, #48	; 0x30
1000496e:	5519      	strb	r1, [r3, r4]
10004970:	210a      	movs	r1, #10
10004972:	0028      	movs	r0, r5
10004974:	f000 fbbc 	bl	100050f0 <__wrap___aeabi_idiv>
10004978:	1e05      	subs	r5, r0, #0
1000497a:	d001      	beq.n	10004980 <_ftoa+0x290>
1000497c:	0034      	movs	r4, r6
1000497e:	e7ed      	b.n	1000495c <_ftoa+0x26c>
10004980:	0034      	movs	r4, r6
10004982:	2303      	movs	r3, #3
10004984:	9a22      	ldr	r2, [sp, #136]	; 0x88
10004986:	4013      	ands	r3, r2
10004988:	2b01      	cmp	r3, #1
1000498a:	d01c      	beq.n	100049c6 <_ftoa+0x2d6>
1000498c:	2c1f      	cmp	r4, #31
1000498e:	d806      	bhi.n	1000499e <_ftoa+0x2ae>
10004990:	4643      	mov	r3, r8
10004992:	2b00      	cmp	r3, #0
10004994:	d032      	beq.n	100049fc <_ftoa+0x30c>
10004996:	ab0c      	add	r3, sp, #48	; 0x30
10004998:	222d      	movs	r2, #45	; 0x2d
1000499a:	551a      	strb	r2, [r3, r4]
1000499c:	3401      	adds	r4, #1
1000499e:	9b22      	ldr	r3, [sp, #136]	; 0x88
100049a0:	9303      	str	r3, [sp, #12]
100049a2:	9b21      	ldr	r3, [sp, #132]	; 0x84
100049a4:	9302      	str	r3, [sp, #8]
100049a6:	9401      	str	r4, [sp, #4]
100049a8:	ab0c      	add	r3, sp, #48	; 0x30
100049aa:	9300      	str	r3, [sp, #0]
100049ac:	464b      	mov	r3, r9
100049ae:	465a      	mov	r2, fp
100049b0:	9907      	ldr	r1, [sp, #28]
100049b2:	9806      	ldr	r0, [sp, #24]
100049b4:	f7ff fae2 	bl	10003f7c <_out_rev>
100049b8:	b015      	add	sp, #84	; 0x54
100049ba:	bcf0      	pop	{r4, r5, r6, r7}
100049bc:	46bb      	mov	fp, r7
100049be:	46b2      	mov	sl, r6
100049c0:	46a9      	mov	r9, r5
100049c2:	46a0      	mov	r8, r4
100049c4:	bdf0      	pop	{r4, r5, r6, r7, pc}
100049c6:	9b21      	ldr	r3, [sp, #132]	; 0x84
100049c8:	2b00      	cmp	r3, #0
100049ca:	d013      	beq.n	100049f4 <_ftoa+0x304>
100049cc:	4643      	mov	r3, r8
100049ce:	2b00      	cmp	r3, #0
100049d0:	d102      	bne.n	100049d8 <_ftoa+0x2e8>
100049d2:	330c      	adds	r3, #12
100049d4:	4213      	tst	r3, r2
100049d6:	d00f      	beq.n	100049f8 <_ftoa+0x308>
100049d8:	9b21      	ldr	r3, [sp, #132]	; 0x84
100049da:	3b01      	subs	r3, #1
100049dc:	9321      	str	r3, [sp, #132]	; 0x84
100049de:	0019      	movs	r1, r3
100049e0:	e003      	b.n	100049ea <_ftoa+0x2fa>
100049e2:	ab0c      	add	r3, sp, #48	; 0x30
100049e4:	2230      	movs	r2, #48	; 0x30
100049e6:	551a      	strb	r2, [r3, r4]
100049e8:	3401      	adds	r4, #1
100049ea:	428c      	cmp	r4, r1
100049ec:	d2ce      	bcs.n	1000498c <_ftoa+0x29c>
100049ee:	2c1f      	cmp	r4, #31
100049f0:	d9f7      	bls.n	100049e2 <_ftoa+0x2f2>
100049f2:	e7cb      	b.n	1000498c <_ftoa+0x29c>
100049f4:	9921      	ldr	r1, [sp, #132]	; 0x84
100049f6:	e7f8      	b.n	100049ea <_ftoa+0x2fa>
100049f8:	9921      	ldr	r1, [sp, #132]	; 0x84
100049fa:	e7f6      	b.n	100049ea <_ftoa+0x2fa>
100049fc:	9b22      	ldr	r3, [sp, #136]	; 0x88
100049fe:	075b      	lsls	r3, r3, #29
10004a00:	d504      	bpl.n	10004a0c <_ftoa+0x31c>
10004a02:	ab0c      	add	r3, sp, #48	; 0x30
10004a04:	222b      	movs	r2, #43	; 0x2b
10004a06:	551a      	strb	r2, [r3, r4]
10004a08:	3401      	adds	r4, #1
10004a0a:	e7c8      	b.n	1000499e <_ftoa+0x2ae>
10004a0c:	9b22      	ldr	r3, [sp, #136]	; 0x88
10004a0e:	071b      	lsls	r3, r3, #28
10004a10:	d5c5      	bpl.n	1000499e <_ftoa+0x2ae>
10004a12:	ab0c      	add	r3, sp, #48	; 0x30
10004a14:	2220      	movs	r2, #32
10004a16:	551a      	strb	r2, [r3, r4]
10004a18:	3401      	adds	r4, #1
10004a1a:	e7c0      	b.n	1000499e <_ftoa+0x2ae>
10004a1c:	ffefffff 	.word	0xffefffff
10004a20:	7fefffff 	.word	0x7fefffff
10004a24:	41cdcd65 	.word	0x41cdcd65
10004a28:	c1cdcd65 	.word	0xc1cdcd65
10004a2c:	100078d4 	.word	0x100078d4
10004a30:	100078d8 	.word	0x100078d8
10004a34:	100078cc 	.word	0x100078cc
10004a38:	100078c8 	.word	0x100078c8
10004a3c:	10007ac0 	.word	0x10007ac0
10004a40:	3fe00000 	.word	0x3fe00000

10004a44 <_vsnprintf>:
10004a44:	b5f0      	push	{r4, r5, r6, r7, lr}
10004a46:	46de      	mov	lr, fp
10004a48:	4657      	mov	r7, sl
10004a4a:	464e      	mov	r6, r9
10004a4c:	4645      	mov	r5, r8
10004a4e:	b5e0      	push	{r5, r6, r7, lr}
10004a50:	b093      	sub	sp, #76	; 0x4c
10004a52:	4682      	mov	sl, r0
10004a54:	468b      	mov	fp, r1
10004a56:	4690      	mov	r8, r2
10004a58:	9311      	str	r3, [sp, #68]	; 0x44
10004a5a:	2900      	cmp	r1, #0
10004a5c:	d100      	bne.n	10004a60 <_vsnprintf+0x1c>
10004a5e:	e2eb      	b.n	10005038 <_vsnprintf+0x5f4>
10004a60:	2700      	movs	r7, #0
10004a62:	4655      	mov	r5, sl
10004a64:	9b11      	ldr	r3, [sp, #68]	; 0x44
10004a66:	7818      	ldrb	r0, [r3, #0]
10004a68:	2800      	cmp	r0, #0
10004a6a:	d100      	bne.n	10004a6e <_vsnprintf+0x2a>
10004a6c:	e2e7      	b.n	1000503e <_vsnprintf+0x5fa>
10004a6e:	2825      	cmp	r0, #37	; 0x25
10004a70:	d009      	beq.n	10004a86 <_vsnprintf+0x42>
10004a72:	1c7c      	adds	r4, r7, #1
10004a74:	4643      	mov	r3, r8
10004a76:	003a      	movs	r2, r7
10004a78:	4659      	mov	r1, fp
10004a7a:	47a8      	blx	r5
10004a7c:	9b11      	ldr	r3, [sp, #68]	; 0x44
10004a7e:	3301      	adds	r3, #1
10004a80:	9311      	str	r3, [sp, #68]	; 0x44
10004a82:	0027      	movs	r7, r4
10004a84:	e7ee      	b.n	10004a64 <_vsnprintf+0x20>
10004a86:	3301      	adds	r3, #1
10004a88:	9311      	str	r3, [sp, #68]	; 0x44
10004a8a:	2400      	movs	r4, #0
10004a8c:	9a11      	ldr	r2, [sp, #68]	; 0x44
10004a8e:	7811      	ldrb	r1, [r2, #0]
10004a90:	000b      	movs	r3, r1
10004a92:	3b20      	subs	r3, #32
10004a94:	b2d8      	uxtb	r0, r3
10004a96:	2810      	cmp	r0, #16
10004a98:	d803      	bhi.n	10004aa2 <_vsnprintf+0x5e>
10004a9a:	0083      	lsls	r3, r0, #2
10004a9c:	48d0      	ldr	r0, [pc, #832]	; (10004de0 <_vsnprintf+0x39c>)
10004a9e:	58c3      	ldr	r3, [r0, r3]
10004aa0:	469f      	mov	pc, r3
10004aa2:	000b      	movs	r3, r1
10004aa4:	3b30      	subs	r3, #48	; 0x30
10004aa6:	b2db      	uxtb	r3, r3
10004aa8:	2b09      	cmp	r3, #9
10004aaa:	d92c      	bls.n	10004b06 <_vsnprintf+0xc2>
10004aac:	292a      	cmp	r1, #42	; 0x2a
10004aae:	d02f      	beq.n	10004b10 <_vsnprintf+0xcc>
10004ab0:	2300      	movs	r3, #0
10004ab2:	930a      	str	r3, [sp, #40]	; 0x28
10004ab4:	9b11      	ldr	r3, [sp, #68]	; 0x44
10004ab6:	781a      	ldrb	r2, [r3, #0]
10004ab8:	2a2e      	cmp	r2, #46	; 0x2e
10004aba:	d039      	beq.n	10004b30 <_vsnprintf+0xec>
10004abc:	2300      	movs	r3, #0
10004abe:	469a      	mov	sl, r3
10004ac0:	9a11      	ldr	r2, [sp, #68]	; 0x44
10004ac2:	7813      	ldrb	r3, [r2, #0]
10004ac4:	3b68      	subs	r3, #104	; 0x68
10004ac6:	b2d9      	uxtb	r1, r3
10004ac8:	2912      	cmp	r1, #18
10004aca:	d876      	bhi.n	10004bba <_vsnprintf+0x176>
10004acc:	008b      	lsls	r3, r1, #2
10004ace:	49c5      	ldr	r1, [pc, #788]	; (10004de4 <_vsnprintf+0x3a0>)
10004ad0:	58cb      	ldr	r3, [r1, r3]
10004ad2:	469f      	mov	pc, r3
10004ad4:	2301      	movs	r3, #1
10004ad6:	431c      	orrs	r4, r3
10004ad8:	3201      	adds	r2, #1
10004ada:	9211      	str	r2, [sp, #68]	; 0x44
10004adc:	e7d6      	b.n	10004a8c <_vsnprintf+0x48>
10004ade:	2302      	movs	r3, #2
10004ae0:	431c      	orrs	r4, r3
10004ae2:	3201      	adds	r2, #1
10004ae4:	9211      	str	r2, [sp, #68]	; 0x44
10004ae6:	e7d1      	b.n	10004a8c <_vsnprintf+0x48>
10004ae8:	2304      	movs	r3, #4
10004aea:	431c      	orrs	r4, r3
10004aec:	3201      	adds	r2, #1
10004aee:	9211      	str	r2, [sp, #68]	; 0x44
10004af0:	e7cc      	b.n	10004a8c <_vsnprintf+0x48>
10004af2:	2308      	movs	r3, #8
10004af4:	431c      	orrs	r4, r3
10004af6:	3201      	adds	r2, #1
10004af8:	9211      	str	r2, [sp, #68]	; 0x44
10004afa:	e7c7      	b.n	10004a8c <_vsnprintf+0x48>
10004afc:	2310      	movs	r3, #16
10004afe:	431c      	orrs	r4, r3
10004b00:	3201      	adds	r2, #1
10004b02:	9211      	str	r2, [sp, #68]	; 0x44
10004b04:	e7c2      	b.n	10004a8c <_vsnprintf+0x48>
10004b06:	a811      	add	r0, sp, #68	; 0x44
10004b08:	f7ff fa26 	bl	10003f58 <_atoi>
10004b0c:	900a      	str	r0, [sp, #40]	; 0x28
10004b0e:	e7d1      	b.n	10004ab4 <_vsnprintf+0x70>
10004b10:	9b1c      	ldr	r3, [sp, #112]	; 0x70
10004b12:	1d1a      	adds	r2, r3, #4
10004b14:	921c      	str	r2, [sp, #112]	; 0x70
10004b16:	6818      	ldr	r0, [r3, #0]
10004b18:	2800      	cmp	r0, #0
10004b1a:	db04      	blt.n	10004b26 <_vsnprintf+0xe2>
10004b1c:	900a      	str	r0, [sp, #40]	; 0x28
10004b1e:	9b11      	ldr	r3, [sp, #68]	; 0x44
10004b20:	3301      	adds	r3, #1
10004b22:	9311      	str	r3, [sp, #68]	; 0x44
10004b24:	e7c6      	b.n	10004ab4 <_vsnprintf+0x70>
10004b26:	2302      	movs	r3, #2
10004b28:	431c      	orrs	r4, r3
10004b2a:	4243      	negs	r3, r0
10004b2c:	930a      	str	r3, [sp, #40]	; 0x28
10004b2e:	e7f6      	b.n	10004b1e <_vsnprintf+0xda>
10004b30:	2280      	movs	r2, #128	; 0x80
10004b32:	00d2      	lsls	r2, r2, #3
10004b34:	4314      	orrs	r4, r2
10004b36:	1c5a      	adds	r2, r3, #1
10004b38:	9211      	str	r2, [sp, #68]	; 0x44
10004b3a:	785a      	ldrb	r2, [r3, #1]
10004b3c:	0013      	movs	r3, r2
10004b3e:	3b30      	subs	r3, #48	; 0x30
10004b40:	b2db      	uxtb	r3, r3
10004b42:	2b09      	cmp	r3, #9
10004b44:	d904      	bls.n	10004b50 <_vsnprintf+0x10c>
10004b46:	2a2a      	cmp	r2, #42	; 0x2a
10004b48:	d007      	beq.n	10004b5a <_vsnprintf+0x116>
10004b4a:	2300      	movs	r3, #0
10004b4c:	469a      	mov	sl, r3
10004b4e:	e7b7      	b.n	10004ac0 <_vsnprintf+0x7c>
10004b50:	a811      	add	r0, sp, #68	; 0x44
10004b52:	f7ff fa01 	bl	10003f58 <_atoi>
10004b56:	4682      	mov	sl, r0
10004b58:	e7b2      	b.n	10004ac0 <_vsnprintf+0x7c>
10004b5a:	9b1c      	ldr	r3, [sp, #112]	; 0x70
10004b5c:	1d1a      	adds	r2, r3, #4
10004b5e:	921c      	str	r2, [sp, #112]	; 0x70
10004b60:	6818      	ldr	r0, [r3, #0]
10004b62:	2800      	cmp	r0, #0
10004b64:	db04      	blt.n	10004b70 <_vsnprintf+0x12c>
10004b66:	4682      	mov	sl, r0
10004b68:	9b11      	ldr	r3, [sp, #68]	; 0x44
10004b6a:	3301      	adds	r3, #1
10004b6c:	9311      	str	r3, [sp, #68]	; 0x44
10004b6e:	e7a7      	b.n	10004ac0 <_vsnprintf+0x7c>
10004b70:	2000      	movs	r0, #0
10004b72:	e7f8      	b.n	10004b66 <_vsnprintf+0x122>
10004b74:	2380      	movs	r3, #128	; 0x80
10004b76:	005b      	lsls	r3, r3, #1
10004b78:	4323      	orrs	r3, r4
10004b7a:	1c51      	adds	r1, r2, #1
10004b7c:	9111      	str	r1, [sp, #68]	; 0x44
10004b7e:	7852      	ldrb	r2, [r2, #1]
10004b80:	2a6c      	cmp	r2, #108	; 0x6c
10004b82:	d001      	beq.n	10004b88 <_vsnprintf+0x144>
10004b84:	001c      	movs	r4, r3
10004b86:	e018      	b.n	10004bba <_vsnprintf+0x176>
10004b88:	23c0      	movs	r3, #192	; 0xc0
10004b8a:	009b      	lsls	r3, r3, #2
10004b8c:	431c      	orrs	r4, r3
10004b8e:	3101      	adds	r1, #1
10004b90:	9111      	str	r1, [sp, #68]	; 0x44
10004b92:	e012      	b.n	10004bba <_vsnprintf+0x176>
10004b94:	2380      	movs	r3, #128	; 0x80
10004b96:	4323      	orrs	r3, r4
10004b98:	1c51      	adds	r1, r2, #1
10004b9a:	9111      	str	r1, [sp, #68]	; 0x44
10004b9c:	7852      	ldrb	r2, [r2, #1]
10004b9e:	2a68      	cmp	r2, #104	; 0x68
10004ba0:	d001      	beq.n	10004ba6 <_vsnprintf+0x162>
10004ba2:	001c      	movs	r4, r3
10004ba4:	e009      	b.n	10004bba <_vsnprintf+0x176>
10004ba6:	23c0      	movs	r3, #192	; 0xc0
10004ba8:	431c      	orrs	r4, r3
10004baa:	3101      	adds	r1, #1
10004bac:	9111      	str	r1, [sp, #68]	; 0x44
10004bae:	e004      	b.n	10004bba <_vsnprintf+0x176>
10004bb0:	2380      	movs	r3, #128	; 0x80
10004bb2:	005b      	lsls	r3, r3, #1
10004bb4:	431c      	orrs	r4, r3
10004bb6:	3201      	adds	r2, #1
10004bb8:	9211      	str	r2, [sp, #68]	; 0x44
10004bba:	9b11      	ldr	r3, [sp, #68]	; 0x44
10004bbc:	7818      	ldrb	r0, [r3, #0]
10004bbe:	0003      	movs	r3, r0
10004bc0:	3b25      	subs	r3, #37	; 0x25
10004bc2:	b2da      	uxtb	r2, r3
10004bc4:	2a53      	cmp	r2, #83	; 0x53
10004bc6:	d900      	bls.n	10004bca <_vsnprintf+0x186>
10004bc8:	e22c      	b.n	10005024 <_vsnprintf+0x5e0>
10004bca:	0093      	lsls	r3, r2, #2
10004bcc:	4a86      	ldr	r2, [pc, #536]	; (10004de8 <_vsnprintf+0x3a4>)
10004bce:	58d3      	ldr	r3, [r2, r3]
10004bd0:	469f      	mov	pc, r3
10004bd2:	2380      	movs	r3, #128	; 0x80
10004bd4:	009b      	lsls	r3, r3, #2
10004bd6:	431c      	orrs	r4, r3
10004bd8:	3201      	adds	r2, #1
10004bda:	9211      	str	r2, [sp, #68]	; 0x44
10004bdc:	e7ed      	b.n	10004bba <_vsnprintf+0x176>
10004bde:	2380      	movs	r3, #128	; 0x80
10004be0:	005b      	lsls	r3, r3, #1
10004be2:	431c      	orrs	r4, r3
10004be4:	3201      	adds	r2, #1
10004be6:	9211      	str	r2, [sp, #68]	; 0x44
10004be8:	e7e7      	b.n	10004bba <_vsnprintf+0x176>
10004bea:	2878      	cmp	r0, #120	; 0x78
10004bec:	d009      	beq.n	10004c02 <_vsnprintf+0x1be>
10004bee:	2858      	cmp	r0, #88	; 0x58
10004bf0:	d038      	beq.n	10004c64 <_vsnprintf+0x220>
10004bf2:	286f      	cmp	r0, #111	; 0x6f
10004bf4:	d038      	beq.n	10004c68 <_vsnprintf+0x224>
10004bf6:	2862      	cmp	r0, #98	; 0x62
10004bf8:	d038      	beq.n	10004c6c <_vsnprintf+0x228>
10004bfa:	2310      	movs	r3, #16
10004bfc:	439c      	bics	r4, r3
10004bfe:	260a      	movs	r6, #10
10004c00:	e000      	b.n	10004c04 <_vsnprintf+0x1c0>
10004c02:	2610      	movs	r6, #16
10004c04:	2858      	cmp	r0, #88	; 0x58
10004c06:	d033      	beq.n	10004c70 <_vsnprintf+0x22c>
10004c08:	2869      	cmp	r0, #105	; 0x69
10004c0a:	d003      	beq.n	10004c14 <_vsnprintf+0x1d0>
10004c0c:	2864      	cmp	r0, #100	; 0x64
10004c0e:	d001      	beq.n	10004c14 <_vsnprintf+0x1d0>
10004c10:	220c      	movs	r2, #12
10004c12:	4394      	bics	r4, r2
10004c14:	0563      	lsls	r3, r4, #21
10004c16:	d501      	bpl.n	10004c1c <_vsnprintf+0x1d8>
10004c18:	2201      	movs	r2, #1
10004c1a:	4394      	bics	r4, r2
10004c1c:	2869      	cmp	r0, #105	; 0x69
10004c1e:	d02a      	beq.n	10004c76 <_vsnprintf+0x232>
10004c20:	2864      	cmp	r0, #100	; 0x64
10004c22:	d028      	beq.n	10004c76 <_vsnprintf+0x232>
10004c24:	05a3      	lsls	r3, r4, #22
10004c26:	d500      	bpl.n	10004c2a <_vsnprintf+0x1e6>
10004c28:	e09f      	b.n	10004d6a <_vsnprintf+0x326>
10004c2a:	05e3      	lsls	r3, r4, #23
10004c2c:	d500      	bpl.n	10004c30 <_vsnprintf+0x1ec>
10004c2e:	e0b8      	b.n	10004da2 <_vsnprintf+0x35e>
10004c30:	0663      	lsls	r3, r4, #25
10004c32:	d400      	bmi.n	10004c36 <_vsnprintf+0x1f2>
10004c34:	e0ca      	b.n	10004dcc <_vsnprintf+0x388>
10004c36:	9a1c      	ldr	r2, [sp, #112]	; 0x70
10004c38:	1d11      	adds	r1, r2, #4
10004c3a:	911c      	str	r1, [sp, #112]	; 0x70
10004c3c:	6811      	ldr	r1, [r2, #0]
10004c3e:	22ff      	movs	r2, #255	; 0xff
10004c40:	400a      	ands	r2, r1
10004c42:	9405      	str	r4, [sp, #20]
10004c44:	9b0a      	ldr	r3, [sp, #40]	; 0x28
10004c46:	9304      	str	r3, [sp, #16]
10004c48:	4653      	mov	r3, sl
10004c4a:	9303      	str	r3, [sp, #12]
10004c4c:	9602      	str	r6, [sp, #8]
10004c4e:	2300      	movs	r3, #0
10004c50:	9301      	str	r3, [sp, #4]
10004c52:	9200      	str	r2, [sp, #0]
10004c54:	4643      	mov	r3, r8
10004c56:	003a      	movs	r2, r7
10004c58:	4659      	mov	r1, fp
10004c5a:	0028      	movs	r0, r5
10004c5c:	f7ff fa6e 	bl	1000413c <_ntoa_long>
10004c60:	0007      	movs	r7, r0
10004c62:	e027      	b.n	10004cb4 <_vsnprintf+0x270>
10004c64:	2610      	movs	r6, #16
10004c66:	e7cd      	b.n	10004c04 <_vsnprintf+0x1c0>
10004c68:	2608      	movs	r6, #8
10004c6a:	e7cb      	b.n	10004c04 <_vsnprintf+0x1c0>
10004c6c:	2602      	movs	r6, #2
10004c6e:	e7c9      	b.n	10004c04 <_vsnprintf+0x1c0>
10004c70:	2220      	movs	r2, #32
10004c72:	4314      	orrs	r4, r2
10004c74:	e7c8      	b.n	10004c08 <_vsnprintf+0x1c4>
10004c76:	05a3      	lsls	r3, r4, #22
10004c78:	d420      	bmi.n	10004cbc <_vsnprintf+0x278>
10004c7a:	05e3      	lsls	r3, r4, #23
10004c7c:	d450      	bmi.n	10004d20 <_vsnprintf+0x2dc>
10004c7e:	0663      	lsls	r3, r4, #25
10004c80:	d566      	bpl.n	10004d50 <_vsnprintf+0x30c>
10004c82:	9a1c      	ldr	r2, [sp, #112]	; 0x70
10004c84:	1d11      	adds	r1, r2, #4
10004c86:	911c      	str	r1, [sp, #112]	; 0x70
10004c88:	6811      	ldr	r1, [r2, #0]
10004c8a:	22ff      	movs	r2, #255	; 0xff
10004c8c:	400a      	ands	r2, r1
10004c8e:	17d3      	asrs	r3, r2, #31
10004c90:	18d1      	adds	r1, r2, r3
10004c92:	4059      	eors	r1, r3
10004c94:	9405      	str	r4, [sp, #20]
10004c96:	9b0a      	ldr	r3, [sp, #40]	; 0x28
10004c98:	9304      	str	r3, [sp, #16]
10004c9a:	4653      	mov	r3, sl
10004c9c:	9303      	str	r3, [sp, #12]
10004c9e:	9602      	str	r6, [sp, #8]
10004ca0:	0fd2      	lsrs	r2, r2, #31
10004ca2:	9201      	str	r2, [sp, #4]
10004ca4:	9100      	str	r1, [sp, #0]
10004ca6:	4643      	mov	r3, r8
10004ca8:	003a      	movs	r2, r7
10004caa:	4659      	mov	r1, fp
10004cac:	0028      	movs	r0, r5
10004cae:	f7ff fa45 	bl	1000413c <_ntoa_long>
10004cb2:	0007      	movs	r7, r0
10004cb4:	9b11      	ldr	r3, [sp, #68]	; 0x44
10004cb6:	3301      	adds	r3, #1
10004cb8:	9311      	str	r3, [sp, #68]	; 0x44
10004cba:	e6d3      	b.n	10004a64 <_vsnprintf+0x20>
10004cbc:	9b1c      	ldr	r3, [sp, #112]	; 0x70
10004cbe:	1dda      	adds	r2, r3, #7
10004cc0:	2107      	movs	r1, #7
10004cc2:	438a      	bics	r2, r1
10004cc4:	0011      	movs	r1, r2
10004cc6:	3108      	adds	r1, #8
10004cc8:	911c      	str	r1, [sp, #112]	; 0x70
10004cca:	6811      	ldr	r1, [r2, #0]
10004ccc:	6853      	ldr	r3, [r2, #4]
10004cce:	469c      	mov	ip, r3
10004cd0:	17db      	asrs	r3, r3, #31
10004cd2:	930c      	str	r3, [sp, #48]	; 0x30
10004cd4:	930d      	str	r3, [sp, #52]	; 0x34
10004cd6:	9a0c      	ldr	r2, [sp, #48]	; 0x30
10004cd8:	9b0d      	ldr	r3, [sp, #52]	; 0x34
10004cda:	0010      	movs	r0, r2
10004cdc:	4048      	eors	r0, r1
10004cde:	900e      	str	r0, [sp, #56]	; 0x38
10004ce0:	4662      	mov	r2, ip
10004ce2:	4053      	eors	r3, r2
10004ce4:	930f      	str	r3, [sp, #60]	; 0x3c
10004ce6:	980e      	ldr	r0, [sp, #56]	; 0x38
10004ce8:	990f      	ldr	r1, [sp, #60]	; 0x3c
10004cea:	9a0c      	ldr	r2, [sp, #48]	; 0x30
10004cec:	9b0d      	ldr	r3, [sp, #52]	; 0x34
10004cee:	1a80      	subs	r0, r0, r2
10004cf0:	4199      	sbcs	r1, r3
10004cf2:	900e      	str	r0, [sp, #56]	; 0x38
10004cf4:	910f      	str	r1, [sp, #60]	; 0x3c
10004cf6:	9408      	str	r4, [sp, #32]
10004cf8:	9b0a      	ldr	r3, [sp, #40]	; 0x28
10004cfa:	9307      	str	r3, [sp, #28]
10004cfc:	4653      	mov	r3, sl
10004cfe:	9306      	str	r3, [sp, #24]
10004d00:	9604      	str	r6, [sp, #16]
10004d02:	2300      	movs	r3, #0
10004d04:	9305      	str	r3, [sp, #20]
10004d06:	4663      	mov	r3, ip
10004d08:	0fda      	lsrs	r2, r3, #31
10004d0a:	9202      	str	r2, [sp, #8]
10004d0c:	9000      	str	r0, [sp, #0]
10004d0e:	9101      	str	r1, [sp, #4]
10004d10:	4643      	mov	r3, r8
10004d12:	003a      	movs	r2, r7
10004d14:	4659      	mov	r1, fp
10004d16:	0028      	movs	r0, r5
10004d18:	f7ff fa6e 	bl	100041f8 <_ntoa_long_long>
10004d1c:	0007      	movs	r7, r0
10004d1e:	e7c9      	b.n	10004cb4 <_vsnprintf+0x270>
10004d20:	9a1c      	ldr	r2, [sp, #112]	; 0x70
10004d22:	1d11      	adds	r1, r2, #4
10004d24:	911c      	str	r1, [sp, #112]	; 0x70
10004d26:	6812      	ldr	r2, [r2, #0]
10004d28:	17d3      	asrs	r3, r2, #31
10004d2a:	18d1      	adds	r1, r2, r3
10004d2c:	4059      	eors	r1, r3
10004d2e:	9405      	str	r4, [sp, #20]
10004d30:	9b0a      	ldr	r3, [sp, #40]	; 0x28
10004d32:	9304      	str	r3, [sp, #16]
10004d34:	4653      	mov	r3, sl
10004d36:	9303      	str	r3, [sp, #12]
10004d38:	9602      	str	r6, [sp, #8]
10004d3a:	0fd2      	lsrs	r2, r2, #31
10004d3c:	9201      	str	r2, [sp, #4]
10004d3e:	9100      	str	r1, [sp, #0]
10004d40:	4643      	mov	r3, r8
10004d42:	003a      	movs	r2, r7
10004d44:	4659      	mov	r1, fp
10004d46:	0028      	movs	r0, r5
10004d48:	f7ff f9f8 	bl	1000413c <_ntoa_long>
10004d4c:	0007      	movs	r7, r0
10004d4e:	e7b1      	b.n	10004cb4 <_vsnprintf+0x270>
10004d50:	0623      	lsls	r3, r4, #24
10004d52:	d505      	bpl.n	10004d60 <_vsnprintf+0x31c>
10004d54:	9a1c      	ldr	r2, [sp, #112]	; 0x70
10004d56:	1d11      	adds	r1, r2, #4
10004d58:	911c      	str	r1, [sp, #112]	; 0x70
10004d5a:	2300      	movs	r3, #0
10004d5c:	5ed2      	ldrsh	r2, [r2, r3]
10004d5e:	e796      	b.n	10004c8e <_vsnprintf+0x24a>
10004d60:	9a1c      	ldr	r2, [sp, #112]	; 0x70
10004d62:	1d11      	adds	r1, r2, #4
10004d64:	911c      	str	r1, [sp, #112]	; 0x70
10004d66:	6812      	ldr	r2, [r2, #0]
10004d68:	e791      	b.n	10004c8e <_vsnprintf+0x24a>
10004d6a:	9b1c      	ldr	r3, [sp, #112]	; 0x70
10004d6c:	1dda      	adds	r2, r3, #7
10004d6e:	2107      	movs	r1, #7
10004d70:	438a      	bics	r2, r1
10004d72:	0011      	movs	r1, r2
10004d74:	3108      	adds	r1, #8
10004d76:	911c      	str	r1, [sp, #112]	; 0x70
10004d78:	9408      	str	r4, [sp, #32]
10004d7a:	9b0a      	ldr	r3, [sp, #40]	; 0x28
10004d7c:	9307      	str	r3, [sp, #28]
10004d7e:	4653      	mov	r3, sl
10004d80:	9306      	str	r3, [sp, #24]
10004d82:	9604      	str	r6, [sp, #16]
10004d84:	2300      	movs	r3, #0
10004d86:	9305      	str	r3, [sp, #20]
10004d88:	9302      	str	r3, [sp, #8]
10004d8a:	6813      	ldr	r3, [r2, #0]
10004d8c:	6854      	ldr	r4, [r2, #4]
10004d8e:	9300      	str	r3, [sp, #0]
10004d90:	9401      	str	r4, [sp, #4]
10004d92:	4643      	mov	r3, r8
10004d94:	003a      	movs	r2, r7
10004d96:	4659      	mov	r1, fp
10004d98:	0028      	movs	r0, r5
10004d9a:	f7ff fa2d 	bl	100041f8 <_ntoa_long_long>
10004d9e:	0007      	movs	r7, r0
10004da0:	e788      	b.n	10004cb4 <_vsnprintf+0x270>
10004da2:	9a1c      	ldr	r2, [sp, #112]	; 0x70
10004da4:	1d11      	adds	r1, r2, #4
10004da6:	911c      	str	r1, [sp, #112]	; 0x70
10004da8:	9405      	str	r4, [sp, #20]
10004daa:	9b0a      	ldr	r3, [sp, #40]	; 0x28
10004dac:	9304      	str	r3, [sp, #16]
10004dae:	4653      	mov	r3, sl
10004db0:	9303      	str	r3, [sp, #12]
10004db2:	9602      	str	r6, [sp, #8]
10004db4:	2300      	movs	r3, #0
10004db6:	9301      	str	r3, [sp, #4]
10004db8:	6813      	ldr	r3, [r2, #0]
10004dba:	9300      	str	r3, [sp, #0]
10004dbc:	4643      	mov	r3, r8
10004dbe:	003a      	movs	r2, r7
10004dc0:	4659      	mov	r1, fp
10004dc2:	0028      	movs	r0, r5
10004dc4:	f7ff f9ba 	bl	1000413c <_ntoa_long>
10004dc8:	0007      	movs	r7, r0
10004dca:	e773      	b.n	10004cb4 <_vsnprintf+0x270>
10004dcc:	0623      	lsls	r3, r4, #24
10004dce:	d50d      	bpl.n	10004dec <_vsnprintf+0x3a8>
10004dd0:	9a1c      	ldr	r2, [sp, #112]	; 0x70
10004dd2:	1d11      	adds	r1, r2, #4
10004dd4:	911c      	str	r1, [sp, #112]	; 0x70
10004dd6:	6812      	ldr	r2, [r2, #0]
10004dd8:	0412      	lsls	r2, r2, #16
10004dda:	0c12      	lsrs	r2, r2, #16
10004ddc:	e731      	b.n	10004c42 <_vsnprintf+0x1fe>
10004dde:	46c0      	nop			; (mov r8, r8)
10004de0:	100078e0 	.word	0x100078e0
10004de4:	10007924 	.word	0x10007924
10004de8:	10007970 	.word	0x10007970
10004dec:	9a1c      	ldr	r2, [sp, #112]	; 0x70
10004dee:	1d11      	adds	r1, r2, #4
10004df0:	911c      	str	r1, [sp, #112]	; 0x70
10004df2:	6812      	ldr	r2, [r2, #0]
10004df4:	e725      	b.n	10004c42 <_vsnprintf+0x1fe>
10004df6:	2846      	cmp	r0, #70	; 0x46
10004df8:	d01a      	beq.n	10004e30 <_vsnprintf+0x3ec>
10004dfa:	9b1c      	ldr	r3, [sp, #112]	; 0x70
10004dfc:	3307      	adds	r3, #7
10004dfe:	2207      	movs	r2, #7
10004e00:	4393      	bics	r3, r2
10004e02:	001a      	movs	r2, r3
10004e04:	3208      	adds	r2, #8
10004e06:	921c      	str	r2, [sp, #112]	; 0x70
10004e08:	9404      	str	r4, [sp, #16]
10004e0a:	9a0a      	ldr	r2, [sp, #40]	; 0x28
10004e0c:	9203      	str	r2, [sp, #12]
10004e0e:	4652      	mov	r2, sl
10004e10:	9202      	str	r2, [sp, #8]
10004e12:	685c      	ldr	r4, [r3, #4]
10004e14:	681b      	ldr	r3, [r3, #0]
10004e16:	9300      	str	r3, [sp, #0]
10004e18:	9401      	str	r4, [sp, #4]
10004e1a:	4643      	mov	r3, r8
10004e1c:	003a      	movs	r2, r7
10004e1e:	4659      	mov	r1, fp
10004e20:	0028      	movs	r0, r5
10004e22:	f7ff fc65 	bl	100046f0 <_ftoa>
10004e26:	0007      	movs	r7, r0
10004e28:	9b11      	ldr	r3, [sp, #68]	; 0x44
10004e2a:	3301      	adds	r3, #1
10004e2c:	9311      	str	r3, [sp, #68]	; 0x44
10004e2e:	e619      	b.n	10004a64 <_vsnprintf+0x20>
10004e30:	2320      	movs	r3, #32
10004e32:	431c      	orrs	r4, r3
10004e34:	e7e1      	b.n	10004dfa <_vsnprintf+0x3b6>
10004e36:	2867      	cmp	r0, #103	; 0x67
10004e38:	d001      	beq.n	10004e3e <_vsnprintf+0x3fa>
10004e3a:	2847      	cmp	r0, #71	; 0x47
10004e3c:	d102      	bne.n	10004e44 <_vsnprintf+0x400>
10004e3e:	2380      	movs	r3, #128	; 0x80
10004e40:	011b      	lsls	r3, r3, #4
10004e42:	431c      	orrs	r4, r3
10004e44:	2845      	cmp	r0, #69	; 0x45
10004e46:	d001      	beq.n	10004e4c <_vsnprintf+0x408>
10004e48:	2847      	cmp	r0, #71	; 0x47
10004e4a:	d101      	bne.n	10004e50 <_vsnprintf+0x40c>
10004e4c:	2320      	movs	r3, #32
10004e4e:	431c      	orrs	r4, r3
10004e50:	9b1c      	ldr	r3, [sp, #112]	; 0x70
10004e52:	3307      	adds	r3, #7
10004e54:	2207      	movs	r2, #7
10004e56:	4393      	bics	r3, r2
10004e58:	001a      	movs	r2, r3
10004e5a:	3208      	adds	r2, #8
10004e5c:	921c      	str	r2, [sp, #112]	; 0x70
10004e5e:	9404      	str	r4, [sp, #16]
10004e60:	9a0a      	ldr	r2, [sp, #40]	; 0x28
10004e62:	9203      	str	r2, [sp, #12]
10004e64:	4652      	mov	r2, sl
10004e66:	9202      	str	r2, [sp, #8]
10004e68:	685c      	ldr	r4, [r3, #4]
10004e6a:	681b      	ldr	r3, [r3, #0]
10004e6c:	9300      	str	r3, [sp, #0]
10004e6e:	9401      	str	r4, [sp, #4]
10004e70:	4643      	mov	r3, r8
10004e72:	003a      	movs	r2, r7
10004e74:	4659      	mov	r1, fp
10004e76:	0028      	movs	r0, r5
10004e78:	f7ff fa30 	bl	100042dc <_etoa>
10004e7c:	0007      	movs	r7, r0
10004e7e:	9b11      	ldr	r3, [sp, #68]	; 0x44
10004e80:	3301      	adds	r3, #1
10004e82:	9311      	str	r3, [sp, #68]	; 0x44
10004e84:	e5ee      	b.n	10004a64 <_vsnprintf+0x20>
10004e86:	2302      	movs	r3, #2
10004e88:	001a      	movs	r2, r3
10004e8a:	4022      	ands	r2, r4
10004e8c:	4692      	mov	sl, r2
10004e8e:	4223      	tst	r3, r4
10004e90:	d01f      	beq.n	10004ed2 <_vsnprintf+0x48e>
10004e92:	2401      	movs	r4, #1
10004e94:	9b1c      	ldr	r3, [sp, #112]	; 0x70
10004e96:	1d1a      	adds	r2, r3, #4
10004e98:	921c      	str	r2, [sp, #112]	; 0x70
10004e9a:	1c7a      	adds	r2, r7, #1
10004e9c:	4691      	mov	r9, r2
10004e9e:	7818      	ldrb	r0, [r3, #0]
10004ea0:	4643      	mov	r3, r8
10004ea2:	003a      	movs	r2, r7
10004ea4:	4659      	mov	r1, fp
10004ea6:	47a8      	blx	r5
10004ea8:	4653      	mov	r3, sl
10004eaa:	2b00      	cmp	r3, #0
10004eac:	d116      	bne.n	10004edc <_vsnprintf+0x498>
10004eae:	9b11      	ldr	r3, [sp, #68]	; 0x44
10004eb0:	3301      	adds	r3, #1
10004eb2:	9311      	str	r3, [sp, #68]	; 0x44
10004eb4:	464f      	mov	r7, r9
10004eb6:	e5d5      	b.n	10004a64 <_vsnprintf+0x20>
10004eb8:	1c56      	adds	r6, r2, #1
10004eba:	4643      	mov	r3, r8
10004ebc:	4659      	mov	r1, fp
10004ebe:	2020      	movs	r0, #32
10004ec0:	47b8      	blx	r7
10004ec2:	0023      	movs	r3, r4
10004ec4:	0032      	movs	r2, r6
10004ec6:	1c5c      	adds	r4, r3, #1
10004ec8:	429d      	cmp	r5, r3
10004eca:	d8f5      	bhi.n	10004eb8 <_vsnprintf+0x474>
10004ecc:	003d      	movs	r5, r7
10004ece:	0017      	movs	r7, r2
10004ed0:	e7e0      	b.n	10004e94 <_vsnprintf+0x450>
10004ed2:	2301      	movs	r3, #1
10004ed4:	003a      	movs	r2, r7
10004ed6:	002f      	movs	r7, r5
10004ed8:	9d0a      	ldr	r5, [sp, #40]	; 0x28
10004eda:	e7f4      	b.n	10004ec6 <_vsnprintf+0x482>
10004edc:	464a      	mov	r2, r9
10004ede:	46a9      	mov	r9, r5
10004ee0:	9d0a      	ldr	r5, [sp, #40]	; 0x28
10004ee2:	e006      	b.n	10004ef2 <_vsnprintf+0x4ae>
10004ee4:	1c57      	adds	r7, r2, #1
10004ee6:	4643      	mov	r3, r8
10004ee8:	4659      	mov	r1, fp
10004eea:	2020      	movs	r0, #32
10004eec:	47c8      	blx	r9
10004eee:	0034      	movs	r4, r6
10004ef0:	003a      	movs	r2, r7
10004ef2:	1c66      	adds	r6, r4, #1
10004ef4:	42a5      	cmp	r5, r4
10004ef6:	d8f5      	bhi.n	10004ee4 <_vsnprintf+0x4a0>
10004ef8:	464d      	mov	r5, r9
10004efa:	4691      	mov	r9, r2
10004efc:	e7d7      	b.n	10004eae <_vsnprintf+0x46a>
10004efe:	9b1c      	ldr	r3, [sp, #112]	; 0x70
10004f00:	1d1a      	adds	r2, r3, #4
10004f02:	921c      	str	r2, [sp, #112]	; 0x70
10004f04:	681b      	ldr	r3, [r3, #0]
10004f06:	4699      	mov	r9, r3
10004f08:	4653      	mov	r3, sl
10004f0a:	2b00      	cmp	r3, #0
10004f0c:	d100      	bne.n	10004f10 <_vsnprintf+0x4cc>
10004f0e:	3b01      	subs	r3, #1
10004f10:	464e      	mov	r6, r9
10004f12:	e001      	b.n	10004f18 <_vsnprintf+0x4d4>
10004f14:	3601      	adds	r6, #1
10004f16:	0013      	movs	r3, r2
10004f18:	7832      	ldrb	r2, [r6, #0]
10004f1a:	2a00      	cmp	r2, #0
10004f1c:	d002      	beq.n	10004f24 <_vsnprintf+0x4e0>
10004f1e:	1e5a      	subs	r2, r3, #1
10004f20:	2b00      	cmp	r3, #0
10004f22:	d1f7      	bne.n	10004f14 <_vsnprintf+0x4d0>
10004f24:	464b      	mov	r3, r9
10004f26:	1af2      	subs	r2, r6, r3
10004f28:	9210      	str	r2, [sp, #64]	; 0x40
10004f2a:	2380      	movs	r3, #128	; 0x80
10004f2c:	00db      	lsls	r3, r3, #3
10004f2e:	0026      	movs	r6, r4
10004f30:	401e      	ands	r6, r3
10004f32:	421c      	tst	r4, r3
10004f34:	d003      	beq.n	10004f3e <_vsnprintf+0x4fa>
10004f36:	4552      	cmp	r2, sl
10004f38:	d901      	bls.n	10004f3e <_vsnprintf+0x4fa>
10004f3a:	4653      	mov	r3, sl
10004f3c:	9310      	str	r3, [sp, #64]	; 0x40
10004f3e:	2302      	movs	r3, #2
10004f40:	001a      	movs	r2, r3
10004f42:	4022      	ands	r2, r4
10004f44:	920b      	str	r2, [sp, #44]	; 0x2c
10004f46:	4223      	tst	r3, r4
10004f48:	d005      	beq.n	10004f56 <_vsnprintf+0x512>
10004f4a:	003a      	movs	r2, r7
10004f4c:	0037      	movs	r7, r6
10004f4e:	464c      	mov	r4, r9
10004f50:	46a9      	mov	r9, r5
10004f52:	4655      	mov	r5, sl
10004f54:	e020      	b.n	10004f98 <_vsnprintf+0x554>
10004f56:	003a      	movs	r2, r7
10004f58:	9b10      	ldr	r3, [sp, #64]	; 0x40
10004f5a:	465f      	mov	r7, fp
10004f5c:	46b3      	mov	fp, r6
10004f5e:	002e      	movs	r6, r5
10004f60:	e006      	b.n	10004f70 <_vsnprintf+0x52c>
10004f62:	1c55      	adds	r5, r2, #1
10004f64:	4643      	mov	r3, r8
10004f66:	0039      	movs	r1, r7
10004f68:	2020      	movs	r0, #32
10004f6a:	47b0      	blx	r6
10004f6c:	0023      	movs	r3, r4
10004f6e:	002a      	movs	r2, r5
10004f70:	1c5c      	adds	r4, r3, #1
10004f72:	990a      	ldr	r1, [sp, #40]	; 0x28
10004f74:	4299      	cmp	r1, r3
10004f76:	d8f4      	bhi.n	10004f62 <_vsnprintf+0x51e>
10004f78:	0035      	movs	r5, r6
10004f7a:	465e      	mov	r6, fp
10004f7c:	46bb      	mov	fp, r7
10004f7e:	9410      	str	r4, [sp, #64]	; 0x40
10004f80:	0037      	movs	r7, r6
10004f82:	464c      	mov	r4, r9
10004f84:	46a9      	mov	r9, r5
10004f86:	4655      	mov	r5, sl
10004f88:	e006      	b.n	10004f98 <_vsnprintf+0x554>
10004f8a:	001d      	movs	r5, r3
10004f8c:	3401      	adds	r4, #1
10004f8e:	1c56      	adds	r6, r2, #1
10004f90:	4643      	mov	r3, r8
10004f92:	4659      	mov	r1, fp
10004f94:	47c8      	blx	r9
10004f96:	0032      	movs	r2, r6
10004f98:	7820      	ldrb	r0, [r4, #0]
10004f9a:	2800      	cmp	r0, #0
10004f9c:	d004      	beq.n	10004fa8 <_vsnprintf+0x564>
10004f9e:	2f00      	cmp	r7, #0
10004fa0:	d0f4      	beq.n	10004f8c <_vsnprintf+0x548>
10004fa2:	1e6b      	subs	r3, r5, #1
10004fa4:	2d00      	cmp	r5, #0
10004fa6:	d1f0      	bne.n	10004f8a <_vsnprintf+0x546>
10004fa8:	0017      	movs	r7, r2
10004faa:	464d      	mov	r5, r9
10004fac:	9b0b      	ldr	r3, [sp, #44]	; 0x2c
10004fae:	2b00      	cmp	r3, #0
10004fb0:	d103      	bne.n	10004fba <_vsnprintf+0x576>
10004fb2:	9b11      	ldr	r3, [sp, #68]	; 0x44
10004fb4:	3301      	adds	r3, #1
10004fb6:	9311      	str	r3, [sp, #68]	; 0x44
10004fb8:	e554      	b.n	10004a64 <_vsnprintf+0x20>
10004fba:	9f0a      	ldr	r7, [sp, #40]	; 0x28
10004fbc:	9b10      	ldr	r3, [sp, #64]	; 0x40
10004fbe:	e006      	b.n	10004fce <_vsnprintf+0x58a>
10004fc0:	1c56      	adds	r6, r2, #1
10004fc2:	4643      	mov	r3, r8
10004fc4:	4659      	mov	r1, fp
10004fc6:	2020      	movs	r0, #32
10004fc8:	47a8      	blx	r5
10004fca:	0023      	movs	r3, r4
10004fcc:	0032      	movs	r2, r6
10004fce:	1c5c      	adds	r4, r3, #1
10004fd0:	429f      	cmp	r7, r3
10004fd2:	d8f5      	bhi.n	10004fc0 <_vsnprintf+0x57c>
10004fd4:	0017      	movs	r7, r2
10004fd6:	e7ec      	b.n	10004fb2 <_vsnprintf+0x56e>
10004fd8:	2321      	movs	r3, #33	; 0x21
10004fda:	431c      	orrs	r4, r3
10004fdc:	9b1c      	ldr	r3, [sp, #112]	; 0x70
10004fde:	1d1a      	adds	r2, r3, #4
10004fe0:	921c      	str	r2, [sp, #112]	; 0x70
10004fe2:	681b      	ldr	r3, [r3, #0]
10004fe4:	9300      	str	r3, [sp, #0]
10004fe6:	9405      	str	r4, [sp, #20]
10004fe8:	2308      	movs	r3, #8
10004fea:	9304      	str	r3, [sp, #16]
10004fec:	4653      	mov	r3, sl
10004fee:	9303      	str	r3, [sp, #12]
10004ff0:	2310      	movs	r3, #16
10004ff2:	9302      	str	r3, [sp, #8]
10004ff4:	2300      	movs	r3, #0
10004ff6:	9301      	str	r3, [sp, #4]
10004ff8:	4643      	mov	r3, r8
10004ffa:	003a      	movs	r2, r7
10004ffc:	4659      	mov	r1, fp
10004ffe:	0028      	movs	r0, r5
10005000:	f7ff f89c 	bl	1000413c <_ntoa_long>
10005004:	0007      	movs	r7, r0
10005006:	9b11      	ldr	r3, [sp, #68]	; 0x44
10005008:	3301      	adds	r3, #1
1000500a:	9311      	str	r3, [sp, #68]	; 0x44
1000500c:	e52a      	b.n	10004a64 <_vsnprintf+0x20>
1000500e:	1c7c      	adds	r4, r7, #1
10005010:	4643      	mov	r3, r8
10005012:	003a      	movs	r2, r7
10005014:	4659      	mov	r1, fp
10005016:	2025      	movs	r0, #37	; 0x25
10005018:	47a8      	blx	r5
1000501a:	9b11      	ldr	r3, [sp, #68]	; 0x44
1000501c:	3301      	adds	r3, #1
1000501e:	9311      	str	r3, [sp, #68]	; 0x44
10005020:	0027      	movs	r7, r4
10005022:	e51f      	b.n	10004a64 <_vsnprintf+0x20>
10005024:	1c7c      	adds	r4, r7, #1
10005026:	4643      	mov	r3, r8
10005028:	003a      	movs	r2, r7
1000502a:	4659      	mov	r1, fp
1000502c:	47a8      	blx	r5
1000502e:	9b11      	ldr	r3, [sp, #68]	; 0x44
10005030:	3301      	adds	r3, #1
10005032:	9311      	str	r3, [sp, #68]	; 0x44
10005034:	0027      	movs	r7, r4
10005036:	e515      	b.n	10004a64 <_vsnprintf+0x20>
10005038:	4b0a      	ldr	r3, [pc, #40]	; (10005064 <_vsnprintf+0x620>)
1000503a:	469a      	mov	sl, r3
1000503c:	e510      	b.n	10004a60 <_vsnprintf+0x1c>
1000503e:	46aa      	mov	sl, r5
10005040:	4547      	cmp	r7, r8
10005042:	d302      	bcc.n	1000504a <_vsnprintf+0x606>
10005044:	4643      	mov	r3, r8
10005046:	1e5a      	subs	r2, r3, #1
10005048:	e000      	b.n	1000504c <_vsnprintf+0x608>
1000504a:	003a      	movs	r2, r7
1000504c:	4643      	mov	r3, r8
1000504e:	4659      	mov	r1, fp
10005050:	2000      	movs	r0, #0
10005052:	47d0      	blx	sl
10005054:	0038      	movs	r0, r7
10005056:	b013      	add	sp, #76	; 0x4c
10005058:	bcf0      	pop	{r4, r5, r6, r7}
1000505a:	46bb      	mov	fp, r7
1000505c:	46b2      	mov	sl, r6
1000505e:	46a9      	mov	r9, r5
10005060:	46a0      	mov	r8, r4
10005062:	bdf0      	pop	{r4, r5, r6, r7, pc}
10005064:	10003f49 	.word	0x10003f49

10005068 <vfctprintf>:
10005068:	b500      	push	{lr}
1000506a:	b085      	sub	sp, #20
1000506c:	9002      	str	r0, [sp, #8]
1000506e:	9103      	str	r1, [sp, #12]
10005070:	2101      	movs	r1, #1
10005072:	9300      	str	r3, [sp, #0]
10005074:	0013      	movs	r3, r2
10005076:	424a      	negs	r2, r1
10005078:	a902      	add	r1, sp, #8
1000507a:	4802      	ldr	r0, [pc, #8]	; (10005084 <vfctprintf+0x1c>)
1000507c:	f7ff fce2 	bl	10004a44 <_vsnprintf>
10005080:	b005      	add	sp, #20
10005082:	bd00      	pop	{pc}
10005084:	10003f4b 	.word	0x10003f4b

10005088 <__aeabi_bits_init>:
10005088:	4801      	ldr	r0, [pc, #4]	; (10005090 <__aeabi_bits_init+0x8>)
1000508a:	2104      	movs	r1, #4
1000508c:	4b01      	ldr	r3, [pc, #4]	; (10005094 <__aeabi_bits_init+0xc>)
1000508e:	4718      	bx	r3
10005090:	20000250 	.word	0x20000250
10005094:	100050b9 	.word	0x100050b9

10005098 <rom_func_lookup>:
10005098:	b510      	push	{r4, lr}
1000509a:	0001      	movs	r1, r0
1000509c:	2318      	movs	r3, #24
1000509e:	881b      	ldrh	r3, [r3, #0]
100050a0:	2214      	movs	r2, #20
100050a2:	8810      	ldrh	r0, [r2, #0]
100050a4:	4798      	blx	r3
100050a6:	bd10      	pop	{r4, pc}

100050a8 <rom_data_lookup>:
100050a8:	b510      	push	{r4, lr}
100050aa:	0001      	movs	r1, r0
100050ac:	2318      	movs	r3, #24
100050ae:	881b      	ldrh	r3, [r3, #0]
100050b0:	2216      	movs	r2, #22
100050b2:	8810      	ldrh	r0, [r2, #0]
100050b4:	4798      	blx	r3
100050b6:	bd10      	pop	{r4, pc}

100050b8 <rom_funcs_lookup>:
100050b8:	b5f0      	push	{r4, r5, r6, r7, lr}
100050ba:	46c6      	mov	lr, r8
100050bc:	b500      	push	{lr}
100050be:	0007      	movs	r7, r0
100050c0:	000e      	movs	r6, r1
100050c2:	2500      	movs	r5, #0
100050c4:	2301      	movs	r3, #1
100050c6:	4698      	mov	r8, r3
100050c8:	e000      	b.n	100050cc <rom_funcs_lookup+0x14>
100050ca:	3501      	adds	r5, #1
100050cc:	42b5      	cmp	r5, r6
100050ce:	d20a      	bcs.n	100050e6 <rom_funcs_lookup+0x2e>
100050d0:	00ac      	lsls	r4, r5, #2
100050d2:	193c      	adds	r4, r7, r4
100050d4:	6820      	ldr	r0, [r4, #0]
100050d6:	f7ff ffdf 	bl	10005098 <rom_func_lookup>
100050da:	6020      	str	r0, [r4, #0]
100050dc:	2800      	cmp	r0, #0
100050de:	d1f4      	bne.n	100050ca <rom_funcs_lookup+0x12>
100050e0:	2300      	movs	r3, #0
100050e2:	4698      	mov	r8, r3
100050e4:	e7f1      	b.n	100050ca <rom_funcs_lookup+0x12>
100050e6:	4640      	mov	r0, r8
100050e8:	bc80      	pop	{r7}
100050ea:	46b8      	mov	r8, r7
100050ec:	bdf0      	pop	{r4, r5, r6, r7, pc}
	...

100050f0 <__wrap___aeabi_idiv>:
100050f0:	4a12      	ldr	r2, [pc, #72]	; (1000513c <divmod_s32s32_savestate+0x18>)
100050f2:	6f93      	ldr	r3, [r2, #120]	; 0x78
100050f4:	089b      	lsrs	r3, r3, #2
100050f6:	d215      	bcs.n	10005124 <divmod_s32s32_savestate>

100050f8 <divmod_s32s32_unsafe>:
100050f8:	6690      	str	r0, [r2, #104]	; 0x68
100050fa:	66d1      	str	r1, [r2, #108]	; 0x6c
100050fc:	2900      	cmp	r1, #0
100050fe:	d005      	beq.n	1000510c <divmod_s32s32_unsafe+0x14>
10005100:	e7ff      	b.n	10005102 <divmod_s32s32_unsafe+0xa>
10005102:	e7ff      	b.n	10005104 <divmod_s32s32_unsafe+0xc>
10005104:	e7ff      	b.n	10005106 <divmod_s32s32_unsafe+0xe>
10005106:	6f51      	ldr	r1, [r2, #116]	; 0x74
10005108:	6f10      	ldr	r0, [r2, #112]	; 0x70
1000510a:	4770      	bx	lr
1000510c:	b504      	push	{r2, lr}
1000510e:	2180      	movs	r1, #128	; 0x80
10005110:	0609      	lsls	r1, r1, #24
10005112:	17c2      	asrs	r2, r0, #31
10005114:	4051      	eors	r1, r2
10005116:	2800      	cmp	r0, #0
10005118:	d000      	beq.n	1000511c <divmod_s32s32_unsafe+0x24>
1000511a:	43c8      	mvns	r0, r1
1000511c:	f001 f900 	bl	10006320 <____aeabi_idiv0_veneer>
10005120:	2100      	movs	r1, #0
10005122:	bd04      	pop	{r2, pc}

10005124 <divmod_s32s32_savestate>:
10005124:	b5f0      	push	{r4, r5, r6, r7, lr}
10005126:	6e14      	ldr	r4, [r2, #96]	; 0x60
10005128:	6e55      	ldr	r5, [r2, #100]	; 0x64
1000512a:	6f57      	ldr	r7, [r2, #116]	; 0x74
1000512c:	6f16      	ldr	r6, [r2, #112]	; 0x70
1000512e:	f7ff ffe3 	bl	100050f8 <divmod_s32s32_unsafe>
10005132:	6614      	str	r4, [r2, #96]	; 0x60
10005134:	6655      	str	r5, [r2, #100]	; 0x64
10005136:	6757      	str	r7, [r2, #116]	; 0x74
10005138:	6716      	str	r6, [r2, #112]	; 0x70
1000513a:	bdf0      	pop	{r4, r5, r6, r7, pc}
1000513c:	d0000000 	.word	0xd0000000

10005140 <__wrap___aeabi_uidiv>:
10005140:	4a11      	ldr	r2, [pc, #68]	; (10005188 <divmod_u32u32_savestate+0x18>)
10005142:	6f93      	ldr	r3, [r2, #120]	; 0x78
10005144:	089b      	lsrs	r3, r3, #2
10005146:	d213      	bcs.n	10005170 <divmod_u32u32_savestate>

10005148 <divmod_u32u32_unsafe>:
10005148:	6610      	str	r0, [r2, #96]	; 0x60
1000514a:	6651      	str	r1, [r2, #100]	; 0x64
1000514c:	2900      	cmp	r1, #0
1000514e:	d005      	beq.n	1000515c <divmod_u32u32_unsafe+0x14>
10005150:	e7ff      	b.n	10005152 <divmod_u32u32_unsafe+0xa>
10005152:	e7ff      	b.n	10005154 <divmod_u32u32_unsafe+0xc>
10005154:	e7ff      	b.n	10005156 <divmod_u32u32_unsafe+0xe>
10005156:	6f51      	ldr	r1, [r2, #116]	; 0x74
10005158:	6f10      	ldr	r0, [r2, #112]	; 0x70
1000515a:	4770      	bx	lr
1000515c:	b504      	push	{r2, lr}
1000515e:	2800      	cmp	r0, #0
10005160:	d001      	beq.n	10005166 <divmod_u32u32_unsafe+0x1e>
10005162:	2000      	movs	r0, #0
10005164:	43c0      	mvns	r0, r0
10005166:	f001 f8db 	bl	10006320 <____aeabi_idiv0_veneer>
1000516a:	2100      	movs	r1, #0
1000516c:	bd04      	pop	{r2, pc}
1000516e:	46c0      	nop			; (mov r8, r8)

10005170 <divmod_u32u32_savestate>:
10005170:	b5f0      	push	{r4, r5, r6, r7, lr}
10005172:	6e14      	ldr	r4, [r2, #96]	; 0x60
10005174:	6e55      	ldr	r5, [r2, #100]	; 0x64
10005176:	6f57      	ldr	r7, [r2, #116]	; 0x74
10005178:	6f16      	ldr	r6, [r2, #112]	; 0x70
1000517a:	f7ff ffe5 	bl	10005148 <divmod_u32u32_unsafe>
1000517e:	6614      	str	r4, [r2, #96]	; 0x60
10005180:	6655      	str	r5, [r2, #100]	; 0x64
10005182:	6757      	str	r7, [r2, #116]	; 0x74
10005184:	6716      	str	r6, [r2, #112]	; 0x70
10005186:	bdf0      	pop	{r4, r5, r6, r7, pc}
10005188:	d0000000 	.word	0xd0000000

1000518c <__wrap___aeabi_ldivmod>:
1000518c:	4694      	mov	ip, r2
1000518e:	4a4e      	ldr	r2, [pc, #312]	; (100052c8 <udiv0+0x1a>)
10005190:	6f92      	ldr	r2, [r2, #120]	; 0x78
10005192:	0892      	lsrs	r2, r2, #2
10005194:	4662      	mov	r2, ip
10005196:	d201      	bcs.n	1000519c <divmod_s64s64_savestate>
10005198:	e030      	b.n	100051fc <divmod_s64s64_unsafe>
1000519a:	46c0      	nop			; (mov r8, r8)

1000519c <divmod_s64s64_savestate>:
1000519c:	b5f0      	push	{r4, r5, r6, r7, lr}
1000519e:	4e4a      	ldr	r6, [pc, #296]	; (100052c8 <udiv0+0x1a>)
100051a0:	6fb5      	ldr	r5, [r6, #120]	; 0x78
100051a2:	086d      	lsrs	r5, r5, #1
100051a4:	d3fc      	bcc.n	100051a0 <divmod_s64s64_savestate+0x4>
100051a6:	6e34      	ldr	r4, [r6, #96]	; 0x60
100051a8:	6e75      	ldr	r5, [r6, #100]	; 0x64
100051aa:	6f77      	ldr	r7, [r6, #116]	; 0x74
100051ac:	6f36      	ldr	r6, [r6, #112]	; 0x70
100051ae:	f000 f825 	bl	100051fc <divmod_s64s64_unsafe>
100051b2:	4694      	mov	ip, r2
100051b4:	4a44      	ldr	r2, [pc, #272]	; (100052c8 <udiv0+0x1a>)
100051b6:	6614      	str	r4, [r2, #96]	; 0x60
100051b8:	6655      	str	r5, [r2, #100]	; 0x64
100051ba:	6757      	str	r7, [r2, #116]	; 0x74
100051bc:	6716      	str	r6, [r2, #112]	; 0x70
100051be:	4662      	mov	r2, ip
100051c0:	bdf0      	pop	{r4, r5, r6, r7, pc}
100051c2:	46c0      	nop			; (mov r8, r8)

100051c4 <__wrap___aeabi_uldivmod>:
100051c4:	4694      	mov	ip, r2
100051c6:	4a40      	ldr	r2, [pc, #256]	; (100052c8 <udiv0+0x1a>)
100051c8:	6f92      	ldr	r2, [r2, #120]	; 0x78
100051ca:	0892      	lsrs	r2, r2, #2
100051cc:	4662      	mov	r2, ip
100051ce:	d201      	bcs.n	100051d4 <divmod_u64u64_savestate>
100051d0:	e058      	b.n	10005284 <divmod_u64u64_unsafe>
100051d2:	46c0      	nop			; (mov r8, r8)

100051d4 <divmod_u64u64_savestate>:
100051d4:	b5f0      	push	{r4, r5, r6, r7, lr}
100051d6:	4e3c      	ldr	r6, [pc, #240]	; (100052c8 <udiv0+0x1a>)
100051d8:	6fb5      	ldr	r5, [r6, #120]	; 0x78
100051da:	086d      	lsrs	r5, r5, #1
100051dc:	d3fc      	bcc.n	100051d8 <divmod_u64u64_savestate+0x4>
100051de:	6e34      	ldr	r4, [r6, #96]	; 0x60
100051e0:	6e75      	ldr	r5, [r6, #100]	; 0x64
100051e2:	6f77      	ldr	r7, [r6, #116]	; 0x74
100051e4:	6f36      	ldr	r6, [r6, #112]	; 0x70
100051e6:	f000 f84d 	bl	10005284 <divmod_u64u64_unsafe>
100051ea:	4694      	mov	ip, r2
100051ec:	4a36      	ldr	r2, [pc, #216]	; (100052c8 <udiv0+0x1a>)
100051ee:	6614      	str	r4, [r2, #96]	; 0x60
100051f0:	6655      	str	r5, [r2, #100]	; 0x64
100051f2:	6757      	str	r7, [r2, #116]	; 0x74
100051f4:	6716      	str	r6, [r2, #112]	; 0x70
100051f6:	4662      	mov	r2, ip
100051f8:	bdf0      	pop	{r4, r5, r6, r7, pc}
100051fa:	46c0      	nop			; (mov r8, r8)

100051fc <divmod_s64s64_unsafe>:
100051fc:	2b00      	cmp	r3, #0
100051fe:	db24      	blt.n	1000524a <l41_1+0x26>
10005200:	d011      	beq.n	10005226 <l41_1+0x2>
10005202:	2900      	cmp	r1, #0
10005204:	da3e      	bge.n	10005284 <divmod_u64u64_unsafe>
10005206:	b500      	push	{lr}
10005208:	43c9      	mvns	r1, r1
1000520a:	4240      	negs	r0, r0
1000520c:	d100      	bne.n	10005210 <l39_1>
1000520e:	3101      	adds	r1, #1

10005210 <l39_1>:
10005210:	f000 f838 	bl	10005284 <divmod_u64u64_unsafe>
10005214:	43c9      	mvns	r1, r1
10005216:	4240      	negs	r0, r0
10005218:	d100      	bne.n	1000521c <l40_1>
1000521a:	3101      	adds	r1, #1

1000521c <l40_1>:
1000521c:	43db      	mvns	r3, r3
1000521e:	4252      	negs	r2, r2
10005220:	d100      	bne.n	10005224 <l41_1>
10005222:	3301      	adds	r3, #1

10005224 <l41_1>:
10005224:	bd00      	pop	{pc}
10005226:	2a00      	cmp	r2, #0
10005228:	d1eb      	bne.n	10005202 <divmod_s64s64_unsafe+0x6>
1000522a:	2800      	cmp	r0, #0
1000522c:	d101      	bne.n	10005232 <l41_1+0xe>
1000522e:	2900      	cmp	r1, #0
10005230:	d005      	beq.n	1000523e <l41_1+0x1a>
10005232:	2000      	movs	r0, #0
10005234:	0fc9      	lsrs	r1, r1, #31
10005236:	07c9      	lsls	r1, r1, #31
10005238:	d101      	bne.n	1000523e <l41_1+0x1a>
1000523a:	43c0      	mvns	r0, r0
1000523c:	0841      	lsrs	r1, r0, #1
1000523e:	b500      	push	{lr}
10005240:	f001 f866 	bl	10006310 <____aeabi_ldiv0_veneer>
10005244:	2200      	movs	r2, #0
10005246:	2300      	movs	r3, #0
10005248:	bd00      	pop	{pc}
1000524a:	b500      	push	{lr}
1000524c:	2900      	cmp	r1, #0
1000524e:	db0a      	blt.n	10005266 <l43_1+0x2>
10005250:	43db      	mvns	r3, r3
10005252:	4252      	negs	r2, r2
10005254:	d100      	bne.n	10005258 <l42_1>
10005256:	3301      	adds	r3, #1

10005258 <l42_1>:
10005258:	f000 f814 	bl	10005284 <divmod_u64u64_unsafe>
1000525c:	43c9      	mvns	r1, r1
1000525e:	4240      	negs	r0, r0
10005260:	d100      	bne.n	10005264 <l43_1>
10005262:	3101      	adds	r1, #1

10005264 <l43_1>:
10005264:	bd00      	pop	{pc}
10005266:	43c9      	mvns	r1, r1
10005268:	4240      	negs	r0, r0
1000526a:	d100      	bne.n	1000526e <l44_1>
1000526c:	3101      	adds	r1, #1

1000526e <l44_1>:
1000526e:	43db      	mvns	r3, r3
10005270:	4252      	negs	r2, r2
10005272:	d100      	bne.n	10005276 <l45_1>
10005274:	3301      	adds	r3, #1

10005276 <l45_1>:
10005276:	f000 f805 	bl	10005284 <divmod_u64u64_unsafe>
1000527a:	43db      	mvns	r3, r3
1000527c:	4252      	negs	r2, r2
1000527e:	d100      	bne.n	10005282 <l46_1>
10005280:	3301      	adds	r3, #1

10005282 <l46_1>:
10005282:	bd00      	pop	{pc}

10005284 <divmod_u64u64_unsafe>:
10005284:	2900      	cmp	r1, #0
10005286:	d123      	bne.n	100052d0 <y64>
10005288:	2b00      	cmp	r3, #0
1000528a:	d118      	bne.n	100052be <udiv0+0x10>
1000528c:	2a00      	cmp	r2, #0
1000528e:	d00c      	beq.n	100052aa <divmod_u64u64_unsafe+0x26>
10005290:	46bc      	mov	ip, r7
10005292:	4f0d      	ldr	r7, [pc, #52]	; (100052c8 <udiv0+0x1a>)
10005294:	6638      	str	r0, [r7, #96]	; 0x60
10005296:	667a      	str	r2, [r7, #100]	; 0x64
10005298:	2100      	movs	r1, #0
1000529a:	2300      	movs	r3, #0
1000529c:	e7ff      	b.n	1000529e <divmod_u64u64_unsafe+0x1a>
1000529e:	e7ff      	b.n	100052a0 <divmod_u64u64_unsafe+0x1c>
100052a0:	e7ff      	b.n	100052a2 <divmod_u64u64_unsafe+0x1e>
100052a2:	6f7a      	ldr	r2, [r7, #116]	; 0x74
100052a4:	6f38      	ldr	r0, [r7, #112]	; 0x70
100052a6:	4667      	mov	r7, ip
100052a8:	4770      	bx	lr
100052aa:	2800      	cmp	r0, #0
100052ac:	d001      	beq.n	100052b2 <udiv0+0x4>

100052ae <udiv0>:
100052ae:	4807      	ldr	r0, [pc, #28]	; (100052cc <udiv0+0x1e>)
100052b0:	0001      	movs	r1, r0
100052b2:	b500      	push	{lr}
100052b4:	f001 f82c 	bl	10006310 <____aeabi_ldiv0_veneer>
100052b8:	2200      	movs	r2, #0
100052ba:	2300      	movs	r3, #0
100052bc:	bd00      	pop	{pc}
100052be:	0002      	movs	r2, r0
100052c0:	000b      	movs	r3, r1
100052c2:	2000      	movs	r0, #0
100052c4:	2100      	movs	r1, #0
100052c6:	4770      	bx	lr
100052c8:	d0000000 	.word	0xd0000000
100052cc:	ffffffff 	.word	0xffffffff

100052d0 <y64>:
100052d0:	2b00      	cmp	r3, #0
100052d2:	d000      	beq.n	100052d6 <y64+0x6>
100052d4:	e0bf      	b.n	10005456 <y64_x48>
100052d6:	0c13      	lsrs	r3, r2, #16
100052d8:	d128      	bne.n	1000532c <y64_x32>
100052da:	2a00      	cmp	r2, #0
100052dc:	d0e7      	beq.n	100052ae <udiv0>
100052de:	b480      	push	{r7}
100052e0:	4f11      	ldr	r7, [pc, #68]	; (10005328 <y64+0x58>)
100052e2:	6639      	str	r1, [r7, #96]	; 0x60
100052e4:	667a      	str	r2, [r7, #100]	; 0x64
100052e6:	e7ff      	b.n	100052e8 <y64+0x18>
100052e8:	e7ff      	b.n	100052ea <y64+0x1a>
100052ea:	b430      	push	{r4, r5}
100052ec:	0c04      	lsrs	r4, r0, #16
100052ee:	6f7b      	ldr	r3, [r7, #116]	; 0x74
100052f0:	6f39      	ldr	r1, [r7, #112]	; 0x70
100052f2:	041b      	lsls	r3, r3, #16
100052f4:	4323      	orrs	r3, r4
100052f6:	663b      	str	r3, [r7, #96]	; 0x60
100052f8:	667a      	str	r2, [r7, #100]	; 0x64
100052fa:	e7ff      	b.n	100052fc <y64+0x2c>
100052fc:	e7ff      	b.n	100052fe <y64+0x2e>
100052fe:	e7ff      	b.n	10005300 <y64+0x30>
10005300:	46c0      	nop			; (mov r8, r8)
10005302:	b284      	uxth	r4, r0
10005304:	6f7b      	ldr	r3, [r7, #116]	; 0x74
10005306:	6f3d      	ldr	r5, [r7, #112]	; 0x70
10005308:	041b      	lsls	r3, r3, #16
1000530a:	4323      	orrs	r3, r4
1000530c:	663b      	str	r3, [r7, #96]	; 0x60
1000530e:	667a      	str	r2, [r7, #100]	; 0x64
10005310:	e7ff      	b.n	10005312 <y64+0x42>
10005312:	e7ff      	b.n	10005314 <y64+0x44>
10005314:	46c0      	nop			; (mov r8, r8)
10005316:	2300      	movs	r3, #0
10005318:	042c      	lsls	r4, r5, #16
1000531a:	0c2d      	lsrs	r5, r5, #16
1000531c:	6f7a      	ldr	r2, [r7, #116]	; 0x74
1000531e:	6f38      	ldr	r0, [r7, #112]	; 0x70
10005320:	1900      	adds	r0, r0, r4
10005322:	4169      	adcs	r1, r5
10005324:	bcb0      	pop	{r4, r5, r7}
10005326:	4770      	bx	lr
10005328:	d0000000 	.word	0xd0000000

1000532c <y64_x32>:
1000532c:	b5f0      	push	{r4, r5, r6, r7, lr}
1000532e:	4694      	mov	ip, r2
10005330:	2500      	movs	r5, #0
10005332:	0e14      	lsrs	r4, r2, #24
10005334:	d101      	bne.n	1000533a <y64_x32+0xe>
10005336:	0212      	lsls	r2, r2, #8
10005338:	3508      	adds	r5, #8
1000533a:	0f14      	lsrs	r4, r2, #28
1000533c:	d101      	bne.n	10005342 <y64_x32+0x16>
1000533e:	0112      	lsls	r2, r2, #4
10005340:	3504      	adds	r5, #4
10005342:	0f94      	lsrs	r4, r2, #30
10005344:	d101      	bne.n	1000534a <y64_x32+0x1e>
10005346:	0092      	lsls	r2, r2, #2
10005348:	3502      	adds	r5, #2
1000534a:	0fd4      	lsrs	r4, r2, #31
1000534c:	d101      	bne.n	10005352 <y64_x32+0x26>
1000534e:	0052      	lsls	r2, r2, #1
10005350:	3501      	adds	r5, #1
10005352:	0bd4      	lsrs	r4, r2, #15
10005354:	3401      	adds	r4, #1
10005356:	4f25      	ldr	r7, [pc, #148]	; (100053ec <y64_x32+0xc0>)
10005358:	667c      	str	r4, [r7, #100]	; 0x64
1000535a:	4c25      	ldr	r4, [pc, #148]	; (100053f0 <y64_x32+0xc4>)
1000535c:	663c      	str	r4, [r7, #96]	; 0x60
1000535e:	0c0e      	lsrs	r6, r1, #16
10005360:	b293      	uxth	r3, r2
10005362:	e7ff      	b.n	10005364 <y64_x32+0x38>
10005364:	e7ff      	b.n	10005366 <y64_x32+0x3a>
10005366:	e7ff      	b.n	10005368 <y64_x32+0x3c>
10005368:	6f3c      	ldr	r4, [r7, #112]	; 0x70
1000536a:	4366      	muls	r6, r4
1000536c:	0c36      	lsrs	r6, r6, #16
1000536e:	0377      	lsls	r7, r6, #13
10005370:	46be      	mov	lr, r7
10005372:	4373      	muls	r3, r6
10005374:	0bdf      	lsrs	r7, r3, #15
10005376:	045b      	lsls	r3, r3, #17
10005378:	1ac0      	subs	r0, r0, r3
1000537a:	41b9      	sbcs	r1, r7
1000537c:	0c13      	lsrs	r3, r2, #16
1000537e:	4373      	muls	r3, r6
10005380:	18db      	adds	r3, r3, r3
10005382:	1ac9      	subs	r1, r1, r3
10005384:	08ce      	lsrs	r6, r1, #3
10005386:	4366      	muls	r6, r4
10005388:	0c36      	lsrs	r6, r6, #16
1000538a:	44b6      	add	lr, r6
1000538c:	b293      	uxth	r3, r2
1000538e:	4373      	muls	r3, r6
10005390:	0f1f      	lsrs	r7, r3, #28
10005392:	011b      	lsls	r3, r3, #4
10005394:	1ac0      	subs	r0, r0, r3
10005396:	41b9      	sbcs	r1, r7
10005398:	0c13      	lsrs	r3, r2, #16
1000539a:	4373      	muls	r3, r6
1000539c:	0b1f      	lsrs	r7, r3, #12
1000539e:	051b      	lsls	r3, r3, #20
100053a0:	1ac0      	subs	r0, r0, r3
100053a2:	41b9      	sbcs	r1, r7
100053a4:	0d86      	lsrs	r6, r0, #22
100053a6:	028f      	lsls	r7, r1, #10
100053a8:	433e      	orrs	r6, r7
100053aa:	4366      	muls	r6, r4
100053ac:	0c36      	lsrs	r6, r6, #16
100053ae:	2d09      	cmp	r5, #9
100053b0:	db24      	blt.n	100053fc <last0>
100053b2:	0a52      	lsrs	r2, r2, #9
100053b4:	4372      	muls	r2, r6
100053b6:	1a80      	subs	r0, r0, r2
100053b8:	0377      	lsls	r7, r6, #13
100053ba:	0a46      	lsrs	r6, r0, #9
100053bc:	4366      	muls	r6, r4
100053be:	0c36      	lsrs	r6, r6, #16
100053c0:	2316      	movs	r3, #22
100053c2:	1b5b      	subs	r3, r3, r5
100053c4:	40de      	lsrs	r6, r3
100053c6:	40df      	lsrs	r7, r3
100053c8:	19bf      	adds	r7, r7, r6
100053ca:	4664      	mov	r4, ip
100053cc:	4366      	muls	r6, r4
100053ce:	1b82      	subs	r2, r0, r6
100053d0:	4670      	mov	r0, lr
100053d2:	3504      	adds	r5, #4
100053d4:	3306      	adds	r3, #6
100053d6:	0001      	movs	r1, r0
100053d8:	40d9      	lsrs	r1, r3
100053da:	40a8      	lsls	r0, r5
100053dc:	19c0      	adds	r0, r0, r7
100053de:	d300      	bcc.n	100053e2 <y64_x32+0xb6>
100053e0:	3101      	adds	r1, #1
100053e2:	42a2      	cmp	r2, r4
100053e4:	d206      	bcs.n	100053f4 <y64_x32+0xc8>
100053e6:	2300      	movs	r3, #0
100053e8:	bdf0      	pop	{r4, r5, r6, r7, pc}
100053ea:	0000      	.short	0x0000
100053ec:	d0000000 	.word	0xd0000000
100053f0:	ffffffff 	.word	0xffffffff
100053f4:	1b12      	subs	r2, r2, r4
100053f6:	3001      	adds	r0, #1
100053f8:	d3f3      	bcc.n	100053e2 <y64_x32+0xb6>
100053fa:	e7f1      	b.n	100053e0 <y64_x32+0xb4>

100053fc <last0>:
100053fc:	2709      	movs	r7, #9
100053fe:	1b7f      	subs	r7, r7, r5
10005400:	40fe      	lsrs	r6, r7
10005402:	4664      	mov	r4, ip
10005404:	b2a2      	uxth	r2, r4
10005406:	4372      	muls	r2, r6
10005408:	1a80      	subs	r0, r0, r2
1000540a:	d200      	bcs.n	1000540e <last0+0x12>
1000540c:	3901      	subs	r1, #1
1000540e:	0c22      	lsrs	r2, r4, #16
10005410:	4372      	muls	r2, r6
10005412:	0c13      	lsrs	r3, r2, #16
10005414:	0412      	lsls	r2, r2, #16
10005416:	1a82      	subs	r2, r0, r2
10005418:	4199      	sbcs	r1, r3
1000541a:	000b      	movs	r3, r1
1000541c:	4670      	mov	r0, lr
1000541e:	3504      	adds	r5, #4
10005420:	3713      	adds	r7, #19
10005422:	0001      	movs	r1, r0
10005424:	40f9      	lsrs	r1, r7
10005426:	40a8      	lsls	r0, r5
10005428:	1980      	adds	r0, r0, r6
1000542a:	d300      	bcc.n	1000542e <last0+0x32>
1000542c:	3101      	adds	r1, #1
1000542e:	2b00      	cmp	r3, #0
10005430:	d102      	bne.n	10005438 <last0+0x3c>
10005432:	42a2      	cmp	r2, r4
10005434:	d20a      	bcs.n	1000544c <last0+0x50>
10005436:	bdf0      	pop	{r4, r5, r6, r7, pc}
10005438:	3001      	adds	r0, #1
1000543a:	d300      	bcc.n	1000543e <last0+0x42>
1000543c:	3101      	adds	r1, #1
1000543e:	1b12      	subs	r2, r2, r4
10005440:	d2fa      	bcs.n	10005438 <last0+0x3c>
10005442:	3b01      	subs	r3, #1
10005444:	d1f8      	bne.n	10005438 <last0+0x3c>
10005446:	42a2      	cmp	r2, r4
10005448:	d200      	bcs.n	1000544c <last0+0x50>
1000544a:	bdf0      	pop	{r4, r5, r6, r7, pc}
1000544c:	3001      	adds	r0, #1
1000544e:	d300      	bcc.n	10005452 <last0+0x56>
10005450:	3101      	adds	r1, #1
10005452:	1b12      	subs	r2, r2, r4
10005454:	e7f7      	b.n	10005446 <last0+0x4a>

10005456 <y64_x48>:
10005456:	b5f0      	push	{r4, r5, r6, r7, lr}
10005458:	0c1c      	lsrs	r4, r3, #16
1000545a:	d000      	beq.n	1000545e <y64_x48+0x8>
1000545c:	e080      	b.n	10005560 <y64_x64>
1000545e:	b40c      	push	{r2, r3}
10005460:	2500      	movs	r5, #0
10005462:	0a1c      	lsrs	r4, r3, #8
10005464:	d104      	bne.n	10005470 <y64_x48+0x1a>
10005466:	021b      	lsls	r3, r3, #8
10005468:	0e16      	lsrs	r6, r2, #24
1000546a:	4333      	orrs	r3, r6
1000546c:	0212      	lsls	r2, r2, #8
1000546e:	3508      	adds	r5, #8
10005470:	0b1c      	lsrs	r4, r3, #12
10005472:	d104      	bne.n	1000547e <y64_x48+0x28>
10005474:	011b      	lsls	r3, r3, #4
10005476:	0f16      	lsrs	r6, r2, #28
10005478:	4333      	orrs	r3, r6
1000547a:	0112      	lsls	r2, r2, #4
1000547c:	3504      	adds	r5, #4
1000547e:	0b9c      	lsrs	r4, r3, #14
10005480:	d104      	bne.n	1000548c <y64_x48+0x36>
10005482:	009b      	lsls	r3, r3, #2
10005484:	0f96      	lsrs	r6, r2, #30
10005486:	4333      	orrs	r3, r6
10005488:	0092      	lsls	r2, r2, #2
1000548a:	3502      	adds	r5, #2
1000548c:	0bdc      	lsrs	r4, r3, #15
1000548e:	d102      	bne.n	10005496 <y64_x48+0x40>
10005490:	1892      	adds	r2, r2, r2
10005492:	415b      	adcs	r3, r3
10005494:	3501      	adds	r5, #1
10005496:	001c      	movs	r4, r3
10005498:	1897      	adds	r7, r2, r2
1000549a:	4164      	adcs	r4, r4
1000549c:	3401      	adds	r4, #1
1000549e:	4f46      	ldr	r7, [pc, #280]	; (100055b8 <y64_x64+0x58>)
100054a0:	667c      	str	r4, [r7, #100]	; 0x64
100054a2:	4c46      	ldr	r4, [pc, #280]	; (100055bc <y64_x64+0x5c>)
100054a4:	663c      	str	r4, [r7, #96]	; 0x60
100054a6:	0c0e      	lsrs	r6, r1, #16
100054a8:	e7ff      	b.n	100054aa <y64_x48+0x54>
100054aa:	e7ff      	b.n	100054ac <y64_x48+0x56>
100054ac:	e7ff      	b.n	100054ae <y64_x48+0x58>
100054ae:	46c0      	nop			; (mov r8, r8)
100054b0:	6f3c      	ldr	r4, [r7, #112]	; 0x70
100054b2:	4366      	muls	r6, r4
100054b4:	0c36      	lsrs	r6, r6, #16
100054b6:	0377      	lsls	r7, r6, #13
100054b8:	46be      	mov	lr, r7
100054ba:	b297      	uxth	r7, r2
100054bc:	4377      	muls	r7, r6
100054be:	1bc0      	subs	r0, r0, r7
100054c0:	d200      	bcs.n	100054c4 <y64_x48+0x6e>
100054c2:	3901      	subs	r1, #1
100054c4:	1bc0      	subs	r0, r0, r7
100054c6:	d200      	bcs.n	100054ca <y64_x48+0x74>
100054c8:	3901      	subs	r1, #1
100054ca:	b29f      	uxth	r7, r3
100054cc:	4377      	muls	r7, r6
100054ce:	1bc9      	subs	r1, r1, r7
100054d0:	1bc9      	subs	r1, r1, r7
100054d2:	0c17      	lsrs	r7, r2, #16
100054d4:	4377      	muls	r7, r6
100054d6:	047e      	lsls	r6, r7, #17
100054d8:	0bff      	lsrs	r7, r7, #15
100054da:	1b80      	subs	r0, r0, r6
100054dc:	41b9      	sbcs	r1, r7
100054de:	08ce      	lsrs	r6, r1, #3
100054e0:	4366      	muls	r6, r4
100054e2:	0c36      	lsrs	r6, r6, #16
100054e4:	2d0c      	cmp	r5, #12
100054e6:	db33      	blt.n	10005550 <last1>
100054e8:	44b6      	add	lr, r6
100054ea:	0b12      	lsrs	r2, r2, #12
100054ec:	051f      	lsls	r7, r3, #20
100054ee:	433a      	orrs	r2, r7
100054f0:	0b1b      	lsrs	r3, r3, #12
100054f2:	b297      	uxth	r7, r2
100054f4:	4377      	muls	r7, r6
100054f6:	1bc0      	subs	r0, r0, r7
100054f8:	d200      	bcs.n	100054fc <y64_x48+0xa6>
100054fa:	3901      	subs	r1, #1
100054fc:	b29f      	uxth	r7, r3
100054fe:	4377      	muls	r7, r6
10005500:	1bc9      	subs	r1, r1, r7
10005502:	0c17      	lsrs	r7, r2, #16
10005504:	4377      	muls	r7, r6
10005506:	043e      	lsls	r6, r7, #16
10005508:	0c3f      	lsrs	r7, r7, #16
1000550a:	1b80      	subs	r0, r0, r6
1000550c:	41b9      	sbcs	r1, r7
1000550e:	0d86      	lsrs	r6, r0, #22
10005510:	028f      	lsls	r7, r1, #10
10005512:	433e      	orrs	r6, r7
10005514:	4366      	muls	r6, r4
10005516:	2729      	movs	r7, #41	; 0x29
10005518:	1b7f      	subs	r7, r7, r5
1000551a:	40fe      	lsrs	r6, r7
1000551c:	3d0c      	subs	r5, #12
1000551e:	4677      	mov	r7, lr
10005520:	40af      	lsls	r7, r5
10005522:	19bf      	adds	r7, r7, r6
10005524:	bc30      	pop	{r4, r5}
10005526:	b2a2      	uxth	r2, r4
10005528:	b2ab      	uxth	r3, r5
1000552a:	4372      	muls	r2, r6
1000552c:	4373      	muls	r3, r6
1000552e:	1a80      	subs	r0, r0, r2
10005530:	4199      	sbcs	r1, r3
10005532:	0c22      	lsrs	r2, r4, #16
10005534:	4372      	muls	r2, r6
10005536:	0c13      	lsrs	r3, r2, #16
10005538:	0412      	lsls	r2, r2, #16
1000553a:	1a80      	subs	r0, r0, r2
1000553c:	4199      	sbcs	r1, r3
1000553e:	0002      	movs	r2, r0
10005540:	000b      	movs	r3, r1
10005542:	3701      	adds	r7, #1
10005544:	1b00      	subs	r0, r0, r4
10005546:	41a9      	sbcs	r1, r5
10005548:	d2f9      	bcs.n	1000553e <y64_x48+0xe8>
1000554a:	1e78      	subs	r0, r7, #1
1000554c:	2100      	movs	r1, #0
1000554e:	bdf0      	pop	{r4, r5, r6, r7, pc}

10005550 <last1>:
10005550:	270c      	movs	r7, #12
10005552:	1b7f      	subs	r7, r7, r5
10005554:	40fe      	lsrs	r6, r7
10005556:	4677      	mov	r7, lr
10005558:	0b7f      	lsrs	r7, r7, #13
1000555a:	40af      	lsls	r7, r5
1000555c:	19ff      	adds	r7, r7, r7
1000555e:	e7e0      	b.n	10005522 <y64_x48+0xcc>

10005560 <y64_x64>:
10005560:	2400      	movs	r4, #0
10005562:	1c5d      	adds	r5, r3, #1
10005564:	d007      	beq.n	10005576 <y64_x64+0x16>
10005566:	4f14      	ldr	r7, [pc, #80]	; (100055b8 <y64_x64+0x58>)
10005568:	667d      	str	r5, [r7, #100]	; 0x64
1000556a:	6639      	str	r1, [r7, #96]	; 0x60
1000556c:	e7ff      	b.n	1000556e <y64_x64+0xe>
1000556e:	e7ff      	b.n	10005570 <y64_x64+0x10>
10005570:	e7ff      	b.n	10005572 <y64_x64+0x12>
10005572:	e7ff      	b.n	10005574 <y64_x64+0x14>
10005574:	6f3c      	ldr	r4, [r7, #112]	; 0x70
10005576:	b295      	uxth	r5, r2
10005578:	b29e      	uxth	r6, r3
1000557a:	4365      	muls	r5, r4
1000557c:	4366      	muls	r6, r4
1000557e:	1b40      	subs	r0, r0, r5
10005580:	41b1      	sbcs	r1, r6
10005582:	0c15      	lsrs	r5, r2, #16
10005584:	0c1e      	lsrs	r6, r3, #16
10005586:	4365      	muls	r5, r4
10005588:	4366      	muls	r6, r4
1000558a:	0436      	lsls	r6, r6, #16
1000558c:	0c2f      	lsrs	r7, r5, #16
1000558e:	433e      	orrs	r6, r7
10005590:	042d      	lsls	r5, r5, #16
10005592:	1b40      	subs	r0, r0, r5
10005594:	41b1      	sbcs	r1, r6
10005596:	4299      	cmp	r1, r3
10005598:	d204      	bcs.n	100055a4 <y64_x64+0x44>
1000559a:	0002      	movs	r2, r0
1000559c:	000b      	movs	r3, r1
1000559e:	0020      	movs	r0, r4
100055a0:	2100      	movs	r1, #0
100055a2:	bdf0      	pop	{r4, r5, r6, r7, pc}
100055a4:	d101      	bne.n	100055aa <y64_x64+0x4a>
100055a6:	4290      	cmp	r0, r2
100055a8:	d3f7      	bcc.n	1000559a <y64_x64+0x3a>
100055aa:	1a80      	subs	r0, r0, r2
100055ac:	4199      	sbcs	r1, r3
100055ae:	3401      	adds	r4, #1
100055b0:	4299      	cmp	r1, r3
100055b2:	d3f2      	bcc.n	1000559a <y64_x64+0x3a>
100055b4:	e7f6      	b.n	100055a4 <y64_x64+0x44>
100055b6:	0000      	.short	0x0000
100055b8:	d0000000 	.word	0xd0000000
100055bc:	ffffffff 	.word	0xffffffff

100055c0 <__wrap___aeabi_drsub>:
100055c0:	4048      	eors	r0, r1
100055c2:	4041      	eors	r1, r0
100055c4:	4048      	eors	r0, r1

100055c6 <__wrap___aeabi_dsub>:
100055c6:	b418      	push	{r3, r4}
100055c8:	4b1b      	ldr	r3, [pc, #108]	; (10005638 <__wrap___aeabi_dmul+0x12>)
100055ca:	685b      	ldr	r3, [r3, #4]
100055cc:	46fc      	mov	ip, pc
100055ce:	9301      	str	r3, [sp, #4]
100055d0:	bd08      	pop	{r3, pc}
100055d2:	df04      	.short	0xdf04
100055d4:	1000589b 	.word	0x1000589b

100055d8 <__wrap___aeabi_dadd>:
100055d8:	b418      	push	{r3, r4}
100055da:	4b17      	ldr	r3, [pc, #92]	; (10005638 <__wrap___aeabi_dmul+0x12>)
100055dc:	681b      	ldr	r3, [r3, #0]
100055de:	46fc      	mov	ip, pc
100055e0:	9301      	str	r3, [sp, #4]
100055e2:	bd08      	pop	{r3, pc}
100055e4:	58a5df00 	.word	0x58a5df00
100055e8:	1000      	.short	0x1000

100055ea <__wrap___aeabi_ddiv>:
100055ea:	4694      	mov	ip, r2
100055ec:	4a13      	ldr	r2, [pc, #76]	; (1000563c <__wrap___aeabi_dmul+0x16>)
100055ee:	6f92      	ldr	r2, [r2, #120]	; 0x78
100055f0:	0892      	lsrs	r2, r2, #2
100055f2:	d209      	bcs.n	10005608 <ddiv_save_state>
100055f4:	4662      	mov	r2, ip

100055f6 <ddiv_shim_call>:
100055f6:	b418      	push	{r3, r4}
100055f8:	4b0f      	ldr	r3, [pc, #60]	; (10005638 <__wrap___aeabi_dmul+0x12>)
100055fa:	68db      	ldr	r3, [r3, #12]
100055fc:	46fc      	mov	ip, pc
100055fe:	9301      	str	r3, [sp, #4]
10005600:	bd08      	pop	{r3, pc}
10005602:	df0c      	.short	0xdf0c
10005604:	10005b5d 	.word	0x10005b5d

10005608 <ddiv_save_state>:
10005608:	4a0c      	ldr	r2, [pc, #48]	; (1000563c <__wrap___aeabi_dmul+0x16>)
1000560a:	b5f0      	push	{r4, r5, r6, r7, lr}
1000560c:	6e14      	ldr	r4, [r2, #96]	; 0x60
1000560e:	6e55      	ldr	r5, [r2, #100]	; 0x64
10005610:	6f57      	ldr	r7, [r2, #116]	; 0x74
10005612:	6f16      	ldr	r6, [r2, #112]	; 0x70
10005614:	4662      	mov	r2, ip
10005616:	f7ff ffee 	bl	100055f6 <ddiv_shim_call>
1000561a:	4a08      	ldr	r2, [pc, #32]	; (1000563c <__wrap___aeabi_dmul+0x16>)
1000561c:	6614      	str	r4, [r2, #96]	; 0x60
1000561e:	6655      	str	r5, [r2, #100]	; 0x64
10005620:	6757      	str	r7, [r2, #116]	; 0x74
10005622:	6716      	str	r6, [r2, #112]	; 0x70
10005624:	bdf0      	pop	{r4, r5, r6, r7, pc}

10005626 <__wrap___aeabi_dmul>:
10005626:	b418      	push	{r3, r4}
10005628:	4b03      	ldr	r3, [pc, #12]	; (10005638 <__wrap___aeabi_dmul+0x12>)
1000562a:	689b      	ldr	r3, [r3, #8]
1000562c:	46fc      	mov	ip, pc
1000562e:	9301      	str	r3, [sp, #4]
10005630:	bd08      	pop	{r3, pc}
10005632:	df08      	.short	0xdf08
10005634:	10005a01 	.word	0x10005a01
10005638:	200006e4 	.word	0x200006e4
1000563c:	d0000000 	.word	0xd0000000

10005640 <__wrap___aeabi_cdrcmple>:
10005640:	b5ff      	push	{r0, r1, r2, r3, r4, r5, r6, r7, lr}
10005642:	4050      	eors	r0, r2
10005644:	4042      	eors	r2, r0
10005646:	4050      	eors	r0, r2
10005648:	4059      	eors	r1, r3
1000564a:	404b      	eors	r3, r1
1000564c:	4059      	eors	r1, r3
1000564e:	e000      	b.n	10005652 <__aeabi_dfcmple_guts>

10005650 <__wrap___aeabi_cdcmpeq>:
10005650:	b5ff      	push	{r0, r1, r2, r3, r4, r5, r6, r7, lr}

10005652 <__aeabi_dfcmple_guts>:
10005652:	4f15      	ldr	r7, [pc, #84]	; (100056a8 <__aeabi_dfcmple_guts+0x56>)
10005654:	004c      	lsls	r4, r1, #1
10005656:	0d64      	lsrs	r4, r4, #21
10005658:	d003      	beq.n	10005662 <__aeabi_dfcmple_guts+0x10>
1000565a:	42bc      	cmp	r4, r7
1000565c:	d104      	bne.n	10005668 <__aeabi_dfcmple_guts+0x16>
1000565e:	030c      	lsls	r4, r1, #12
10005660:	d814      	bhi.n	1000568c <__aeabi_dfcmple_guts+0x3a>
10005662:	2000      	movs	r0, #0
10005664:	0d09      	lsrs	r1, r1, #20
10005666:	0509      	lsls	r1, r1, #20
10005668:	005c      	lsls	r4, r3, #1
1000566a:	0d64      	lsrs	r4, r4, #21
1000566c:	d003      	beq.n	10005676 <__aeabi_dfcmple_guts+0x24>
1000566e:	42bc      	cmp	r4, r7
10005670:	d104      	bne.n	1000567c <__aeabi_dfcmple_guts+0x2a>
10005672:	031c      	lsls	r4, r3, #12
10005674:	d80a      	bhi.n	1000568c <__aeabi_dfcmple_guts+0x3a>
10005676:	2200      	movs	r2, #0
10005678:	0d1b      	lsrs	r3, r3, #20
1000567a:	051b      	lsls	r3, r3, #20
1000567c:	2601      	movs	r6, #1
1000567e:	404b      	eors	r3, r1
10005680:	d409      	bmi.n	10005696 <__aeabi_dfcmple_guts+0x44>
10005682:	404b      	eors	r3, r1
10005684:	d503      	bpl.n	1000568e <__aeabi_dfcmple_guts+0x3c>
10005686:	428b      	cmp	r3, r1
10005688:	d100      	bne.n	1000568c <__aeabi_dfcmple_guts+0x3a>
1000568a:	4282      	cmp	r2, r0
1000568c:	bdff      	pop	{r0, r1, r2, r3, r4, r5, r6, r7, pc}
1000568e:	4299      	cmp	r1, r3
10005690:	d1fc      	bne.n	1000568c <__aeabi_dfcmple_guts+0x3a>
10005692:	4290      	cmp	r0, r2
10005694:	bdff      	pop	{r0, r1, r2, r3, r4, r5, r6, r7, pc}
10005696:	430b      	orrs	r3, r1
10005698:	18db      	adds	r3, r3, r3
1000569a:	4303      	orrs	r3, r0
1000569c:	4313      	orrs	r3, r2
1000569e:	d0f5      	beq.n	1000568c <__aeabi_dfcmple_guts+0x3a>
100056a0:	43c9      	mvns	r1, r1
100056a2:	1849      	adds	r1, r1, r1
100056a4:	bdff      	pop	{r0, r1, r2, r3, r4, r5, r6, r7, pc}
100056a6:	0000      	.short	0x0000
100056a8:	000007ff 	.word	0x000007ff

100056ac <__wrap___aeabi_dcmplt>:
100056ac:	b500      	push	{lr}
100056ae:	f7ff ffcf 	bl	10005650 <__wrap___aeabi_cdcmpeq>
100056b2:	4180      	sbcs	r0, r0
100056b4:	bd00      	pop	{pc}
100056b6:	46c0      	nop			; (mov r8, r8)

100056b8 <__wrap___aeabi_dcmple>:
100056b8:	b500      	push	{lr}
100056ba:	f7ff ffc9 	bl	10005650 <__wrap___aeabi_cdcmpeq>
100056be:	d901      	bls.n	100056c4 <__wrap___aeabi_dcmple+0xc>
100056c0:	2000      	movs	r0, #0
100056c2:	bd00      	pop	{pc}
100056c4:	2001      	movs	r0, #1
100056c6:	bd00      	pop	{pc}

100056c8 <__wrap___aeabi_dcmpge>:
100056c8:	b500      	push	{lr}
100056ca:	f7ff ffb9 	bl	10005640 <__wrap___aeabi_cdrcmple>
100056ce:	d901      	bls.n	100056d4 <__wrap___aeabi_dcmpge+0xc>
100056d0:	2000      	movs	r0, #0
100056d2:	bd00      	pop	{pc}
100056d4:	2001      	movs	r0, #1
100056d6:	bd00      	pop	{pc}

100056d8 <__wrap___aeabi_dcmpgt>:
100056d8:	b500      	push	{lr}
100056da:	f7ff ffb1 	bl	10005640 <__wrap___aeabi_cdrcmple>
100056de:	4180      	sbcs	r0, r0
100056e0:	bd00      	pop	{pc}

100056e2 <__wrap___aeabi_dcmpun>:
100056e2:	2001      	movs	r0, #1
100056e4:	0540      	lsls	r0, r0, #21
100056e6:	004a      	lsls	r2, r1, #1
100056e8:	1812      	adds	r2, r2, r0
100056ea:	d804      	bhi.n	100056f6 <__wrap___aeabi_dcmpun+0x14>
100056ec:	005a      	lsls	r2, r3, #1
100056ee:	1812      	adds	r2, r2, r0
100056f0:	d801      	bhi.n	100056f6 <__wrap___aeabi_dcmpun+0x14>
100056f2:	2000      	movs	r0, #0
100056f4:	4770      	bx	lr
100056f6:	2001      	movs	r0, #1
100056f8:	4770      	bx	lr
100056fa:	2000      	movs	r0, #0
100056fc:	4770      	bx	lr
	...

10005700 <__wrap___aeabi_ui2d>:
10005700:	2100      	movs	r1, #0
10005702:	2800      	cmp	r0, #0
10005704:	d105      	bne.n	10005712 <__wrap___aeabi_i2d+0xa>
10005706:	4770      	bx	lr

10005708 <__wrap___aeabi_i2d>:
10005708:	17c1      	asrs	r1, r0, #31
1000570a:	4048      	eors	r0, r1
1000570c:	1a40      	subs	r0, r0, r1
1000570e:	d0fa      	beq.n	10005706 <__wrap___aeabi_ui2d+0x6>
10005710:	07c9      	lsls	r1, r1, #31
10005712:	b513      	push	{r0, r1, r4, lr}
10005714:	4b06      	ldr	r3, [pc, #24]	; (10005730 <__wrap___aeabi_i2d+0x28>)
10005716:	681b      	ldr	r3, [r3, #0]
10005718:	4798      	blx	r3
1000571a:	bc0c      	pop	{r2, r3}
1000571c:	1c44      	adds	r4, r0, #1
1000571e:	40a2      	lsls	r2, r4
10005720:	0510      	lsls	r0, r2, #20
10005722:	0b12      	lsrs	r2, r2, #12
10005724:	4903      	ldr	r1, [pc, #12]	; (10005734 <__wrap___aeabi_i2d+0x2c>)
10005726:	1b09      	subs	r1, r1, r4
10005728:	0509      	lsls	r1, r1, #20
1000572a:	4319      	orrs	r1, r3
1000572c:	4311      	orrs	r1, r2
1000572e:	bd10      	pop	{r4, pc}
10005730:	200007e4 	.word	0x200007e4
10005734:	0000041f 	.word	0x0000041f

10005738 <__wrap___aeabi_d2iz>:
10005738:	b510      	push	{r4, lr}
1000573a:	004c      	lsls	r4, r1, #1
1000573c:	0d62      	lsrs	r2, r4, #21
1000573e:	2380      	movs	r3, #128	; 0x80
10005740:	18d2      	adds	r2, r2, r3
10005742:	00db      	lsls	r3, r3, #3
10005744:	1ad2      	subs	r2, r2, r3
10005746:	055b      	lsls	r3, r3, #21
10005748:	2a7e      	cmp	r2, #126	; 0x7e
1000574a:	dd10      	ble.n	1000576e <__wrap___aeabi_d2iz+0x36>
1000574c:	3a9e      	subs	r2, #158	; 0x9e
1000574e:	da13      	bge.n	10005778 <__wrap___aeabi_d2iz+0x40>
10005750:	17cc      	asrs	r4, r1, #31
10005752:	0309      	lsls	r1, r1, #12
10005754:	0849      	lsrs	r1, r1, #1
10005756:	4319      	orrs	r1, r3
10005758:	4252      	negs	r2, r2
1000575a:	40d1      	lsrs	r1, r2
1000575c:	0064      	lsls	r4, r4, #1
1000575e:	3401      	adds	r4, #1
10005760:	3215      	adds	r2, #21
10005762:	2a20      	cmp	r2, #32
10005764:	da05      	bge.n	10005772 <__wrap___aeabi_d2iz+0x3a>
10005766:	40d0      	lsrs	r0, r2
10005768:	4308      	orrs	r0, r1
1000576a:	4360      	muls	r0, r4
1000576c:	bd10      	pop	{r4, pc}
1000576e:	2000      	movs	r0, #0
10005770:	bd10      	pop	{r4, pc}
10005772:	4608      	mov	r0, r1
10005774:	4360      	muls	r0, r4
10005776:	bd10      	pop	{r4, pc}
10005778:	0fc8      	lsrs	r0, r1, #31
1000577a:	18c0      	adds	r0, r0, r3
1000577c:	3801      	subs	r0, #1
1000577e:	bd10      	pop	{r4, pc}

10005780 <__wrap___aeabi_d2uiz>:
10005780:	b418      	push	{r3, r4}
10005782:	4b04      	ldr	r3, [pc, #16]	; (10005794 <__wrap___aeabi_d2uiz+0x14>)
10005784:	6a5b      	ldr	r3, [r3, #36]	; 0x24
10005786:	46fc      	mov	ip, pc
10005788:	9301      	str	r3, [sp, #4]
1000578a:	bd08      	pop	{r3, pc}
1000578c:	5d0ddf24 	.word	0x5d0ddf24
10005790:	00001000 	.word	0x00001000
10005794:	200006e4 	.word	0x200006e4

10005798 <__aeabi_double_init>:
10005798:	b570      	push	{r4, r5, r6, lr}
1000579a:	2313      	movs	r3, #19
1000579c:	781c      	ldrb	r4, [r3, #0]
1000579e:	2c01      	cmp	r4, #1
100057a0:	d014      	beq.n	100057cc <__aeabi_double_init+0x34>
100057a2:	2c01      	cmp	r4, #1
100057a4:	dc14      	bgt.n	100057d0 <__aeabi_double_init+0x38>
100057a6:	2c02      	cmp	r4, #2
100057a8:	dc02      	bgt.n	100057b0 <__aeabi_double_init+0x18>
100057aa:	4a1f      	ldr	r2, [pc, #124]	; (10005828 <__aeabi_double_init+0x90>)
100057ac:	4b1f      	ldr	r3, [pc, #124]	; (1000582c <__aeabi_double_init+0x94>)
100057ae:	649a      	str	r2, [r3, #72]	; 0x48
100057b0:	481f      	ldr	r0, [pc, #124]	; (10005830 <__aeabi_double_init+0x98>)
100057b2:	f7ff fc71 	bl	10005098 <rom_func_lookup>
100057b6:	4b1f      	ldr	r3, [pc, #124]	; (10005834 <__aeabi_double_init+0x9c>)
100057b8:	6018      	str	r0, [r3, #0]
100057ba:	bd70      	pop	{r4, r5, r6, pc}
100057bc:	0099      	lsls	r1, r3, #2
100057be:	481a      	ldr	r0, [pc, #104]	; (10005828 <__aeabi_double_init+0x90>)
100057c0:	4a1a      	ldr	r2, [pc, #104]	; (1000582c <__aeabi_double_init+0x94>)
100057c2:	5088      	str	r0, [r1, r2]
100057c4:	3301      	adds	r3, #1
100057c6:	2b1f      	cmp	r3, #31
100057c8:	d9f8      	bls.n	100057bc <__aeabi_double_init+0x24>
100057ca:	e7ea      	b.n	100057a2 <__aeabi_double_init+0xa>
100057cc:	2300      	movs	r3, #0
100057ce:	e7fa      	b.n	100057c6 <__aeabi_double_init+0x2e>
100057d0:	4819      	ldr	r0, [pc, #100]	; (10005838 <__aeabi_double_init+0xa0>)
100057d2:	f7ff fc69 	bl	100050a8 <rom_data_lookup>
100057d6:	0005      	movs	r5, r0
100057d8:	4818      	ldr	r0, [pc, #96]	; (1000583c <__aeabi_double_init+0xa4>)
100057da:	f7ff fc65 	bl	100050a8 <rom_data_lookup>
100057de:	3802      	subs	r0, #2
100057e0:	7803      	ldrb	r3, [r0, #0]
100057e2:	009b      	lsls	r3, r3, #2
100057e4:	2b7f      	cmp	r3, #127	; 0x7f
100057e6:	dd19      	ble.n	1000581c <__aeabi_double_init+0x84>
100057e8:	2280      	movs	r2, #128	; 0x80
100057ea:	0029      	movs	r1, r5
100057ec:	480f      	ldr	r0, [pc, #60]	; (1000582c <__aeabi_double_init+0x94>)
100057ee:	f000 fb91 	bl	10005f14 <__wrap___aeabi_memcpy>
100057f2:	2c02      	cmp	r4, #2
100057f4:	d1d7      	bne.n	100057a6 <__aeabi_double_init+0xe>
100057f6:	4b12      	ldr	r3, [pc, #72]	; (10005840 <__aeabi_double_init+0xa8>)
100057f8:	881a      	ldrh	r2, [r3, #0]
100057fa:	23b5      	movs	r3, #181	; 0xb5
100057fc:	021b      	lsls	r3, r3, #8
100057fe:	429a      	cmp	r2, r3
10005800:	d109      	bne.n	10005816 <__aeabi_double_init+0x7e>
10005802:	4b10      	ldr	r3, [pc, #64]	; (10005844 <__aeabi_double_init+0xac>)
10005804:	881a      	ldrh	r2, [r3, #0]
10005806:	4b10      	ldr	r3, [pc, #64]	; (10005848 <__aeabi_double_init+0xb0>)
10005808:	429a      	cmp	r2, r3
1000580a:	d104      	bne.n	10005816 <__aeabi_double_init+0x7e>
1000580c:	4b0f      	ldr	r3, [pc, #60]	; (1000584c <__aeabi_double_init+0xb4>)
1000580e:	881a      	ldrh	r2, [r3, #0]
10005810:	4b0f      	ldr	r3, [pc, #60]	; (10005850 <__aeabi_double_init+0xb8>)
10005812:	429a      	cmp	r2, r3
10005814:	d0c7      	beq.n	100057a6 <__aeabi_double_init+0xe>
10005816:	2000      	movs	r0, #0
10005818:	f7fd ffb4 	bl	10003784 <panic>
1000581c:	4b0d      	ldr	r3, [pc, #52]	; (10005854 <__aeabi_double_init+0xbc>)
1000581e:	4a0e      	ldr	r2, [pc, #56]	; (10005858 <__aeabi_double_init+0xc0>)
10005820:	2132      	movs	r1, #50	; 0x32
10005822:	480e      	ldr	r0, [pc, #56]	; (1000585c <__aeabi_double_init+0xc4>)
10005824:	f7fd ff14 	bl	10003650 <__assert_func>
10005828:	10005861 	.word	0x10005861
1000582c:	200006e4 	.word	0x200006e4
10005830:	0000334c 	.word	0x0000334c
10005834:	200007e4 	.word	0x200007e4
10005838:	00004453 	.word	0x00004453
1000583c:	00004653 	.word	0x00004653
10005840:	00003854 	.word	0x00003854
10005844:	000038d8 	.word	0x000038d8
10005848:	00004649 	.word	0x00004649
1000584c:	0000389c 	.word	0x0000389c
10005850:	00004659 	.word	0x00004659
10005854:	10007b10 	.word	0x10007b10
10005858:	10007bc4 	.word	0x10007bc4
1000585c:	10007b70 	.word	0x10007b70

10005860 <double_table_shim_on_use_helper>:
10005860:	b507      	push	{r0, r1, r2, lr}
10005862:	4660      	mov	r0, ip
10005864:	2800      	cmp	r0, #0
10005866:	d100      	bne.n	1000586a <double_table_shim_on_use_helper+0xa>
10005868:	be00      	bkpt	0x0000
1000586a:	8801      	ldrh	r1, [r0, #0]
1000586c:	0a0a      	lsrs	r2, r1, #8
1000586e:	3002      	adds	r0, #2
10005870:	2adf      	cmp	r2, #223	; 0xdf
10005872:	d1fa      	bne.n	1000586a <double_table_shim_on_use_helper+0xa>
10005874:	b2c9      	uxtb	r1, r1
10005876:	0882      	lsrs	r2, r0, #2
10005878:	d304      	bcc.n	10005884 <double_table_shim_on_use_helper+0x24>
1000587a:	8802      	ldrh	r2, [r0, #0]
1000587c:	8840      	ldrh	r0, [r0, #2]
1000587e:	0400      	lsls	r0, r0, #16
10005880:	4310      	orrs	r0, r2
10005882:	e000      	b.n	10005886 <double_table_shim_on_use_helper+0x26>
10005884:	6800      	ldr	r0, [r0, #0]
10005886:	4a02      	ldr	r2, [pc, #8]	; (10005890 <double_table_shim_on_use_helper+0x30>)
10005888:	5050      	str	r0, [r2, r1]
1000588a:	9003      	str	r0, [sp, #12]
1000588c:	bd07      	pop	{r0, r1, r2, pc}
1000588e:	0000      	.short	0x0000
10005890:	200006e4 	.word	0x200006e4

10005894 <drsub_shim>:
10005894:	b40f      	push	{r0, r1, r2, r3}
10005896:	bc03      	pop	{r0, r1}
10005898:	bc0c      	pop	{r2, r3}

1000589a <dsub_shim>:
1000589a:	b5f0      	push	{r4, r5, r6, r7, lr}
1000589c:	2401      	movs	r4, #1
1000589e:	07e4      	lsls	r4, r4, #31
100058a0:	4063      	eors	r3, r4
100058a2:	e000      	b.n	100058a6 <da_entry>

100058a4 <dadd_shim>:
100058a4:	b5f0      	push	{r4, r5, r6, r7, lr}

100058a6 <da_entry>:
100058a6:	0d0c      	lsrs	r4, r1, #20
100058a8:	0fcf      	lsrs	r7, r1, #31
100058aa:	1e66      	subs	r6, r4, #1
100058ac:	0536      	lsls	r6, r6, #20
100058ae:	1b89      	subs	r1, r1, r6
100058b0:	0564      	lsls	r4, r4, #21
100058b2:	d303      	bcc.n	100058bc <l7_1>
100058b4:	43c9      	mvns	r1, r1
100058b6:	4240      	negs	r0, r0
100058b8:	d300      	bcc.n	100058bc <l7_1>
100058ba:	3101      	adds	r1, #1

100058bc <l7_1>:
100058bc:	0d64      	lsrs	r4, r4, #21
100058be:	d003      	beq.n	100058c8 <l7_2>
100058c0:	1c66      	adds	r6, r4, #1
100058c2:	0af6      	lsrs	r6, r6, #11
100058c4:	d007      	beq.n	100058d6 <l7_3>
100058c6:	1be4      	subs	r4, r4, r7

100058c8 <l7_2>:
100058c8:	2000      	movs	r0, #0
100058ca:	007f      	lsls	r7, r7, #1
100058cc:	1c79      	adds	r1, r7, #1
100058ce:	0789      	lsls	r1, r1, #30
100058d0:	1289      	asrs	r1, r1, #10
100058d2:	3c80      	subs	r4, #128	; 0x80
100058d4:	0324      	lsls	r4, r4, #12

100058d6 <l7_3>:
100058d6:	0d1d      	lsrs	r5, r3, #20
100058d8:	0fdf      	lsrs	r7, r3, #31
100058da:	1e6e      	subs	r6, r5, #1
100058dc:	0536      	lsls	r6, r6, #20
100058de:	1b9b      	subs	r3, r3, r6
100058e0:	056d      	lsls	r5, r5, #21
100058e2:	d303      	bcc.n	100058ec <l8_1>
100058e4:	43db      	mvns	r3, r3
100058e6:	4252      	negs	r2, r2
100058e8:	d300      	bcc.n	100058ec <l8_1>
100058ea:	3301      	adds	r3, #1

100058ec <l8_1>:
100058ec:	0d6d      	lsrs	r5, r5, #21
100058ee:	d003      	beq.n	100058f8 <l8_2>
100058f0:	1c6e      	adds	r6, r5, #1
100058f2:	0af6      	lsrs	r6, r6, #11
100058f4:	d007      	beq.n	10005906 <l8_3>
100058f6:	1bed      	subs	r5, r5, r7

100058f8 <l8_2>:
100058f8:	2200      	movs	r2, #0
100058fa:	007f      	lsls	r7, r7, #1
100058fc:	1c7b      	adds	r3, r7, #1
100058fe:	079b      	lsls	r3, r3, #30
10005900:	129b      	asrs	r3, r3, #10
10005902:	3d80      	subs	r5, #128	; 0x80
10005904:	032d      	lsls	r5, r5, #12

10005906 <l8_3>:
10005906:	1b2f      	subs	r7, r5, r4
10005908:	1b66      	subs	r6, r4, r5
1000590a:	d458      	bmi.n	100059be <da_ygtx>
1000590c:	46a4      	mov	ip, r4
1000590e:	2e20      	cmp	r6, #32
10005910:	da46      	bge.n	100059a0 <da_xrgty>
10005912:	3720      	adds	r7, #32
10005914:	0014      	movs	r4, r2
10005916:	40bc      	lsls	r4, r7

10005918 <da_xgty0>:
10005918:	001d      	movs	r5, r3
1000591a:	40bd      	lsls	r5, r7
1000591c:	40f2      	lsrs	r2, r6
1000591e:	4133      	asrs	r3, r6
10005920:	432a      	orrs	r2, r5

10005922 <da_add>:
10005922:	1880      	adds	r0, r0, r2
10005924:	4159      	adcs	r1, r3

10005926 <da_pack>:
10005926:	0fcb      	lsrs	r3, r1, #31
10005928:	d005      	beq.n	10005936 <da_pack+0x10>
1000592a:	43c9      	mvns	r1, r1
1000592c:	43c0      	mvns	r0, r0
1000592e:	2200      	movs	r2, #0
10005930:	4264      	negs	r4, r4
10005932:	4150      	adcs	r0, r2
10005934:	4151      	adcs	r1, r2
10005936:	4662      	mov	r2, ip
10005938:	0d4d      	lsrs	r5, r1, #21
1000593a:	d128      	bne.n	1000598e <da_0>
1000593c:	0d0d      	lsrs	r5, r1, #20
1000593e:	d107      	bne.n	10005950 <da_1>
10005940:	2800      	cmp	r0, #0
10005942:	d01f      	beq.n	10005984 <da_5>

10005944 <da_2>:
10005944:	1924      	adds	r4, r4, r4
10005946:	4140      	adcs	r0, r0
10005948:	4149      	adcs	r1, r1
1000594a:	3a01      	subs	r2, #1
1000594c:	0d0d      	lsrs	r5, r1, #20
1000594e:	d0f9      	beq.n	10005944 <da_2>

10005950 <da_1>:
10005950:	0064      	lsls	r4, r4, #1
10005952:	d306      	bcc.n	10005962 <da_3>

10005954 <da_4>:
10005954:	3001      	adds	r0, #1
10005956:	d300      	bcc.n	1000595a <da_4+0x6>
10005958:	3101      	adds	r1, #1
1000595a:	2c00      	cmp	r4, #0
1000595c:	d101      	bne.n	10005962 <da_3>
1000595e:	0840      	lsrs	r0, r0, #1
10005960:	0040      	lsls	r0, r0, #1

10005962 <da_3>:
10005962:	3a01      	subs	r2, #1
10005964:	d40b      	bmi.n	1000597e <da_6>
10005966:	1c94      	adds	r4, r2, #2
10005968:	0ae4      	lsrs	r4, r4, #11
1000596a:	d104      	bne.n	10005976 <da_7>
1000596c:	0512      	lsls	r2, r2, #20
1000596e:	4411      	add	r1, r2
10005970:	07db      	lsls	r3, r3, #31
10005972:	4419      	add	r1, r3
10005974:	bdf0      	pop	{r4, r5, r6, r7, pc}

10005976 <da_7>:
10005976:	07d9      	lsls	r1, r3, #31
10005978:	4b20      	ldr	r3, [pc, #128]	; (100059fc <da_xmgty+0x4>)
1000597a:	4319      	orrs	r1, r3
1000597c:	e000      	b.n	10005980 <da_6+0x2>

1000597e <da_6>:
1000597e:	07d9      	lsls	r1, r3, #31
10005980:	2000      	movs	r0, #0
10005982:	bdf0      	pop	{r4, r5, r6, r7, pc}

10005984 <da_5>:
10005984:	2900      	cmp	r1, #0
10005986:	d1dd      	bne.n	10005944 <da_2>
10005988:	2c00      	cmp	r4, #0
1000598a:	d1db      	bne.n	10005944 <da_2>
1000598c:	bdf0      	pop	{r4, r5, r6, r7, pc}

1000598e <da_0>:
1000598e:	3201      	adds	r2, #1
10005990:	07c6      	lsls	r6, r0, #31
10005992:	0840      	lsrs	r0, r0, #1
10005994:	07cd      	lsls	r5, r1, #31
10005996:	4328      	orrs	r0, r5
10005998:	0849      	lsrs	r1, r1, #1
1000599a:	2e00      	cmp	r6, #0
1000599c:	d0e1      	beq.n	10005962 <da_3>
1000599e:	e7d9      	b.n	10005954 <da_4>

100059a0 <da_xrgty>:
100059a0:	2e3c      	cmp	r6, #60	; 0x3c
100059a2:	da29      	bge.n	100059f8 <da_xmgty>
100059a4:	3e20      	subs	r6, #32
100059a6:	3740      	adds	r7, #64	; 0x40
100059a8:	0014      	movs	r4, r2
100059aa:	40bc      	lsls	r4, r7
100059ac:	d000      	beq.n	100059b0 <da_xrgty+0x10>
100059ae:	2401      	movs	r4, #1
100059b0:	40f2      	lsrs	r2, r6
100059b2:	4314      	orrs	r4, r2
100059b4:	001a      	movs	r2, r3
100059b6:	40bb      	lsls	r3, r7
100059b8:	431c      	orrs	r4, r3
100059ba:	17d3      	asrs	r3, r2, #31
100059bc:	e7ac      	b.n	10005918 <da_xgty0>

100059be <da_ygtx>:
100059be:	46ac      	mov	ip, r5
100059c0:	2f20      	cmp	r7, #32
100059c2:	da08      	bge.n	100059d6 <da_yrgtx>
100059c4:	3620      	adds	r6, #32
100059c6:	0004      	movs	r4, r0
100059c8:	40b4      	lsls	r4, r6

100059ca <da_ygtx0>:
100059ca:	000d      	movs	r5, r1
100059cc:	40b5      	lsls	r5, r6
100059ce:	40f8      	lsrs	r0, r7
100059d0:	4139      	asrs	r1, r7
100059d2:	4328      	orrs	r0, r5
100059d4:	e7a5      	b.n	10005922 <da_add>

100059d6 <da_yrgtx>:
100059d6:	2f3c      	cmp	r7, #60	; 0x3c
100059d8:	da0c      	bge.n	100059f4 <da_ymgtx>
100059da:	3f20      	subs	r7, #32
100059dc:	3640      	adds	r6, #64	; 0x40
100059de:	0004      	movs	r4, r0
100059e0:	40b4      	lsls	r4, r6
100059e2:	d000      	beq.n	100059e6 <da_yrgtx+0x10>
100059e4:	2401      	movs	r4, #1
100059e6:	40f8      	lsrs	r0, r7
100059e8:	4304      	orrs	r4, r0
100059ea:	0008      	movs	r0, r1
100059ec:	40b1      	lsls	r1, r6
100059ee:	430c      	orrs	r4, r1
100059f0:	17c1      	asrs	r1, r0, #31
100059f2:	e7ea      	b.n	100059ca <da_ygtx0>

100059f4 <da_ymgtx>:
100059f4:	0010      	movs	r0, r2
100059f6:	0019      	movs	r1, r3

100059f8 <da_xmgty>:
100059f8:	2400      	movs	r4, #0
100059fa:	e794      	b.n	10005926 <da_pack>
100059fc:	7ff00000 	.word	0x7ff00000

10005a00 <dmul_shim>:
10005a00:	b5f0      	push	{r4, r5, r6, r7, lr}
10005a02:	0d0c      	lsrs	r4, r1, #20
10005a04:	1e66      	subs	r6, r4, #1
10005a06:	0536      	lsls	r6, r6, #20
10005a08:	1b89      	subs	r1, r1, r6
10005a0a:	0ae6      	lsrs	r6, r4, #11
10005a0c:	0564      	lsls	r4, r4, #21
10005a0e:	0d64      	lsrs	r4, r4, #21
10005a10:	d002      	beq.n	10005a18 <l11_1>
10005a12:	1c65      	adds	r5, r4, #1
10005a14:	0aed      	lsrs	r5, r5, #11
10005a16:	d004      	beq.n	10005a22 <l11_2>

10005a18 <l11_1>:
10005a18:	2000      	movs	r0, #0
10005a1a:	2101      	movs	r1, #1
10005a1c:	0509      	lsls	r1, r1, #20
10005a1e:	3c80      	subs	r4, #128	; 0x80
10005a20:	0324      	lsls	r4, r4, #12

10005a22 <l11_2>:
10005a22:	46a4      	mov	ip, r4
10005a24:	0d1c      	lsrs	r4, r3, #20
10005a26:	1e67      	subs	r7, r4, #1
10005a28:	053f      	lsls	r7, r7, #20
10005a2a:	1bdb      	subs	r3, r3, r7
10005a2c:	0ae7      	lsrs	r7, r4, #11
10005a2e:	0564      	lsls	r4, r4, #21
10005a30:	0d64      	lsrs	r4, r4, #21
10005a32:	d002      	beq.n	10005a3a <l12_1>
10005a34:	1c65      	adds	r5, r4, #1
10005a36:	0aed      	lsrs	r5, r5, #11
10005a38:	d004      	beq.n	10005a44 <l12_2>

10005a3a <l12_1>:
10005a3a:	2200      	movs	r2, #0
10005a3c:	2301      	movs	r3, #1
10005a3e:	051b      	lsls	r3, r3, #20
10005a40:	3c80      	subs	r4, #128	; 0x80
10005a42:	0324      	lsls	r4, r4, #12

10005a44 <l12_2>:
10005a44:	4077      	eors	r7, r6
10005a46:	4464      	add	r4, ip
10005a48:	b497      	push	{r0, r1, r2, r4, r7}
10005a4a:	b284      	uxth	r4, r0
10005a4c:	b296      	uxth	r6, r2
10005a4e:	4374      	muls	r4, r6
10005a50:	0c07      	lsrs	r7, r0, #16
10005a52:	437e      	muls	r6, r7
10005a54:	0c15      	lsrs	r5, r2, #16
10005a56:	436f      	muls	r7, r5
10005a58:	b280      	uxth	r0, r0
10005a5a:	4368      	muls	r0, r5
10005a5c:	1836      	adds	r6, r6, r0
10005a5e:	d302      	bcc.n	10005a66 <l13_1>
10005a60:	2001      	movs	r0, #1
10005a62:	0400      	lsls	r0, r0, #16
10005a64:	183f      	adds	r7, r7, r0

10005a66 <l13_1>:
10005a66:	0430      	lsls	r0, r6, #16
10005a68:	0c35      	lsrs	r5, r6, #16
10005a6a:	1900      	adds	r0, r0, r4
10005a6c:	417d      	adcs	r5, r7
10005a6e:	4684      	mov	ip, r0
10005a70:	b288      	uxth	r0, r1
10005a72:	b29a      	uxth	r2, r3
10005a74:	4350      	muls	r0, r2
10005a76:	0c0c      	lsrs	r4, r1, #16
10005a78:	4362      	muls	r2, r4
10005a7a:	0c1f      	lsrs	r7, r3, #16
10005a7c:	437c      	muls	r4, r7
10005a7e:	b28e      	uxth	r6, r1
10005a80:	437e      	muls	r6, r7
10005a82:	1992      	adds	r2, r2, r6
10005a84:	d302      	bcc.n	10005a8c <l14_1>
10005a86:	2601      	movs	r6, #1
10005a88:	0436      	lsls	r6, r6, #16
10005a8a:	19a4      	adds	r4, r4, r6

10005a8c <l14_1>:
10005a8c:	0416      	lsls	r6, r2, #16
10005a8e:	0c17      	lsrs	r7, r2, #16
10005a90:	1836      	adds	r6, r6, r0
10005a92:	4167      	adcs	r7, r4
10005a94:	bc01      	pop	{r0}
10005a96:	b281      	uxth	r1, r0
10005a98:	b29a      	uxth	r2, r3
10005a9a:	4351      	muls	r1, r2
10005a9c:	0c04      	lsrs	r4, r0, #16
10005a9e:	4362      	muls	r2, r4
10005aa0:	0c1b      	lsrs	r3, r3, #16
10005aa2:	435c      	muls	r4, r3
10005aa4:	b280      	uxth	r0, r0
10005aa6:	4358      	muls	r0, r3
10005aa8:	1812      	adds	r2, r2, r0
10005aaa:	d302      	bcc.n	10005ab2 <l15_1>
10005aac:	2001      	movs	r0, #1
10005aae:	0400      	lsls	r0, r0, #16
10005ab0:	1824      	adds	r4, r4, r0

10005ab2 <l15_1>:
10005ab2:	0410      	lsls	r0, r2, #16
10005ab4:	0c13      	lsrs	r3, r2, #16
10005ab6:	1840      	adds	r0, r0, r1
10005ab8:	4163      	adcs	r3, r4
10005aba:	182d      	adds	r5, r5, r0
10005abc:	415e      	adcs	r6, r3
10005abe:	2000      	movs	r0, #0
10005ac0:	4147      	adcs	r7, r0
10005ac2:	bc06      	pop	{r1, r2}
10005ac4:	b288      	uxth	r0, r1
10005ac6:	b293      	uxth	r3, r2
10005ac8:	4358      	muls	r0, r3
10005aca:	0c0c      	lsrs	r4, r1, #16
10005acc:	4363      	muls	r3, r4
10005ace:	0c12      	lsrs	r2, r2, #16
10005ad0:	4354      	muls	r4, r2
10005ad2:	b289      	uxth	r1, r1
10005ad4:	4351      	muls	r1, r2
10005ad6:	185b      	adds	r3, r3, r1
10005ad8:	d302      	bcc.n	10005ae0 <l16_1>
10005ada:	2101      	movs	r1, #1
10005adc:	0409      	lsls	r1, r1, #16
10005ade:	1864      	adds	r4, r4, r1

10005ae0 <l16_1>:
10005ae0:	0419      	lsls	r1, r3, #16
10005ae2:	0c1a      	lsrs	r2, r3, #16
10005ae4:	1809      	adds	r1, r1, r0
10005ae6:	4162      	adcs	r2, r4
10005ae8:	186d      	adds	r5, r5, r1
10005aea:	4156      	adcs	r6, r2
10005aec:	2000      	movs	r0, #0
10005aee:	4147      	adcs	r7, r0
10005af0:	bc18      	pop	{r3, r4}
10005af2:	02f9      	lsls	r1, r7, #11
10005af4:	0d72      	lsrs	r2, r6, #21
10005af6:	4311      	orrs	r1, r2
10005af8:	02f0      	lsls	r0, r6, #11
10005afa:	0d6a      	lsrs	r2, r5, #21
10005afc:	4310      	orrs	r0, r2
10005afe:	02ed      	lsls	r5, r5, #11
10005b00:	0d0a      	lsrs	r2, r1, #20
10005b02:	d103      	bne.n	10005b0c <l16_1+0x2c>
10005b04:	196d      	adds	r5, r5, r5
10005b06:	4140      	adcs	r0, r0
10005b08:	4149      	adcs	r1, r1
10005b0a:	3b01      	subs	r3, #1
10005b0c:	4e12      	ldr	r6, [pc, #72]	; (10005b58 <dm_1+0xa>)
10005b0e:	1b9b      	subs	r3, r3, r6
10005b10:	0076      	lsls	r6, r6, #1
10005b12:	42b3      	cmp	r3, r6
10005b14:	d20e      	bcs.n	10005b34 <dm_0>
10005b16:	006d      	lsls	r5, r5, #1
10005b18:	d307      	bcc.n	10005b2a <l16_1+0x4a>
10005b1a:	3001      	adds	r0, #1
10005b1c:	2600      	movs	r6, #0
10005b1e:	4171      	adcs	r1, r6
10005b20:	4666      	mov	r6, ip
10005b22:	4335      	orrs	r5, r6
10005b24:	d101      	bne.n	10005b2a <l16_1+0x4a>
10005b26:	0840      	lsrs	r0, r0, #1
10005b28:	0040      	lsls	r0, r0, #1
10005b2a:	051b      	lsls	r3, r3, #20
10005b2c:	18c9      	adds	r1, r1, r3

10005b2e <dm_2>:
10005b2e:	07e4      	lsls	r4, r4, #31
10005b30:	4421      	add	r1, r4
10005b32:	bdf0      	pop	{r4, r5, r6, r7, pc}

10005b34 <dm_0>:
10005b34:	da0b      	bge.n	10005b4e <dm_1>
10005b36:	3301      	adds	r3, #1
10005b38:	d106      	bne.n	10005b48 <dm_0+0x14>
10005b3a:	3001      	adds	r0, #1
10005b3c:	d104      	bne.n	10005b48 <dm_0+0x14>
10005b3e:	3101      	adds	r1, #1
10005b40:	0d4f      	lsrs	r7, r1, #21
10005b42:	d001      	beq.n	10005b48 <dm_0+0x14>
10005b44:	0849      	lsrs	r1, r1, #1
10005b46:	e7f2      	b.n	10005b2e <dm_2>
10005b48:	07e1      	lsls	r1, r4, #31
10005b4a:	2000      	movs	r0, #0
10005b4c:	bdf0      	pop	{r4, r5, r6, r7, pc}

10005b4e <dm_1>:
10005b4e:	3601      	adds	r6, #1
10005b50:	0531      	lsls	r1, r6, #20
10005b52:	2000      	movs	r0, #0
10005b54:	e7eb      	b.n	10005b2e <dm_2>
10005b56:	0000      	.short	0x0000
10005b58:	000003ff 	.word	0x000003ff

10005b5c <ddiv_shim>:
10005b5c:	b5f0      	push	{r4, r5, r6, r7, lr}

10005b5e <ddiv0>:
10005b5e:	0d1c      	lsrs	r4, r3, #20
10005b60:	1e67      	subs	r7, r4, #1
10005b62:	053f      	lsls	r7, r7, #20
10005b64:	1bdb      	subs	r3, r3, r7
10005b66:	0ae7      	lsrs	r7, r4, #11
10005b68:	0564      	lsls	r4, r4, #21
10005b6a:	0d64      	lsrs	r4, r4, #21
10005b6c:	d002      	beq.n	10005b74 <l19_1>
10005b6e:	1c66      	adds	r6, r4, #1
10005b70:	0af6      	lsrs	r6, r6, #11
10005b72:	d004      	beq.n	10005b7e <l19_2>

10005b74 <l19_1>:
10005b74:	2200      	movs	r2, #0
10005b76:	2301      	movs	r3, #1
10005b78:	051b      	lsls	r3, r3, #20
10005b7a:	3c80      	subs	r4, #128	; 0x80
10005b7c:	0324      	lsls	r4, r4, #12

10005b7e <l19_2>:
10005b7e:	25d0      	movs	r5, #208	; 0xd0
10005b80:	062d      	lsls	r5, r5, #24
10005b82:	2600      	movs	r6, #0
10005b84:	43f6      	mvns	r6, r6
10005b86:	662e      	str	r6, [r5, #96]	; 0x60
10005b88:	091e      	lsrs	r6, r3, #4
10005b8a:	666e      	str	r6, [r5, #100]	; 0x64
10005b8c:	0fce      	lsrs	r6, r1, #31
10005b8e:	19f6      	adds	r6, r6, r7
10005b90:	46b4      	mov	ip, r6
10005b92:	0049      	lsls	r1, r1, #1
10005b94:	0d4f      	lsrs	r7, r1, #21
10005b96:	d002      	beq.n	10005b9e <l19_2+0x20>
10005b98:	1c7e      	adds	r6, r7, #1
10005b9a:	0af6      	lsrs	r6, r6, #11
10005b9c:	d003      	beq.n	10005ba6 <l19_2+0x28>
10005b9e:	2000      	movs	r0, #0
10005ba0:	2100      	movs	r1, #0
10005ba2:	3f40      	subs	r7, #64	; 0x40
10005ba4:	033f      	lsls	r7, r7, #12
10005ba6:	1b3e      	subs	r6, r7, r4
10005ba8:	00b6      	lsls	r6, r6, #2
10005baa:	44b4      	add	ip, r6
10005bac:	3f01      	subs	r7, #1
10005bae:	057f      	lsls	r7, r7, #21
10005bb0:	1bc9      	subs	r1, r1, r7
10005bb2:	0849      	lsrs	r1, r1, #1
10005bb4:	6f2e      	ldr	r6, [r5, #112]	; 0x70
10005bb6:	3601      	adds	r6, #1
10005bb8:	0876      	lsrs	r6, r6, #1
10005bba:	029c      	lsls	r4, r3, #10
10005bbc:	0d95      	lsrs	r5, r2, #22
10005bbe:	4325      	orrs	r5, r4
10005bc0:	4375      	muls	r5, r6
10005bc2:	13ed      	asrs	r5, r5, #15
10005bc4:	4375      	muls	r5, r6
10005bc6:	13ad      	asrs	r5, r5, #14
10005bc8:	3501      	adds	r5, #1
10005bca:	106d      	asrs	r5, r5, #1
10005bcc:	03f6      	lsls	r6, r6, #15
10005bce:	1b76      	subs	r6, r6, r5
10005bd0:	b40c      	push	{r2, r3}
10005bd2:	02cc      	lsls	r4, r1, #11
10005bd4:	0d45      	lsrs	r5, r0, #21
10005bd6:	432c      	orrs	r4, r5
10005bd8:	b2a2      	uxth	r2, r4
10005bda:	b2b3      	uxth	r3, r6
10005bdc:	435a      	muls	r2, r3
10005bde:	0c27      	lsrs	r7, r4, #16
10005be0:	437b      	muls	r3, r7
10005be2:	0c35      	lsrs	r5, r6, #16
10005be4:	436f      	muls	r7, r5
10005be6:	b2a4      	uxth	r4, r4
10005be8:	436c      	muls	r4, r5
10005bea:	191b      	adds	r3, r3, r4
10005bec:	d302      	bcc.n	10005bf4 <l20_1>
10005bee:	2401      	movs	r4, #1
10005bf0:	0424      	lsls	r4, r4, #16
10005bf2:	193f      	adds	r7, r7, r4

10005bf4 <l20_1>:
10005bf4:	041c      	lsls	r4, r3, #16
10005bf6:	0c1d      	lsrs	r5, r3, #16
10005bf8:	18a4      	adds	r4, r4, r2
10005bfa:	417d      	adcs	r5, r7
10005bfc:	1924      	adds	r4, r4, r4
10005bfe:	416d      	adcs	r5, r5
10005c00:	9a00      	ldr	r2, [sp, #0]
10005c02:	b291      	uxth	r1, r2
10005c04:	b2ac      	uxth	r4, r5
10005c06:	4361      	muls	r1, r4
10005c08:	0c17      	lsrs	r7, r2, #16
10005c0a:	437c      	muls	r4, r7
10005c0c:	0c2b      	lsrs	r3, r5, #16
10005c0e:	435f      	muls	r7, r3
10005c10:	b292      	uxth	r2, r2
10005c12:	435a      	muls	r2, r3
10005c14:	18a4      	adds	r4, r4, r2
10005c16:	d302      	bcc.n	10005c1e <l21_1>
10005c18:	2201      	movs	r2, #1
10005c1a:	0412      	lsls	r2, r2, #16
10005c1c:	18bf      	adds	r7, r7, r2

10005c1e <l21_1>:
10005c1e:	0422      	lsls	r2, r4, #16
10005c20:	0c23      	lsrs	r3, r4, #16
10005c22:	1852      	adds	r2, r2, r1
10005c24:	417b      	adcs	r3, r7
10005c26:	9c01      	ldr	r4, [sp, #4]
10005c28:	436c      	muls	r4, r5
10005c2a:	191b      	adds	r3, r3, r4
10005c2c:	0e52      	lsrs	r2, r2, #25
10005c2e:	01d9      	lsls	r1, r3, #7
10005c30:	430a      	orrs	r2, r1
10005c32:	0144      	lsls	r4, r0, #5
10005c34:	1aa0      	subs	r0, r4, r2
10005c36:	b281      	uxth	r1, r0
10005c38:	b2b2      	uxth	r2, r6
10005c3a:	4351      	muls	r1, r2
10005c3c:	1403      	asrs	r3, r0, #16
10005c3e:	435a      	muls	r2, r3
10005c40:	0c36      	lsrs	r6, r6, #16
10005c42:	4373      	muls	r3, r6
10005c44:	b287      	uxth	r7, r0
10005c46:	4377      	muls	r7, r6
10005c48:	17d6      	asrs	r6, r2, #31
10005c4a:	19d2      	adds	r2, r2, r7
10005c4c:	2700      	movs	r7, #0
10005c4e:	417e      	adcs	r6, r7
10005c50:	0436      	lsls	r6, r6, #16
10005c52:	199b      	adds	r3, r3, r6
10005c54:	0417      	lsls	r7, r2, #16
10005c56:	0c16      	lsrs	r6, r2, #16
10005c58:	187f      	adds	r7, r7, r1
10005c5a:	415e      	adcs	r6, r3
10005c5c:	1673      	asrs	r3, r6, #25
10005c5e:	18ed      	adds	r5, r5, r3
10005c60:	01f3      	lsls	r3, r6, #7
10005c62:	2600      	movs	r6, #0
10005c64:	3380      	adds	r3, #128	; 0x80
10005c66:	4175      	adcs	r5, r6
10005c68:	0fa9      	lsrs	r1, r5, #30
10005c6a:	d106      	bne.n	10005c7a <dd_0>
10005c6c:	0064      	lsls	r4, r4, #1
10005c6e:	0a69      	lsrs	r1, r5, #9
10005c70:	05e8      	lsls	r0, r5, #23
10005c72:	0a5b      	lsrs	r3, r3, #9
10005c74:	4318      	orrs	r0, r3
10005c76:	d209      	bcs.n	10005c8c <dd_1>
10005c78:	e02f      	b.n	10005cda <dd_2>

10005c7a <dd_0>:
10005c7a:	2204      	movs	r2, #4
10005c7c:	4494      	add	ip, r2
10005c7e:	3380      	adds	r3, #128	; 0x80
10005c80:	4175      	adcs	r5, r6
10005c82:	0aa9      	lsrs	r1, r5, #10
10005c84:	05a8      	lsls	r0, r5, #22
10005c86:	0a9b      	lsrs	r3, r3, #10
10005c88:	4318      	orrs	r0, r3
10005c8a:	d326      	bcc.n	10005cda <dd_2>

10005c8c <dd_1>:
10005c8c:	4140      	adcs	r0, r0
10005c8e:	4149      	adcs	r1, r1
10005c90:	0424      	lsls	r4, r4, #16
10005c92:	9a00      	ldr	r2, [sp, #0]
10005c94:	9b01      	ldr	r3, [sp, #4]
10005c96:	000d      	movs	r5, r1
10005c98:	4355      	muls	r5, r2
10005c9a:	1b64      	subs	r4, r4, r5
10005c9c:	4343      	muls	r3, r0
10005c9e:	1ae4      	subs	r4, r4, r3
10005ca0:	b295      	uxth	r5, r2
10005ca2:	b286      	uxth	r6, r0
10005ca4:	4375      	muls	r5, r6
10005ca6:	0c17      	lsrs	r7, r2, #16
10005ca8:	437e      	muls	r6, r7
10005caa:	0c03      	lsrs	r3, r0, #16
10005cac:	435f      	muls	r7, r3
10005cae:	b292      	uxth	r2, r2
10005cb0:	435a      	muls	r2, r3
10005cb2:	18b6      	adds	r6, r6, r2
10005cb4:	d302      	bcc.n	10005cbc <l23_1>
10005cb6:	2201      	movs	r2, #1
10005cb8:	0412      	lsls	r2, r2, #16
10005cba:	18bf      	adds	r7, r7, r2

10005cbc <l23_1>:
10005cbc:	0432      	lsls	r2, r6, #16
10005cbe:	0c33      	lsrs	r3, r6, #16
10005cc0:	1952      	adds	r2, r2, r5
10005cc2:	417b      	adcs	r3, r7
10005cc4:	4252      	negs	r2, r2
10005cc6:	419c      	sbcs	r4, r3
10005cc8:	2c00      	cmp	r4, #0
10005cca:	d402      	bmi.n	10005cd2 <l23_1+0x16>
10005ccc:	2200      	movs	r2, #0
10005cce:	3001      	adds	r0, #1
10005cd0:	4151      	adcs	r1, r2
10005cd2:	0840      	lsrs	r0, r0, #1
10005cd4:	07ca      	lsls	r2, r1, #31
10005cd6:	4310      	orrs	r0, r2
10005cd8:	0849      	lsrs	r1, r1, #1

10005cda <dd_2>:
10005cda:	b002      	add	sp, #8
10005cdc:	4662      	mov	r2, ip
10005cde:	07d7      	lsls	r7, r2, #31
10005ce0:	1092      	asrs	r2, r2, #2
10005ce2:	4b08      	ldr	r3, [pc, #32]	; (10005d04 <dd_4+0x6>)
10005ce4:	18d2      	adds	r2, r2, r3
10005ce6:	4b08      	ldr	r3, [pc, #32]	; (10005d08 <dd_4+0xa>)
10005ce8:	429a      	cmp	r2, r3
10005cea:	d203      	bcs.n	10005cf4 <dd_3>
10005cec:	0512      	lsls	r2, r2, #20
10005cee:	1889      	adds	r1, r1, r2

10005cf0 <dd_5>:
10005cf0:	19c9      	adds	r1, r1, r7
10005cf2:	bdf0      	pop	{r4, r5, r6, r7, pc}

10005cf4 <dd_3>:
10005cf4:	2000      	movs	r0, #0
10005cf6:	2a00      	cmp	r2, #0
10005cf8:	dc01      	bgt.n	10005cfe <dd_4>
10005cfa:	0039      	movs	r1, r7
10005cfc:	bdf0      	pop	{r4, r5, r6, r7, pc}

10005cfe <dd_4>:
10005cfe:	3301      	adds	r3, #1
10005d00:	0519      	lsls	r1, r3, #20
10005d02:	e7f5      	b.n	10005cf0 <dd_5>
10005d04:	000003fd 	.word	0x000003fd
10005d08:	000007fe 	.word	0x000007fe

10005d0c <double2uint_shim>:
10005d0c:	2200      	movs	r2, #0

10005d0e <double2ufix_shim>:
10005d0e:	b500      	push	{lr}
10005d10:	3220      	adds	r2, #32
10005d12:	f000 f804 	bl	10005d1e <double2ufix64_shim>
10005d16:	0008      	movs	r0, r1
10005d18:	bd00      	pop	{pc}
	...

10005d1c <double2uint64_shim>:
10005d1c:	2200      	movs	r2, #0

10005d1e <double2ufix64_shim>:
10005d1e:	150b      	asrs	r3, r1, #20
10005d20:	d40a      	bmi.n	10005d38 <ret_dzero>

10005d22 <d2fix>:
10005d22:	b510      	push	{r4, lr}
10005d24:	4694      	mov	ip, r2
10005d26:	f000 f831 	bl	10005d8c <dunpacks>
10005d2a:	1414      	asrs	r4, r2, #16
10005d2c:	3401      	adds	r4, #1
10005d2e:	da00      	bge.n	10005d32 <d2fix+0x10>
10005d30:	2100      	movs	r1, #0
10005d32:	17cb      	asrs	r3, r1, #31
10005d34:	4c14      	ldr	r4, [pc, #80]	; (10005d88 <d2fix_a+0x4a>)
10005d36:	4720      	bx	r4

10005d38 <ret_dzero>:
10005d38:	2000      	movs	r0, #0
10005d3a:	2100      	movs	r1, #0
10005d3c:	4770      	bx	lr

10005d3e <d2fix_a>:
10005d3e:	4462      	add	r2, ip
10005d40:	3a34      	subs	r2, #52	; 0x34
10005d42:	d40c      	bmi.n	10005d5e <d2fix_a+0x20>
10005d44:	2a0c      	cmp	r2, #12
10005d46:	da07      	bge.n	10005d58 <d2fix_a+0x1a>
10005d48:	0004      	movs	r4, r0
10005d4a:	4091      	lsls	r1, r2
10005d4c:	4090      	lsls	r0, r2
10005d4e:	4252      	negs	r2, r2
10005d50:	3220      	adds	r2, #32
10005d52:	40d4      	lsrs	r4, r2
10005d54:	4321      	orrs	r1, r4
10005d56:	bd10      	pop	{r4, pc}
10005d58:	43d8      	mvns	r0, r3
10005d5a:	43d9      	mvns	r1, r3
10005d5c:	bd10      	pop	{r4, pc}
10005d5e:	3220      	adds	r2, #32
10005d60:	d407      	bmi.n	10005d72 <d2fix_a+0x34>
10005d62:	460c      	mov	r4, r1
10005d64:	4094      	lsls	r4, r2
10005d66:	4252      	negs	r2, r2
10005d68:	3220      	adds	r2, #32
10005d6a:	4111      	asrs	r1, r2
10005d6c:	40d0      	lsrs	r0, r2
10005d6e:	4320      	orrs	r0, r4
10005d70:	bd10      	pop	{r4, pc}
10005d72:	0008      	movs	r0, r1
10005d74:	17c9      	asrs	r1, r1, #31
10005d76:	3220      	adds	r2, #32
10005d78:	d403      	bmi.n	10005d82 <d2fix_a+0x44>
10005d7a:	4252      	negs	r2, r2
10005d7c:	3220      	adds	r2, #32
10005d7e:	4110      	asrs	r0, r2
10005d80:	bd10      	pop	{r4, pc}
10005d82:	0018      	movs	r0, r3
10005d84:	0019      	movs	r1, r3
10005d86:	bd10      	pop	{r4, pc}
10005d88:	10005d3f 	.word	0x10005d3f

10005d8c <dunpacks>:
10005d8c:	0d0a      	lsrs	r2, r1, #20
10005d8e:	0fcc      	lsrs	r4, r1, #31
10005d90:	1e53      	subs	r3, r2, #1
10005d92:	051b      	lsls	r3, r3, #20
10005d94:	1ac9      	subs	r1, r1, r3
10005d96:	0552      	lsls	r2, r2, #21
10005d98:	d303      	bcc.n	10005da2 <l60_1>
10005d9a:	43c9      	mvns	r1, r1
10005d9c:	4240      	negs	r0, r0
10005d9e:	d300      	bcc.n	10005da2 <l60_1>
10005da0:	3101      	adds	r1, #1

10005da2 <l60_1>:
10005da2:	0d52      	lsrs	r2, r2, #21
10005da4:	d003      	beq.n	10005dae <l60_2>
10005da6:	1c53      	adds	r3, r2, #1
10005da8:	0adb      	lsrs	r3, r3, #11
10005daa:	d007      	beq.n	10005dbc <l60_3>
10005dac:	1b12      	subs	r2, r2, r4

10005dae <l60_2>:
10005dae:	2000      	movs	r0, #0
10005db0:	0064      	lsls	r4, r4, #1
10005db2:	1c61      	adds	r1, r4, #1
10005db4:	0789      	lsls	r1, r1, #30
10005db6:	1289      	asrs	r1, r1, #10
10005db8:	3a80      	subs	r2, #128	; 0x80
10005dba:	0312      	lsls	r2, r2, #12

10005dbc <l60_3>:
10005dbc:	4b01      	ldr	r3, [pc, #4]	; (10005dc4 <l60_3+0x8>)
10005dbe:	1ad2      	subs	r2, r2, r3
10005dc0:	4770      	bx	lr
10005dc2:	0000      	.short	0x0000
10005dc4:	000003ff 	.word	0x000003ff

10005dc8 <__aeabi_float_init>:
10005dc8:	b570      	push	{r4, r5, r6, lr}
10005dca:	2313      	movs	r3, #19
10005dcc:	781d      	ldrb	r5, [r3, #0]
10005dce:	482a      	ldr	r0, [pc, #168]	; (10005e78 <__aeabi_float_init+0xb0>)
10005dd0:	f7ff f96a 	bl	100050a8 <rom_data_lookup>
10005dd4:	0004      	movs	r4, r0
10005dd6:	2d01      	cmp	r5, #1
10005dd8:	d011      	beq.n	10005dfe <__aeabi_float_init+0x36>
10005dda:	2d01      	cmp	r5, #1
10005ddc:	dd09      	ble.n	10005df2 <__aeabi_float_init+0x2a>
10005dde:	1ea3      	subs	r3, r4, #2
10005de0:	781b      	ldrb	r3, [r3, #0]
10005de2:	009b      	lsls	r3, r3, #2
10005de4:	2b7f      	cmp	r3, #127	; 0x7f
10005de6:	dd40      	ble.n	10005e6a <__aeabi_float_init+0xa2>
10005de8:	2280      	movs	r2, #128	; 0x80
10005dea:	0021      	movs	r1, r4
10005dec:	4823      	ldr	r0, [pc, #140]	; (10005e7c <__aeabi_float_init+0xb4>)
10005dee:	f000 f891 	bl	10005f14 <__wrap___aeabi_memcpy>
10005df2:	4823      	ldr	r0, [pc, #140]	; (10005e80 <__aeabi_float_init+0xb8>)
10005df4:	f7ff f950 	bl	10005098 <rom_func_lookup>
10005df8:	4b22      	ldr	r3, [pc, #136]	; (10005e84 <__aeabi_float_init+0xbc>)
10005dfa:	6018      	str	r0, [r3, #0]
10005dfc:	bd70      	pop	{r4, r5, r6, pc}
10005dfe:	2254      	movs	r2, #84	; 0x54
10005e00:	0001      	movs	r1, r0
10005e02:	481e      	ldr	r0, [pc, #120]	; (10005e7c <__aeabi_float_init+0xb4>)
10005e04:	f000 f886 	bl	10005f14 <__wrap___aeabi_memcpy>
10005e08:	4b1f      	ldr	r3, [pc, #124]	; (10005e88 <__aeabi_float_init+0xc0>)
10005e0a:	881a      	ldrh	r2, [r3, #0]
10005e0c:	4b1f      	ldr	r3, [pc, #124]	; (10005e8c <__aeabi_float_init+0xc4>)
10005e0e:	429a      	cmp	r2, r3
10005e10:	d11c      	bne.n	10005e4c <__aeabi_float_init+0x84>
10005e12:	23a7      	movs	r3, #167	; 0xa7
10005e14:	019b      	lsls	r3, r3, #6
10005e16:	881a      	ldrh	r2, [r3, #0]
10005e18:	4b1d      	ldr	r3, [pc, #116]	; (10005e90 <__aeabi_float_init+0xc8>)
10005e1a:	429a      	cmp	r2, r3
10005e1c:	d116      	bne.n	10005e4c <__aeabi_float_init+0x84>
10005e1e:	4b1d      	ldr	r3, [pc, #116]	; (10005e94 <__aeabi_float_init+0xcc>)
10005e20:	881a      	ldrh	r2, [r3, #0]
10005e22:	4b1d      	ldr	r3, [pc, #116]	; (10005e98 <__aeabi_float_init+0xd0>)
10005e24:	429a      	cmp	r2, r3
10005e26:	d111      	bne.n	10005e4c <__aeabi_float_init+0x84>
10005e28:	4b1c      	ldr	r3, [pc, #112]	; (10005e9c <__aeabi_float_init+0xd4>)
10005e2a:	881a      	ldrh	r2, [r3, #0]
10005e2c:	2394      	movs	r3, #148	; 0x94
10005e2e:	019b      	lsls	r3, r3, #6
10005e30:	429a      	cmp	r2, r3
10005e32:	d10b      	bne.n	10005e4c <__aeabi_float_init+0x84>
10005e34:	4b1a      	ldr	r3, [pc, #104]	; (10005ea0 <__aeabi_float_init+0xd8>)
10005e36:	881a      	ldrh	r2, [r3, #0]
10005e38:	4b1a      	ldr	r3, [pc, #104]	; (10005ea4 <__aeabi_float_init+0xdc>)
10005e3a:	429a      	cmp	r2, r3
10005e3c:	d106      	bne.n	10005e4c <__aeabi_float_init+0x84>
10005e3e:	4b1a      	ldr	r3, [pc, #104]	; (10005ea8 <__aeabi_float_init+0xe0>)
10005e40:	681a      	ldr	r2, [r3, #0]
10005e42:	4b1a      	ldr	r3, [pc, #104]	; (10005eac <__aeabi_float_init+0xe4>)
10005e44:	429a      	cmp	r2, r3
10005e46:	d101      	bne.n	10005e4c <__aeabi_float_init+0x84>
10005e48:	2315      	movs	r3, #21
10005e4a:	e007      	b.n	10005e5c <__aeabi_float_init+0x94>
10005e4c:	4818      	ldr	r0, [pc, #96]	; (10005eb0 <__aeabi_float_init+0xe8>)
10005e4e:	f7fd fc99 	bl	10003784 <panic>
10005e52:	0099      	lsls	r1, r3, #2
10005e54:	4817      	ldr	r0, [pc, #92]	; (10005eb4 <__aeabi_float_init+0xec>)
10005e56:	4a09      	ldr	r2, [pc, #36]	; (10005e7c <__aeabi_float_init+0xb4>)
10005e58:	5088      	str	r0, [r1, r2]
10005e5a:	3301      	adds	r3, #1
10005e5c:	2b1f      	cmp	r3, #31
10005e5e:	d9f8      	bls.n	10005e52 <__aeabi_float_init+0x8a>
10005e60:	4a14      	ldr	r2, [pc, #80]	; (10005eb4 <__aeabi_float_init+0xec>)
10005e62:	4b06      	ldr	r3, [pc, #24]	; (10005e7c <__aeabi_float_init+0xb4>)
10005e64:	621a      	str	r2, [r3, #32]
10005e66:	61da      	str	r2, [r3, #28]
10005e68:	e7b7      	b.n	10005dda <__aeabi_float_init+0x12>
10005e6a:	4b13      	ldr	r3, [pc, #76]	; (10005eb8 <__aeabi_float_init+0xf0>)
10005e6c:	4a13      	ldr	r2, [pc, #76]	; (10005ebc <__aeabi_float_init+0xf4>)
10005e6e:	2142      	movs	r1, #66	; 0x42
10005e70:	4813      	ldr	r0, [pc, #76]	; (10005ec0 <__aeabi_float_init+0xf8>)
10005e72:	f7fd fbed 	bl	10003650 <__assert_func>
10005e76:	46c0      	nop			; (mov r8, r8)
10005e78:	00004653 	.word	0x00004653
10005e7c:	200007e8 	.word	0x200007e8
10005e80:	0000334c 	.word	0x0000334c
10005e84:	200007e4 	.word	0x200007e4
10005e88:	000029ee 	.word	0x000029ee
10005e8c:	00000fc4 	.word	0x00000fc4
10005e90:	00000dc2 	.word	0x00000dc2
10005e94:	00002b96 	.word	0x00002b96
10005e98:	0000b5c0 	.word	0x0000b5c0
10005e9c:	00002b18 	.word	0x00002b18
10005ea0:	00002acc 	.word	0x00002acc
10005ea4:	0000b510 	.word	0x0000b510
10005ea8:	00002cfc 	.word	0x00002cfc
10005eac:	6487ed51 	.word	0x6487ed51
10005eb0:	1000743c 	.word	0x1000743c
10005eb4:	10005ec5 	.word	0x10005ec5
10005eb8:	10007bd8 	.word	0x10007bd8
10005ebc:	10007c60 	.word	0x10007c60
10005ec0:	10007c0c 	.word	0x10007c0c

10005ec4 <float_table_shim_on_use_helper>:
10005ec4:	b507      	push	{r0, r1, r2, lr}
10005ec6:	4660      	mov	r0, ip
10005ec8:	2800      	cmp	r0, #0
10005eca:	d100      	bne.n	10005ece <float_table_shim_on_use_helper+0xa>
10005ecc:	be00      	bkpt	0x0000
10005ece:	8801      	ldrh	r1, [r0, #0]
10005ed0:	0a0a      	lsrs	r2, r1, #8
10005ed2:	3002      	adds	r0, #2
10005ed4:	2adf      	cmp	r2, #223	; 0xdf
10005ed6:	d1fa      	bne.n	10005ece <float_table_shim_on_use_helper+0xa>
10005ed8:	b2c9      	uxtb	r1, r1
10005eda:	0882      	lsrs	r2, r0, #2
10005edc:	d304      	bcc.n	10005ee8 <float_table_shim_on_use_helper+0x24>
10005ede:	8802      	ldrh	r2, [r0, #0]
10005ee0:	8840      	ldrh	r0, [r0, #2]
10005ee2:	0400      	lsls	r0, r0, #16
10005ee4:	4310      	orrs	r0, r2
10005ee6:	e000      	b.n	10005eea <float_table_shim_on_use_helper+0x26>
10005ee8:	6800      	ldr	r0, [r0, #0]
10005eea:	4a02      	ldr	r2, [pc, #8]	; (10005ef4 <float_table_shim_on_use_helper+0x30>)
10005eec:	5050      	str	r0, [r2, r1]
10005eee:	9003      	str	r0, [sp, #12]
10005ef0:	bd07      	pop	{r0, r1, r2, pc}
10005ef2:	0000      	.short	0x0000
10005ef4:	200007e8 	.word	0x200007e8

10005ef8 <__aeabi_mem_init>:
10005ef8:	4801      	ldr	r0, [pc, #4]	; (10005f00 <__aeabi_mem_init+0x8>)
10005efa:	2104      	movs	r1, #4
10005efc:	4b01      	ldr	r3, [pc, #4]	; (10005f04 <__aeabi_mem_init+0xc>)
10005efe:	4718      	bx	r3
10005f00:	20000260 	.word	0x20000260
10005f04:	100050b9 	.word	0x100050b9

10005f08 <__wrap_memset>:
10005f08:	4b01      	ldr	r3, [pc, #4]	; (10005f10 <__wrap_memset+0x8>)
10005f0a:	681b      	ldr	r3, [r3, #0]
10005f0c:	4718      	bx	r3
10005f0e:	0000      	.short	0x0000
10005f10:	20000260 	.word	0x20000260

10005f14 <__wrap___aeabi_memcpy>:
10005f14:	4b01      	ldr	r3, [pc, #4]	; (10005f1c <__wrap___aeabi_memcpy+0x8>)
10005f16:	685b      	ldr	r3, [r3, #4]
10005f18:	4718      	bx	r3
10005f1a:	0000      	.short	0x0000
10005f1c:	20000260 	.word	0x20000260

10005f20 <stdio_out_chars_no_crlf>:
10005f20:	b510      	push	{r4, lr}
10005f22:	0003      	movs	r3, r0
10005f24:	0008      	movs	r0, r1
10005f26:	0011      	movs	r1, r2
10005f28:	681b      	ldr	r3, [r3, #0]
10005f2a:	4798      	blx	r3
10005f2c:	bd10      	pop	{r4, pc}
	...

10005f30 <stdio_out_chars_crlf>:
10005f30:	b5f8      	push	{r3, r4, r5, r6, r7, lr}
10005f32:	0007      	movs	r7, r0
10005f34:	000d      	movs	r5, r1
10005f36:	0016      	movs	r6, r2
10005f38:	7c43      	ldrb	r3, [r0, #17]
10005f3a:	2b00      	cmp	r3, #0
10005f3c:	d002      	beq.n	10005f44 <stdio_out_chars_crlf+0x14>
10005f3e:	2400      	movs	r4, #0
10005f40:	2000      	movs	r0, #0
10005f42:	e00c      	b.n	10005f5e <stdio_out_chars_crlf+0x2e>
10005f44:	6803      	ldr	r3, [r0, #0]
10005f46:	0011      	movs	r1, r2
10005f48:	0028      	movs	r0, r5
10005f4a:	4798      	blx	r3
10005f4c:	e02d      	b.n	10005faa <stdio_out_chars_crlf+0x7a>
10005f4e:	7c3b      	ldrb	r3, [r7, #16]
10005f50:	e010      	b.n	10005f74 <stdio_out_chars_crlf+0x44>
10005f52:	2102      	movs	r1, #2
10005f54:	4815      	ldr	r0, [pc, #84]	; (10005fac <stdio_out_chars_crlf+0x7c>)
10005f56:	683b      	ldr	r3, [r7, #0]
10005f58:	4798      	blx	r3
10005f5a:	1c60      	adds	r0, r4, #1
10005f5c:	3401      	adds	r4, #1
10005f5e:	42b4      	cmp	r4, r6
10005f60:	da14      	bge.n	10005f8c <stdio_out_chars_crlf+0x5c>
10005f62:	2c00      	cmp	r4, #0
10005f64:	ddf3      	ble.n	10005f4e <stdio_out_chars_crlf+0x1e>
10005f66:	192b      	adds	r3, r5, r4
10005f68:	3b01      	subs	r3, #1
10005f6a:	781b      	ldrb	r3, [r3, #0]
10005f6c:	3b0d      	subs	r3, #13
10005f6e:	425a      	negs	r2, r3
10005f70:	4153      	adcs	r3, r2
10005f72:	b2db      	uxtb	r3, r3
10005f74:	5d2a      	ldrb	r2, [r5, r4]
10005f76:	2a0a      	cmp	r2, #10
10005f78:	d1f0      	bne.n	10005f5c <stdio_out_chars_crlf+0x2c>
10005f7a:	2b00      	cmp	r3, #0
10005f7c:	d1ee      	bne.n	10005f5c <stdio_out_chars_crlf+0x2c>
10005f7e:	42a0      	cmp	r0, r4
10005f80:	dae7      	bge.n	10005f52 <stdio_out_chars_crlf+0x22>
10005f82:	1a21      	subs	r1, r4, r0
10005f84:	1828      	adds	r0, r5, r0
10005f86:	683b      	ldr	r3, [r7, #0]
10005f88:	4798      	blx	r3
10005f8a:	e7e2      	b.n	10005f52 <stdio_out_chars_crlf+0x22>
10005f8c:	42b0      	cmp	r0, r6
10005f8e:	da03      	bge.n	10005f98 <stdio_out_chars_crlf+0x68>
10005f90:	1a31      	subs	r1, r6, r0
10005f92:	1828      	adds	r0, r5, r0
10005f94:	683b      	ldr	r3, [r7, #0]
10005f96:	4798      	blx	r3
10005f98:	2e00      	cmp	r6, #0
10005f9a:	dd06      	ble.n	10005faa <stdio_out_chars_crlf+0x7a>
10005f9c:	19ad      	adds	r5, r5, r6
10005f9e:	3d01      	subs	r5, #1
10005fa0:	782b      	ldrb	r3, [r5, #0]
10005fa2:	3b0d      	subs	r3, #13
10005fa4:	425a      	negs	r2, r3
10005fa6:	4153      	adcs	r3, r2
10005fa8:	743b      	strb	r3, [r7, #16]
10005faa:	bdf8      	pop	{r3, r4, r5, r6, r7, pc}
10005fac:	10007cd8 	.word	0x10007cd8

10005fb0 <stdio_stack_buffer_flush>:
10005fb0:	b570      	push	{r4, r5, r6, lr}
10005fb2:	0005      	movs	r5, r0
10005fb4:	6803      	ldr	r3, [r0, #0]
10005fb6:	2b00      	cmp	r3, #0
10005fb8:	d016      	beq.n	10005fe8 <stdio_stack_buffer_flush+0x38>
10005fba:	4b0c      	ldr	r3, [pc, #48]	; (10005fec <stdio_stack_buffer_flush+0x3c>)
10005fbc:	681c      	ldr	r4, [r3, #0]
10005fbe:	e005      	b.n	10005fcc <stdio_stack_buffer_flush+0x1c>
10005fc0:	0029      	movs	r1, r5
10005fc2:	c904      	ldmia	r1!, {r2}
10005fc4:	0020      	movs	r0, r4
10005fc6:	f7ff ffb3 	bl	10005f30 <stdio_out_chars_crlf>
10005fca:	68e4      	ldr	r4, [r4, #12]
10005fcc:	2c00      	cmp	r4, #0
10005fce:	d009      	beq.n	10005fe4 <stdio_stack_buffer_flush+0x34>
10005fd0:	6823      	ldr	r3, [r4, #0]
10005fd2:	2b00      	cmp	r3, #0
10005fd4:	d0f9      	beq.n	10005fca <stdio_stack_buffer_flush+0x1a>
10005fd6:	4b06      	ldr	r3, [pc, #24]	; (10005ff0 <stdio_stack_buffer_flush+0x40>)
10005fd8:	681b      	ldr	r3, [r3, #0]
10005fda:	2b00      	cmp	r3, #0
10005fdc:	d0f0      	beq.n	10005fc0 <stdio_stack_buffer_flush+0x10>
10005fde:	42a3      	cmp	r3, r4
10005fe0:	d1f3      	bne.n	10005fca <stdio_stack_buffer_flush+0x1a>
10005fe2:	e7ed      	b.n	10005fc0 <stdio_stack_buffer_flush+0x10>
10005fe4:	2300      	movs	r3, #0
10005fe6:	602b      	str	r3, [r5, #0]
10005fe8:	bd70      	pop	{r4, r5, r6, pc}
10005fea:	46c0      	nop			; (mov r8, r8)
10005fec:	2000042c 	.word	0x2000042c
10005ff0:	20000430 	.word	0x20000430

10005ff4 <stdio_buffered_printer>:
10005ff4:	b570      	push	{r4, r5, r6, lr}
10005ff6:	0005      	movs	r5, r0
10005ff8:	000c      	movs	r4, r1
10005ffa:	680b      	ldr	r3, [r1, #0]
10005ffc:	2b80      	cmp	r3, #128	; 0x80
10005ffe:	d005      	beq.n	1000600c <stdio_buffered_printer+0x18>
10006000:	6821      	ldr	r1, [r4, #0]
10006002:	1c4b      	adds	r3, r1, #1
10006004:	6023      	str	r3, [r4, #0]
10006006:	1864      	adds	r4, r4, r1
10006008:	7125      	strb	r5, [r4, #4]
1000600a:	bd70      	pop	{r4, r5, r6, pc}
1000600c:	0008      	movs	r0, r1
1000600e:	f7ff ffcf 	bl	10005fb0 <stdio_stack_buffer_flush>
10006012:	e7f5      	b.n	10006000 <stdio_buffered_printer+0xc>

10006014 <stdout_serialize_begin>:
10006014:	b510      	push	{r4, lr}
10006016:	b082      	sub	sp, #8
10006018:	f7fa fb6c 	bl	100006f4 <ulPortLockGetCurrentOwnerId>
1000601c:	0004      	movs	r4, r0
1000601e:	a901      	add	r1, sp, #4
10006020:	4806      	ldr	r0, [pc, #24]	; (1000603c <stdout_serialize_begin+0x28>)
10006022:	f000 f985 	bl	10006330 <__mutex_try_enter_veneer>
10006026:	2800      	cmp	r0, #0
10006028:	d106      	bne.n	10006038 <stdout_serialize_begin+0x24>
1000602a:	9b01      	ldr	r3, [sp, #4]
1000602c:	42a3      	cmp	r3, r4
1000602e:	d003      	beq.n	10006038 <stdout_serialize_begin+0x24>
10006030:	4802      	ldr	r0, [pc, #8]	; (1000603c <stdout_serialize_begin+0x28>)
10006032:	f000 f985 	bl	10006340 <__mutex_enter_blocking_veneer>
10006036:	2001      	movs	r0, #1
10006038:	b002      	add	sp, #8
1000603a:	bd10      	pop	{r4, pc}
1000603c:	20000278 	.word	0x20000278

10006040 <stdout_serialize_end>:
10006040:	b510      	push	{r4, lr}
10006042:	4802      	ldr	r0, [pc, #8]	; (1000604c <stdout_serialize_end+0xc>)
10006044:	f000 f95c 	bl	10006300 <__mutex_exit_veneer>
10006048:	bd10      	pop	{r4, pc}
1000604a:	46c0      	nop			; (mov r8, r8)
1000604c:	20000278 	.word	0x20000278

10006050 <stdio_put_string>:
10006050:	b5f0      	push	{r4, r5, r6, r7, lr}
10006052:	46ce      	mov	lr, r9
10006054:	4647      	mov	r7, r8
10006056:	b580      	push	{r7, lr}
10006058:	b083      	sub	sp, #12
1000605a:	0006      	movs	r6, r0
1000605c:	000d      	movs	r5, r1
1000605e:	4690      	mov	r8, r2
10006060:	001c      	movs	r4, r3
10006062:	f7ff ffd7 	bl	10006014 <stdout_serialize_begin>
10006066:	4681      	mov	r9, r0
10006068:	1c6b      	adds	r3, r5, #1
1000606a:	d005      	beq.n	10006078 <stdio_put_string+0x28>
1000606c:	2c00      	cmp	r4, #0
1000606e:	d008      	beq.n	10006082 <stdio_put_string+0x32>
10006070:	4f19      	ldr	r7, [pc, #100]	; (100060d8 <stdio_put_string+0x88>)
10006072:	4b1a      	ldr	r3, [pc, #104]	; (100060dc <stdio_put_string+0x8c>)
10006074:	681c      	ldr	r4, [r3, #0]
10006076:	e007      	b.n	10006088 <stdio_put_string+0x38>
10006078:	0030      	movs	r0, r6
1000607a:	f000 f911 	bl	100062a0 <strlen>
1000607e:	0005      	movs	r5, r0
10006080:	e7f4      	b.n	1000606c <stdio_put_string+0x1c>
10006082:	4f17      	ldr	r7, [pc, #92]	; (100060e0 <stdio_put_string+0x90>)
10006084:	e7f5      	b.n	10006072 <stdio_put_string+0x22>
10006086:	68e4      	ldr	r4, [r4, #12]
10006088:	2c00      	cmp	r4, #0
1000608a:	d017      	beq.n	100060bc <stdio_put_string+0x6c>
1000608c:	6823      	ldr	r3, [r4, #0]
1000608e:	2b00      	cmp	r3, #0
10006090:	d0f9      	beq.n	10006086 <stdio_put_string+0x36>
10006092:	4b14      	ldr	r3, [pc, #80]	; (100060e4 <stdio_put_string+0x94>)
10006094:	681b      	ldr	r3, [r3, #0]
10006096:	2b00      	cmp	r3, #0
10006098:	d001      	beq.n	1000609e <stdio_put_string+0x4e>
1000609a:	42a3      	cmp	r3, r4
1000609c:	d1f3      	bne.n	10006086 <stdio_put_string+0x36>
1000609e:	002a      	movs	r2, r5
100060a0:	0031      	movs	r1, r6
100060a2:	0020      	movs	r0, r4
100060a4:	47b8      	blx	r7
100060a6:	4643      	mov	r3, r8
100060a8:	2b00      	cmp	r3, #0
100060aa:	d0ec      	beq.n	10006086 <stdio_put_string+0x36>
100060ac:	466b      	mov	r3, sp
100060ae:	1dd9      	adds	r1, r3, #7
100060b0:	230a      	movs	r3, #10
100060b2:	700b      	strb	r3, [r1, #0]
100060b4:	2201      	movs	r2, #1
100060b6:	0020      	movs	r0, r4
100060b8:	47b8      	blx	r7
100060ba:	e7e4      	b.n	10006086 <stdio_put_string+0x36>
100060bc:	464b      	mov	r3, r9
100060be:	2b00      	cmp	r3, #0
100060c0:	d107      	bne.n	100060d2 <stdio_put_string+0x82>
100060c2:	1e6b      	subs	r3, r5, #1
100060c4:	419d      	sbcs	r5, r3
100060c6:	b2e8      	uxtb	r0, r5
100060c8:	b003      	add	sp, #12
100060ca:	bcc0      	pop	{r6, r7}
100060cc:	46b9      	mov	r9, r7
100060ce:	46b0      	mov	r8, r6
100060d0:	bdf0      	pop	{r4, r5, r6, r7, pc}
100060d2:	f7ff ffb5 	bl	10006040 <stdout_serialize_end>
100060d6:	e7f4      	b.n	100060c2 <stdio_put_string+0x72>
100060d8:	10005f21 	.word	0x10005f21
100060dc:	2000042c 	.word	0x2000042c
100060e0:	10005f31 	.word	0x10005f31
100060e4:	20000430 	.word	0x20000430

100060e8 <stdio_flush>:
100060e8:	b510      	push	{r4, lr}
100060ea:	4b06      	ldr	r3, [pc, #24]	; (10006104 <stdio_flush+0x1c>)
100060ec:	681c      	ldr	r4, [r3, #0]
100060ee:	e001      	b.n	100060f4 <stdio_flush+0xc>
100060f0:	4798      	blx	r3
100060f2:	68e4      	ldr	r4, [r4, #12]
100060f4:	2c00      	cmp	r4, #0
100060f6:	d003      	beq.n	10006100 <stdio_flush+0x18>
100060f8:	6863      	ldr	r3, [r4, #4]
100060fa:	2b00      	cmp	r3, #0
100060fc:	d1f8      	bne.n	100060f0 <stdio_flush+0x8>
100060fe:	e7f8      	b.n	100060f2 <stdio_flush+0xa>
10006100:	bd10      	pop	{r4, pc}
10006102:	46c0      	nop			; (mov r8, r8)
10006104:	2000042c 	.word	0x2000042c

10006108 <__wrap_puts>:
10006108:	b570      	push	{r4, r5, r6, lr}
1000610a:	0005      	movs	r5, r0
1000610c:	f000 f8c8 	bl	100062a0 <strlen>
10006110:	0004      	movs	r4, r0
10006112:	2300      	movs	r3, #0
10006114:	2201      	movs	r2, #1
10006116:	0001      	movs	r1, r0
10006118:	0028      	movs	r0, r5
1000611a:	f7ff ff99 	bl	10006050 <stdio_put_string>
1000611e:	f7ff ffe3 	bl	100060e8 <stdio_flush>
10006122:	0020      	movs	r0, r4
10006124:	bd70      	pop	{r4, r5, r6, pc}
	...

10006128 <__wrap_vprintf>:
10006128:	b570      	push	{r4, r5, r6, lr}
1000612a:	b0a2      	sub	sp, #136	; 0x88
1000612c:	0004      	movs	r4, r0
1000612e:	000e      	movs	r6, r1
10006130:	f7ff ff70 	bl	10006014 <stdout_serialize_begin>
10006134:	0005      	movs	r5, r0
10006136:	2284      	movs	r2, #132	; 0x84
10006138:	2100      	movs	r1, #0
1000613a:	a801      	add	r0, sp, #4
1000613c:	f7ff fee4 	bl	10005f08 <__wrap_memset>
10006140:	0033      	movs	r3, r6
10006142:	0022      	movs	r2, r4
10006144:	a901      	add	r1, sp, #4
10006146:	4808      	ldr	r0, [pc, #32]	; (10006168 <__wrap_vprintf+0x40>)
10006148:	f7fe ff8e 	bl	10005068 <vfctprintf>
1000614c:	0004      	movs	r4, r0
1000614e:	a801      	add	r0, sp, #4
10006150:	f7ff ff2e 	bl	10005fb0 <stdio_stack_buffer_flush>
10006154:	f7ff ffc8 	bl	100060e8 <stdio_flush>
10006158:	2d00      	cmp	r5, #0
1000615a:	d102      	bne.n	10006162 <__wrap_vprintf+0x3a>
1000615c:	0020      	movs	r0, r4
1000615e:	b022      	add	sp, #136	; 0x88
10006160:	bd70      	pop	{r4, r5, r6, pc}
10006162:	f7ff ff6d 	bl	10006040 <stdout_serialize_end>
10006166:	e7f9      	b.n	1000615c <__wrap_vprintf+0x34>
10006168:	10005ff5 	.word	0x10005ff5

1000616c <__wrap_printf>:
1000616c:	b40f      	push	{r0, r1, r2, r3}
1000616e:	b500      	push	{lr}
10006170:	b083      	sub	sp, #12
10006172:	a904      	add	r1, sp, #16
10006174:	c901      	ldmia	r1!, {r0}
10006176:	9101      	str	r1, [sp, #4]
10006178:	f7ff ffd6 	bl	10006128 <__wrap_vprintf>
1000617c:	b003      	add	sp, #12
1000617e:	bc08      	pop	{r3}
10006180:	b004      	add	sp, #16
10006182:	4718      	bx	r3

10006184 <core1_trampoline>:
10006184:	bd03      	pop	{r0, r1, pc}

10006186 <core1_wrapper>:
10006186:	b510      	push	{r4, lr}
10006188:	0004      	movs	r4, r0
1000618a:	f7fd fe27 	bl	10003ddc <irq_init_priorities>
1000618e:	47a0      	blx	r4
10006190:	bd10      	pop	{r4, pc}

10006192 <multicore_fifo_push_blocking>:
10006192:	23d0      	movs	r3, #208	; 0xd0
10006194:	061b      	lsls	r3, r3, #24
10006196:	6d1b      	ldr	r3, [r3, #80]	; 0x50
10006198:	079b      	lsls	r3, r3, #30
1000619a:	d5fa      	bpl.n	10006192 <multicore_fifo_push_blocking>
1000619c:	23d0      	movs	r3, #208	; 0xd0
1000619e:	061b      	lsls	r3, r3, #24
100061a0:	6558      	str	r0, [r3, #84]	; 0x54
100061a2:	bf40      	sev
100061a4:	4770      	bx	lr

100061a6 <multicore_fifo_pop_blocking>:
100061a6:	e000      	b.n	100061aa <multicore_fifo_pop_blocking+0x4>
100061a8:	bf20      	wfe
100061aa:	23d0      	movs	r3, #208	; 0xd0
100061ac:	061b      	lsls	r3, r3, #24
100061ae:	6d1b      	ldr	r3, [r3, #80]	; 0x50
100061b0:	07db      	lsls	r3, r3, #31
100061b2:	d5f9      	bpl.n	100061a8 <multicore_fifo_pop_blocking+0x2>
100061b4:	23d0      	movs	r3, #208	; 0xd0
100061b6:	061b      	lsls	r3, r3, #24
100061b8:	6d98      	ldr	r0, [r3, #88]	; 0x58
100061ba:	4770      	bx	lr

100061bc <multicore_launch_core1_raw>:
100061bc:	b5f0      	push	{r4, r5, r6, r7, lr}
100061be:	b087      	sub	sp, #28
100061c0:	0004      	movs	r4, r0
100061c2:	000d      	movs	r5, r1
100061c4:	0017      	movs	r7, r2
100061c6:	200f      	movs	r0, #15
100061c8:	f7fd fc50 	bl	10003a6c <irq_is_enabled>
100061cc:	0006      	movs	r6, r0
100061ce:	2100      	movs	r1, #0
100061d0:	200f      	movs	r0, #15
100061d2:	f7fd fc67 	bl	10003aa4 <irq_set_enabled>
100061d6:	2300      	movs	r3, #0
100061d8:	9300      	str	r3, [sp, #0]
100061da:	9301      	str	r3, [sp, #4]
100061dc:	3301      	adds	r3, #1
100061de:	9302      	str	r3, [sp, #8]
100061e0:	9703      	str	r7, [sp, #12]
100061e2:	9504      	str	r5, [sp, #16]
100061e4:	9405      	str	r4, [sp, #20]
100061e6:	2500      	movs	r5, #0
100061e8:	e000      	b.n	100061ec <multicore_launch_core1_raw+0x30>
100061ea:	2500      	movs	r5, #0
100061ec:	00ab      	lsls	r3, r5, #2
100061ee:	466a      	mov	r2, sp
100061f0:	589c      	ldr	r4, [r3, r2]
100061f2:	2c00      	cmp	r4, #0
100061f4:	d012      	beq.n	1000621c <multicore_launch_core1_raw+0x60>
100061f6:	0020      	movs	r0, r4
100061f8:	f7ff ffcb 	bl	10006192 <multicore_fifo_push_blocking>
100061fc:	f7ff ffd3 	bl	100061a6 <multicore_fifo_pop_blocking>
10006200:	4284      	cmp	r4, r0
10006202:	d1f2      	bne.n	100061ea <multicore_launch_core1_raw+0x2e>
10006204:	3501      	adds	r5, #1
10006206:	2d05      	cmp	r5, #5
10006208:	d9f0      	bls.n	100061ec <multicore_launch_core1_raw+0x30>
1000620a:	0031      	movs	r1, r6
1000620c:	200f      	movs	r0, #15
1000620e:	f7fd fc49 	bl	10003aa4 <irq_set_enabled>
10006212:	b007      	add	sp, #28
10006214:	bdf0      	pop	{r4, r5, r6, r7, pc}
10006216:	23d0      	movs	r3, #208	; 0xd0
10006218:	061b      	lsls	r3, r3, #24
1000621a:	6d9b      	ldr	r3, [r3, #88]	; 0x58
1000621c:	23d0      	movs	r3, #208	; 0xd0
1000621e:	061b      	lsls	r3, r3, #24
10006220:	6d1b      	ldr	r3, [r3, #80]	; 0x50
10006222:	07db      	lsls	r3, r3, #31
10006224:	d4f7      	bmi.n	10006216 <multicore_launch_core1_raw+0x5a>
10006226:	bf40      	sev
10006228:	e7e5      	b.n	100061f6 <multicore_launch_core1_raw+0x3a>
	...

1000622c <multicore_launch_core1_with_stack>:
1000622c:	b510      	push	{r4, lr}
1000622e:	000b      	movs	r3, r1
10006230:	0791      	lsls	r1, r2, #30
10006232:	d111      	bne.n	10006258 <multicore_launch_core1_with_stack+0x2c>
10006234:	2103      	movs	r1, #3
10006236:	438a      	bics	r2, r1
10006238:	189a      	adds	r2, r3, r2
1000623a:	0011      	movs	r1, r2
1000623c:	390c      	subs	r1, #12
1000623e:	6008      	str	r0, [r1, #0]
10006240:	0010      	movs	r0, r2
10006242:	3808      	subs	r0, #8
10006244:	6003      	str	r3, [r0, #0]
10006246:	3a04      	subs	r2, #4
10006248:	4b06      	ldr	r3, [pc, #24]	; (10006264 <multicore_launch_core1_with_stack+0x38>)
1000624a:	6013      	str	r3, [r2, #0]
1000624c:	4b06      	ldr	r3, [pc, #24]	; (10006268 <multicore_launch_core1_with_stack+0x3c>)
1000624e:	689a      	ldr	r2, [r3, #8]
10006250:	4806      	ldr	r0, [pc, #24]	; (1000626c <multicore_launch_core1_with_stack+0x40>)
10006252:	f7ff ffb3 	bl	100061bc <multicore_launch_core1_raw>
10006256:	bd10      	pop	{r4, pc}
10006258:	4b05      	ldr	r3, [pc, #20]	; (10006270 <multicore_launch_core1_with_stack+0x44>)
1000625a:	4a06      	ldr	r2, [pc, #24]	; (10006274 <multicore_launch_core1_with_stack+0x48>)
1000625c:	216e      	movs	r1, #110	; 0x6e
1000625e:	4806      	ldr	r0, [pc, #24]	; (10006278 <multicore_launch_core1_with_stack+0x4c>)
10006260:	f7fd f9f6 	bl	10003650 <__assert_func>
10006264:	10006187 	.word	0x10006187
10006268:	e000ed00 	.word	0xe000ed00
1000626c:	10006185 	.word	0x10006185
10006270:	10007d48 	.word	0x10007d48
10006274:	10007d64 	.word	0x10007d64
10006278:	10007cf4 	.word	0x10007cf4

1000627c <multicore_launch_core1>:
1000627c:	b510      	push	{r4, lr}
1000627e:	4a06      	ldr	r2, [pc, #24]	; (10006298 <multicore_launch_core1+0x1c>)
10006280:	4b06      	ldr	r3, [pc, #24]	; (1000629c <multicore_launch_core1+0x20>)
10006282:	429a      	cmp	r2, r3
10006284:	d305      	bcc.n	10006292 <multicore_launch_core1+0x16>
10006286:	0011      	movs	r1, r2
10006288:	2280      	movs	r2, #128	; 0x80
1000628a:	0152      	lsls	r2, r2, #5
1000628c:	f7ff ffce 	bl	1000622c <multicore_launch_core1_with_stack>
10006290:	bd10      	pop	{r4, pc}
10006292:	2101      	movs	r1, #1
10006294:	4249      	negs	r1, r1
10006296:	e7f7      	b.n	10006288 <multicore_launch_core1+0xc>
10006298:	20040000 	.word	0x20040000
1000629c:	20040000 	.word	0x20040000

100062a0 <strlen>:
100062a0:	b510      	push	{r4, lr}
100062a2:	0783      	lsls	r3, r0, #30
100062a4:	d00a      	beq.n	100062bc <strlen+0x1c>
100062a6:	0003      	movs	r3, r0
100062a8:	2103      	movs	r1, #3
100062aa:	e002      	b.n	100062b2 <strlen+0x12>
100062ac:	3301      	adds	r3, #1
100062ae:	420b      	tst	r3, r1
100062b0:	d005      	beq.n	100062be <strlen+0x1e>
100062b2:	781a      	ldrb	r2, [r3, #0]
100062b4:	2a00      	cmp	r2, #0
100062b6:	d1f9      	bne.n	100062ac <strlen+0xc>
100062b8:	1a18      	subs	r0, r3, r0
100062ba:	bd10      	pop	{r4, pc}
100062bc:	0003      	movs	r3, r0
100062be:	6819      	ldr	r1, [r3, #0]
100062c0:	4a0c      	ldr	r2, [pc, #48]	; (100062f4 <strlen+0x54>)
100062c2:	4c0d      	ldr	r4, [pc, #52]	; (100062f8 <strlen+0x58>)
100062c4:	188a      	adds	r2, r1, r2
100062c6:	438a      	bics	r2, r1
100062c8:	4222      	tst	r2, r4
100062ca:	d10f      	bne.n	100062ec <strlen+0x4c>
100062cc:	6859      	ldr	r1, [r3, #4]
100062ce:	4a09      	ldr	r2, [pc, #36]	; (100062f4 <strlen+0x54>)
100062d0:	3304      	adds	r3, #4
100062d2:	188a      	adds	r2, r1, r2
100062d4:	438a      	bics	r2, r1
100062d6:	4222      	tst	r2, r4
100062d8:	d108      	bne.n	100062ec <strlen+0x4c>
100062da:	6859      	ldr	r1, [r3, #4]
100062dc:	4a05      	ldr	r2, [pc, #20]	; (100062f4 <strlen+0x54>)
100062de:	3304      	adds	r3, #4
100062e0:	188a      	adds	r2, r1, r2
100062e2:	438a      	bics	r2, r1
100062e4:	4222      	tst	r2, r4
100062e6:	d0f1      	beq.n	100062cc <strlen+0x2c>
100062e8:	e000      	b.n	100062ec <strlen+0x4c>
100062ea:	3301      	adds	r3, #1
100062ec:	781a      	ldrb	r2, [r3, #0]
100062ee:	2a00      	cmp	r2, #0
100062f0:	d1fb      	bne.n	100062ea <strlen+0x4a>
100062f2:	e7e1      	b.n	100062b8 <strlen+0x18>
100062f4:	fefefeff 	.word	0xfefefeff
100062f8:	80808080 	.word	0x80808080

100062fc <_fini>:
100062fc:	b5f8      	push	{r3, r4, r5, r6, r7, lr}
100062fe:	46c0      	nop			; (mov r8, r8)

10006300 <__mutex_exit_veneer>:
10006300:	b401      	push	{r0}
10006302:	4802      	ldr	r0, [pc, #8]	; (1000630c <__mutex_exit_veneer+0xc>)
10006304:	4684      	mov	ip, r0
10006306:	bc01      	pop	{r0}
10006308:	4760      	bx	ip
1000630a:	bf00      	nop
1000630c:	20000141 	.word	0x20000141

10006310 <____aeabi_ldiv0_veneer>:
10006310:	b401      	push	{r0}
10006312:	4802      	ldr	r0, [pc, #8]	; (1000631c <____aeabi_ldiv0_veneer+0xc>)
10006314:	4684      	mov	ip, r0
10006316:	bc01      	pop	{r0}
10006318:	4760      	bx	ip
1000631a:	bf00      	nop
1000631c:	20000181 	.word	0x20000181

10006320 <____aeabi_idiv0_veneer>:
10006320:	b401      	push	{r0}
10006322:	4802      	ldr	r0, [pc, #8]	; (1000632c <____aeabi_idiv0_veneer+0xc>)
10006324:	4684      	mov	ip, r0
10006326:	bc01      	pop	{r0}
10006328:	4760      	bx	ip
1000632a:	bf00      	nop
1000632c:	20000181 	.word	0x20000181

10006330 <__mutex_try_enter_veneer>:
10006330:	b401      	push	{r0}
10006332:	4802      	ldr	r0, [pc, #8]	; (1000633c <__mutex_try_enter_veneer+0xc>)
10006334:	4684      	mov	ip, r0
10006336:	bc01      	pop	{r0}
10006338:	4760      	bx	ip
1000633a:	bf00      	nop
1000633c:	200000fd 	.word	0x200000fd

10006340 <__mutex_enter_blocking_veneer>:
10006340:	b401      	push	{r0}
10006342:	4802      	ldr	r0, [pc, #8]	; (1000634c <__mutex_enter_blocking_veneer+0xc>)
10006344:	4684      	mov	ip, r0
10006346:	bc01      	pop	{r0}
10006348:	4760      	bx	ip
1000634a:	bf00      	nop
1000634c:	200000c1 	.word	0x200000c1

Disassembly of section .data:

200000c0 <mutex_enter_blocking>:
200000c0:	b570      	push	{r4, r5, r6, lr}
200000c2:	0004      	movs	r4, r0
200000c4:	f000 f868 	bl	20000198 <__ulPortLockGetCurrentOwnerId_veneer>
200000c8:	0005      	movs	r5, r0
200000ca:	6822      	ldr	r2, [r4, #0]
200000cc:	f3ef 8110 	mrs	r1, PRIMASK
200000d0:	b672      	cpsid	i
200000d2:	6813      	ldr	r3, [r2, #0]
200000d4:	2b00      	cmp	r3, #0
200000d6:	d0fc      	beq.n	200000d2 <mutex_enter_blocking+0x12>
200000d8:	f3bf 8f5f 	dmb	sy
200000dc:	6863      	ldr	r3, [r4, #4]
200000de:	3301      	adds	r3, #1
200000e0:	d003      	beq.n	200000ea <mutex_enter_blocking+0x2a>
200000e2:	0020      	movs	r0, r4
200000e4:	f000 f850 	bl	20000188 <__vPortLockInternalSpinUnlockWithWait_veneer>
200000e8:	e7ef      	b.n	200000ca <mutex_enter_blocking+0xa>
200000ea:	6065      	str	r5, [r4, #4]
200000ec:	6823      	ldr	r3, [r4, #0]
200000ee:	f3bf 8f5f 	dmb	sy
200000f2:	2200      	movs	r2, #0
200000f4:	601a      	str	r2, [r3, #0]
200000f6:	f381 8810 	msr	PRIMASK, r1
200000fa:	bd70      	pop	{r4, r5, r6, pc}

200000fc <mutex_try_enter>:
200000fc:	b570      	push	{r4, r5, r6, lr}
200000fe:	0004      	movs	r4, r0
20000100:	6802      	ldr	r2, [r0, #0]
20000102:	f3ef 8510 	mrs	r5, PRIMASK
20000106:	b672      	cpsid	i
20000108:	6813      	ldr	r3, [r2, #0]
2000010a:	2b00      	cmp	r3, #0
2000010c:	d0fc      	beq.n	20000108 <mutex_try_enter+0xc>
2000010e:	f3bf 8f5f 	dmb	sy
20000112:	6863      	ldr	r3, [r4, #4]
20000114:	1c5a      	adds	r2, r3, #1
20000116:	d00b      	beq.n	20000130 <mutex_try_enter+0x34>
20000118:	2900      	cmp	r1, #0
2000011a:	d00e      	beq.n	2000013a <mutex_try_enter+0x3e>
2000011c:	600b      	str	r3, [r1, #0]
2000011e:	2000      	movs	r0, #0
20000120:	6823      	ldr	r3, [r4, #0]
20000122:	f3bf 8f5f 	dmb	sy
20000126:	2200      	movs	r2, #0
20000128:	601a      	str	r2, [r3, #0]
2000012a:	f385 8810 	msr	PRIMASK, r5
2000012e:	bd70      	pop	{r4, r5, r6, pc}
20000130:	f000 f832 	bl	20000198 <__ulPortLockGetCurrentOwnerId_veneer>
20000134:	6060      	str	r0, [r4, #4]
20000136:	2001      	movs	r0, #1
20000138:	e7f2      	b.n	20000120 <mutex_try_enter+0x24>
2000013a:	2000      	movs	r0, #0
2000013c:	e7f0      	b.n	20000120 <mutex_try_enter+0x24>
	...

20000140 <mutex_exit>:
20000140:	b510      	push	{r4, lr}
20000142:	6802      	ldr	r2, [r0, #0]
20000144:	f3ef 8110 	mrs	r1, PRIMASK
20000148:	b672      	cpsid	i
2000014a:	6813      	ldr	r3, [r2, #0]
2000014c:	2b00      	cmp	r3, #0
2000014e:	d0fc      	beq.n	2000014a <mutex_exit+0xa>
20000150:	f3bf 8f5f 	dmb	sy
20000154:	6843      	ldr	r3, [r0, #4]
20000156:	3301      	adds	r3, #1
20000158:	d005      	beq.n	20000166 <mutex_exit+0x26>
2000015a:	2301      	movs	r3, #1
2000015c:	425b      	negs	r3, r3
2000015e:	6043      	str	r3, [r0, #4]
20000160:	f000 f822 	bl	200001a8 <__vPortLockInternalSpinUnlockWithNotify_veneer>
20000164:	bd10      	pop	{r4, pc}
20000166:	4b03      	ldr	r3, [pc, #12]	; (20000174 <mutex_exit+0x34>)
20000168:	4a03      	ldr	r2, [pc, #12]	; (20000178 <mutex_exit+0x38>)
2000016a:	21a9      	movs	r1, #169	; 0xa9
2000016c:	4803      	ldr	r0, [pc, #12]	; (2000017c <mutex_exit+0x3c>)
2000016e:	f000 f823 	bl	200001b8 <____assert_func_veneer>
20000172:	46c0      	nop			; (mov r8, r8)
20000174:	100072e0 	.word	0x100072e0
20000178:	10007318 	.word	0x10007318
2000017c:	10007288 	.word	0x10007288

20000180 <__aeabi_idiv0>:
20000180:	4770      	bx	lr
20000182:	46c0      	nop			; (mov r8, r8)
20000184:	0000      	movs	r0, r0
	...

20000188 <__vPortLockInternalSpinUnlockWithWait_veneer>:
20000188:	b401      	push	{r0}
2000018a:	4802      	ldr	r0, [pc, #8]	; (20000194 <__vPortLockInternalSpinUnlockWithWait_veneer+0xc>)
2000018c:	4684      	mov	ip, r0
2000018e:	bc01      	pop	{r0}
20000190:	4760      	bx	ip
20000192:	bf00      	nop
20000194:	10000725 	.word	0x10000725

20000198 <__ulPortLockGetCurrentOwnerId_veneer>:
20000198:	b401      	push	{r0}
2000019a:	4802      	ldr	r0, [pc, #8]	; (200001a4 <__ulPortLockGetCurrentOwnerId_veneer+0xc>)
2000019c:	4684      	mov	ip, r0
2000019e:	bc01      	pop	{r0}
200001a0:	4760      	bx	ip
200001a2:	bf00      	nop
200001a4:	100006f5 	.word	0x100006f5

200001a8 <__vPortLockInternalSpinUnlockWithNotify_veneer>:
200001a8:	b401      	push	{r0}
200001aa:	4802      	ldr	r0, [pc, #8]	; (200001b4 <__vPortLockInternalSpinUnlockWithNotify_veneer+0xc>)
200001ac:	4684      	mov	ip, r0
200001ae:	bc01      	pop	{r0}
200001b0:	4760      	bx	ip
200001b2:	bf00      	nop
200001b4:	100007fd 	.word	0x100007fd

200001b8 <____assert_func_veneer>:
200001b8:	b401      	push	{r0}
200001ba:	4802      	ldr	r0, [pc, #8]	; (200001c4 <____assert_func_veneer+0xc>)
200001bc:	4684      	mov	ip, r0
200001be:	bc01      	pop	{r0}
200001c0:	4760      	bx	ip
200001c2:	bf00      	nop
200001c4:	10003651 	.word	0x10003651

200001c8 <ucLaunchCoreNum>:
200001c8:	000000ff                                ....

200001cc <uxTopUsedPriority>:
200001cc:	0000001f                                ....

200001d0 <striped_spin_lock_num>:
200001d0:	00000010                                ....

200001d4 <default_alarm_pool>:
200001d4:	200001ec 00000000 20000298 200003ec     ... ....... ... 
	...

200001ec <default_alarm_pool_heap>:
200001ec:	200003fc 00000000 00000000 00000010     ... ............

200001fc <irq_handler_chain_slots>:
200001fc:	00000000 	.word	0x00000000
20000200:	00010000 	.word	0x00010000
	...
2000020c:	00020000 	.word	0x00020000
	...
20000218:	00030000 	.word	0x00030000
	...
20000224:	00ff0000 	.word	0x00ff0000
20000228:	00000000 	.word	0x00000000

2000022c <irq_handler_chain_first_slot>:
2000022c:	b500      	push	{lr}
2000022e:	6848      	ldr	r0, [r1, #4]
20000230:	3101      	adds	r1, #1
20000232:	468e      	mov	lr, r1
20000234:	4700      	bx	r0

20000236 <irq_handler_chain_remove_tail>:
20000236:	4670      	mov	r0, lr
20000238:	3809      	subs	r0, #9
2000023a:	4901      	ldr	r1, [pc, #4]	; (20000240 <irq_handler_chain_remove_tail+0xa>)
2000023c:	4788      	blx	r1
2000023e:	bd00      	pop	{pc}
20000240:	10003ced 	.word	0x10003ced
	...

20000250 <aeabi_bits_funcs>:
20000250:	00003350 	.word	0x00003350
20000254:	0000334c 	.word	0x0000334c
20000258:	00003354 	.word	0x00003354
2000025c:	00003352 	.word	0x00003352

20000260 <aeabi_bits_funcs_end>:
20000260:	0000534d 	.word	0x0000534d
20000264:	0000434d 	.word	0x0000434d
20000268:	00003453 	.word	0x00003453
2000026c:	00003443 	.word	0x00003443

20000270 <malloc_mutex>:
	...

20000278 <print_mutex>:
	...

20000280 <__mutex_array_end>:
20000280:	10005ef9 	.word	0x10005ef9
20000284:	10005089 	.word	0x10005089
20000288:	10005799 	.word	0x10005799
2000028c:	10005dc9 	.word	0x10005dc9

20000290 <__frame_dummy_init_array_entry>:
20000290:	100002ed 100008cd                       ........
